ARM GAS  /tmp/ccuGx7KI.s 			page 1


   1              		.syntax unified
   2              		.cpu cortex-m3
   3              		.fpu softvfp
   4              		.eabi_attribute 20, 1
   5              		.eabi_attribute 21, 1
   6              		.eabi_attribute 23, 3
   7              		.eabi_attribute 24, 1
   8              		.eabi_attribute 25, 1
   9              		.eabi_attribute 26, 1
  10              		.eabi_attribute 30, 2
  11              		.eabi_attribute 34, 1
  12              		.eabi_attribute 18, 4
  13              		.thumb
  14              		.file	"chdynamic.c"
  15              		.text
  16              	.Ltext0:
  17              		.section	.gnu.lto_.jmpfuncs.4747db695e3e50c7,"",%progbits
  18 0000 789C6D8B 		.ascii	"x\234m\2131\016\2000\014\003}n\021#s\247\276\016^\220"
  18      310E8030 
  18      0C037D6E 
  18      112373A7 
  18      BE0E5E90 
  19 0014 FF8BB465 		.ascii	"\377\213\264e\001\221\341b\351l\013\355\372\277\353"
  19      0191E162 
  19      E96C0BED 
  19      FABFEB
  20 0023 F99BB06A 		.ascii	"\371\233\260j\206\000C.J\267\334t\262t:\"\341\2012P"
  20      8600432E 
  20      4AB7DC74 
  20      B2743A22 
  20      E1813250 
  21 0037 C373B0CC 		.ascii	"\303s\260\314\361j\177\353\314\246nT\002\007\001"
  21      F16A7FEB 
  21      CCA66E54 
  21      020701
  22              		.text
  23              		.section	.gnu.lto_.inline.4747db695e3e50c7,"",%progbits
  24 0000 789C6362 		.ascii	"x\234cb`d\340e\300\016V@iV\006\006\036\021F\006&\216"
  24      6064E065 
  24      C00E5640 
  24      69560606 
  24      1E114606 
  25 0016 03760C5C 		.ascii	"\003v\014\\\007\354\230\030\230y\030\030\230&\370M\360"
  25      07EC9818 
  25      98791818 
  25      9826F84D 
  25      F0
  26 0027 6364E060 		.ascii	"cd\340`\207Jp|\320cb`b\220\343\003\362\325W\264\001"
  26      874A707C 
  26      D0636260 
  26      6290E303 
  26      F2D557B4 
  27 003c 4D9D630E 		.ascii	"M\235c\016\024\340f``\234\340\007\245\230\031\304\364"
  27      14E06660 
  27      609CE007 
  27      A59819C4 
  27      F4
ARM GAS  /tmp/ccuGx7KI.s 			page 2


  28 004d 81D25C7F 		.ascii	"\201\322\\\177\274\031\330\026\310\303\315a`\027\000"
  28      BC19D816 
  28      C8C3CD61 
  28      601700
  29 005c 5A02320F 		.ascii	"Z\0022\017\002Yx\241\306\2630\210\203\324\363\256Jb"
  29      025978A1 
  29      C6B33088 
  29      83D4F3AE 
  29      4A62
  30 006e 60BFA586 		.ascii	"`\277\245\206S=H\030h:\003\000\022\226\035\221"
  30      533D4818 
  30      683A0300 
  30      12961D91 
  31              		.text
  32              		.section	.gnu.lto_.pureconst.4747db695e3e50c7,"",%progbits
  33 0000 789C6362 		.ascii	"x\234cb`d`f``\340f\200\000V\006)F+&+f+\026+\000\006"
  33      60646066 
  33      6060E066 
  33      80005606 
  33      29462B26 
  34 001b 690123   		.ascii	"i\001#"
  35              		.text
  36              		.section	.gnu.lto_chThdRelease.part.0.4747db695e3e50c7,"",%progbits
  37 0000 789CAD92 		.ascii	"x\234\255\222=o\023A\020\206g\366\3038\241\241$\215"
  37      3D6F1341 
  37      108667F6 
  37      C338A1A1 
  37      248D
  38 0012 09969B24 		.ascii	"\011\226\233$\222\357G\320\204*\212\2434H\306\220\343"
  38      92EF47D0 
  38      842A8AA3 
  38      3448C690 
  38      E3
  39 0023 428C4440 		.ascii	"B\214D@v\232\244\361\345\222\037`Q\221\030\214\"\003"
  39      769AA4F1 
  39      E5921F60 
  39      5191188C 
  39      2203
  40 0035 15A2A08F 		.ascii	"\025\242\240\217,A\203\"\313\225\313\024.\"DAA\201\020"
  40      2C418322 
  40      CB95CB14 
  40      2E224441 
  40      418110
  41 0048 48486666 		.ascii	"HHff\357\016\242;'\276X\331\323\352\335[\3153\357\354"
  41      EF0EA23B 
  41      27BE58D9 
  41      D3EADD5B 
  41      CD33EFEC 
  42 005c CE0A40FA 		.ascii	"\316\012@\372\342c\216\346\241\362\0255\240\252wi\241"
  42      E2638EE6 
  42      A1F21535 
  42      A0AA7769 
  42      A1
  43 006d 50181528 		.ascii	"P\030\025(Y\267\247%\"/(EM\011\211\265e\223\353j\026"
  43      59B7A725 
  43      222F2845 
  43      4D0989B5 
ARM GAS  /tmp/ccuGx7KI.s 			page 3


  43      6593EB6A 
  44 0082 0E5CF7D9 		.ascii	"\016\\\367\331\367\217\336u\257?\030\334px\267\204p"
  44      F78FDE75 
  44      AF3F18DC 
  44      7078B784 
  44      70
  45 0093 D47E3805 		.ascii	"\324~8\005\016\"\244\201UD\235\003\314sCL\012\310!\223"
  45      0E22A481 
  45      55449D03 
  45      CC73434C 
  45      0AC82193 
  46 00a7 C78DF504 		.ascii	"\307\215\365\004d\375\2237\037\220\312\030\2364\337"
  46      64FD9337 
  46      1F90CA18 
  46      9E34DF
  47 00b6 A2CF4D07 		.ascii	"\242\317M\007\234\032\301i\303\365^f\306\301`4T?\005"
  47      9C1AC169 
  47      C3F55E66 
  47      C6C16034 
  47      543F05
  48 00c9 A50CF4E3 		.ascii	"\245\014\364\343\305\227\0045\306\271\004f\361\016\374"
  48      C5970435 
  48      C6B90466 
  48      F10EFC
  49 00d8 92491A10 		.ascii	"\222I\032\020\245\276\375+\361b\334\237\306\243q\260"
  49      A5BEFD2B 
  49      F162DC9F 
  49      C6A371B0 
  50 00e8 AFE71789 		.ascii	"\257\347\027\211\235W\251\266p\373\203Z\016Z\334\206"
  50      9D57A9B6 
  50      70FB835A 
  50      0E5ADC86 
  51 00f8 1D779E3A 		.ascii	"\035w\236: `\306<\225^\343\347\260\373\344\036M\"\026"
  51      2060C63C 
  51      955EE3E7 
  51      B0FBE41E 
  51      4D2216
  52 010b F11DE640 		.ascii	"\361\035\346@@\021\337`\026$\351kR\025\250&m\221\322"
  52      4011DF60 
  52      1624E96B 
  52      5215A826 
  52      6D91D2
  53 011e D0B0EBBA 		.ascii	"\320\260\353\272\327(\376\200\376KA\011\213\254\374"
  53      D728FE80 
  53      FE4B4109 
  53      8BACFC
  54 012d E017F981 		.ascii	"\340\027\371\201\321B\026(\277Y|\006N\376\236\\\356"
  54      D1421628 
  54      BF597C06 
  54      4EFE9E5C 
  54      EE
  55 013e 71D01178 		.ascii	"q\320\021xwz\315\214\277c\243\230\203Y\252@\356\303"
  55      777ACD8C 
  55      BF63A398 
  55      8359AA40 
  55      EEC3
  56 0150 1E3A7845 		.ascii	"\036:xE\330hj\324|\034\232w\377\037\221A\01019\012\303"
ARM GAS  /tmp/ccuGx7KI.s 			page 4


  56      D8686AD4 
  56      7C1C9A77 
  56      FF1F9141 
  56      0831390A 
  57 0165 53D8ED00 		.ascii	"S\330\355\000\2131b(C\331#n\352R\334\324\320\203\331"
  57      8B316228 
  57      43D9236E 
  57      EA52DCD4 
  57      D083D9
  58 0178 7C4FEC76 		.ascii	"|O\354v\322\374\200\241\2416\260:\333P\204\206\035\320"
  58      D2FC80A1 
  58      A136B03A 
  58      DB508486 
  58      1DD0
  59 018a CFB58F01 		.ascii	"\317\265\217\001l\301o7\355`\032K\030\224D\251\210u"
  59      6CC16F37 
  59      ED601A4B 
  59      189444A9 
  59      8875
  60 019c 70C28F2E 		.ascii	"p\302\217.\360\321\242M\241\310\256y;a\232\260\245h"
  60      F0D1A24D 
  60      A1C8AE79 
  60      3B619AB0 
  60      A568
  61 01ae 62D9EA66 		.ascii	"b\331\352f>o\335Z+\257\224\027\226\254'U\253\262aU+"
  61      3E6FDD5A 
  61      2BAF9417 
  61      96AC2755 
  61      ABB26155 
  62 01c3 B665AF3D 		.ascii	"\266e\257=\330\\\277\377\270l\347mP\025g\265*6\236\376"
  62      D85CBFFF 
  62      B86CE76D 
  62      501567B5 
  62      2A369EFE 
  63 01d7 05C9B4EE 		.ascii	"\005\311\264\356^"
  63      5E
  64              		.text
  65              		.section	.gnu.lto_chThdAddRef.4747db695e3e50c7,"",%progbits
  66 0000 789C8D52 		.ascii	"x\234\215RMh\023A\024\376\336l\333\024\274\364h.5\226"
  66      4D681341 
  66      14FEDE6C 
  66      DB14BCF4 
  66      682E3596 
  67 0014 886065D7 		.ascii	"\210`e\327\233\036\225\200\330C\020\023\004\021\326"
  67      9B1E9580 
  67      D8431013 
  67      0411D6
  68 0023 924E07B2 		.ascii	"\222N\007\262\320M\302&)\355)k\352\301\213P\004!\015"
  68      D04DC226 
  68      29ED296B 
  68      EAC18B50 
  68      04210D
  69 0036 0AD6FA77 		.ascii	"\012\326\372w\020\274\210\202\027\305\203\207\010=\367"
  69      10BC8882 
  69      17C58387 
  69      083DF7
  70 0045 205868F5 		.ascii	" Xh\365,\010^\343\233\311\2324\215[\234e\367\0153\337"
ARM GAS  /tmp/ccuGx7KI.s 			page 5


  70      2C085EE3 
  70      9BC99A34 
  70      8D5B9C65 
  70      F70D33DF 
  71 0059 F7BDF7BE 		.ascii	"\367\275\367\276\267\002\304\317\350J\362\233\261\200"
  71      B702C4CF 
  71      E84AF29B 
  71      B180
  72 0067 2D8E6481 		.ascii	"-\216d\201\304\3726p;%\210\364\206)\015A\215\353\206"
  72      C4FA3670 
  72      3B2588F4 
  72      86290D41 
  72      8DEB86
  73 007a 2966B019 		.ascii	")f\260\031\206\367\177~j\036o\356v\273'\224>\235'tZ"
  73      86F77F7E 
  73      6A1E6FEE 
  73      76BB2794 
  73      3E9D2774 
  74 008f 7B220945 		.ascii	"{\"\011E\204I\350(\016'\212\341\355XG\262\366[o\305"
  74      8449E828 
  74      0E278AE1 
  74      ED5847B2 
  74      F65B6FC5 
  75 00a3 D78D890F 		.ascii	"\327\215\211\017\342\343n\267\221\306\026K\254\257\205"
  75      E2E36EB7 
  75      91C6164B 
  75      ACAF85
  76 00b2 57145902 		.ascii	"W\024Y\002i\322\002\373\255\347Q\342T$1\246\211\214"
  76      69D202FB 
  76      ADE751E2 
  76      542431A6 
  76      898C
  77 00c4 C0312297 		.ascii	"\3001\"\227\236P\032\002.=\246\031X\03479\362\032\307"
  77      9E501A02 
  77      2E3DA619 
  77      581C3739 
  77      F21AC7
  78 00d7 9D309C22 		.ascii	"\2350\234\"\317h\230uMG\335o\2165\364\306\372\014A="
  78      CF689875 
  78      4D47DD6F 
  78      8E35F4C6 
  78      FA0C413D 
  79 00eb 5C0467FA 		.ascii	"\\\004g\372S>9\334\224\256(jjL\340\264\221\374\375\376"
  79      533E39DC 
  79      94AE286A 
  79      6A4CE0B4 
  79      91FCFDFE 
  80 00ff DBF77FD5 		.ascii	"\333\367\177\325u\320t\206\363%\360\005M\372q\357\301"
  80      75D07486 
  80      F325F005 
  80      4DFA71EF 
  80      C1
  81 0110 DE85A164 		.ascii	"\336\205\241d\\\373\013\256\325\245gC)\365\004\357r"
  81      5CFB0BAE 
  81      D5A56743 
  81      29F504EF 
  81      72
ARM GAS  /tmp/ccuGx7KI.s 			page 6


  82 0121 735CA3F9 		.ascii	"s\\\243\371\000\323\330\240Ga\353\2422\270\201l\377"
  82      00D3D8A0 
  82      4761EBA2 
  82      32B8816C 
  82      FF
  83 0132 FA61743D 		.ascii	"\372at=a\004:h\336\324\323\352\365\"I\314\342\214\242"
  83      61043A68 
  83      DED4D3EA 
  83      F52249CC 
  83      E28CA2
  84 0145 84D56619 		.ascii	"\204\325f\031E\223B\022%\215}\275uk0\221\016\326\032"
  84      45934212 
  84      258D7DBD 
  84      756B3091 
  84      0ED61A
  85 0158 3BD65F9E 		.ascii	";\326_\236\305T\015L\230\231\261\352\\dO\274\336\215"
  85      C5540D4C 
  85      9899B1EA 
  85      5C644FBC 
  85      DE8D
  86 016a 837A521F 		.ascii	"\203zR\037\215Z\034\343t\214\335.\275dg\265\337\355"
  86      8D5A1CE3 
  86      748CDD2E 
  86      BD6467B5 
  86      DFED
  87 017c 5FFFE537 		.ascii	"_\377\3457\216\362\373\235\361\373M\234\337.\275\342"
  87      8EF2FB9D 
  87      F1FB4D9C 
  87      DF2EBDE2 
  88 018c CD402732 		.ascii	"\315@'2\330\245\3274m\016\266A\235v\337\240\376\177"
  88      D8A5D734 
  88      6D0EB641 
  88      9D76DFA0 
  88      FE7F
  89 019e 45E677D2 		.ascii	"E\346w\322\330\223\266\355d\212\336\202w5\357\224\253"
  89      D893B6ED 
  89      648ADE82 
  89      7735EF94 
  89      AB
  90 01af 4E5073AA 		.ascii	"NPs\252\201tdqq\265T\360=iK\210Ze|\271\260TW\263#\320"
  90      81746471 
  90      71B554F0 
  90      3D694B88 
  90      5A657CB9 
  91 01c9 4A39A855 		.ascii	"J9\250U\235K\271l&\273\302\034Y\016\324\374\362y\337"
  91      9D4BB96C 
  91      26BBC21C 
  91      590ED4FC 
  91      F279DF
  92 01dc 2EC21EC6 		.ascii	".\302\036\306\252\225\232\223\311\346\347\362\216W\222"
  92      AA959A93 
  92      C9E6E7F2 
  92      8E5792
  93 01eb 4BF545E5 		.ascii	"K\365E\345\030\254\364/\327K\222\341S\331|.\265P\250"
  93      18ACF42F 
  93      D74B92E1 
  93      53D97C2E 
ARM GAS  /tmp/ccuGx7KI.s 			page 7


  93      B550A8
  94 01fe AA4AE09D 		.ascii	"\252J\340\235M\235:\007\021 \341+\277\034\254\342\017"
  94      4D9D3A07 
  94      1120E12B 
  94      BF1CACE2 
  94      0F
  95 020f 612ECBC2 		.ascii	"a.\313\302"
  96              		.text
  97              		.section	.gnu.lto_chThdRelease.4747db695e3e50c7,"",%progbits
  98 0000 789CAD55 		.ascii	"x\234\255U]H\024Q\024>\347\336\371Y\265Rz\252\300u\023"
  98      5D481451 
  98      143EE7DE 
  98      F959B552 
  98      7AAAC075 
  99 0015 A328D9F1 		.ascii	"\243(\331\361\255\036\013!\364AB%\010aS\233&\\pUv5\262"
  99      AD1E0B21 
  99      F4414225 
  99      0861539B 
  99      265C7055 
 100 002c 871CD702 		.ascii	"\207\034\327\002\241\004\011\002K\255\3142\223\250\207"
 100      A1040902 
 100      4BADCC32 
 100      93A887
 101 003b 200A23A3 		.ascii	" \012#\243Lj+\237\3661H\250\244\207\036\202\"(\002;"
 101      4C6A2B9F 
 101      F63148A8 
 101      A4871E82 
 101      2228023B 
 102 004f F7CE8CEE 		.ascii	"\367\316\214\356\272\256\2114\313\316\231\275\367|\337"
 102      BAAE8934 
 102      CBCE99BD 
 102      F77CDF
 103 005e 77CE7766 		.ascii	"w\316wff\031 }2\217z\372\276\325\001\306)\242\017\220"
 103      6619207D 
 103      328F7AFA 
 103      BED501C6 
 103      29A20F90 
 104 0072 F5CF0274 		.ascii	"\365\317\002t\007\030\343I\003\354]\372\023?\330e\234"
 104      0718E349 
 104      03EC5DFA 
 104      133FD865 
 104      9C
 105 0083 293385E2 		.ascii	")3\205\342W\242\214~)\\?\267\015\354\200*\317\232s\215"
 105      57A28C7E 
 105      295C3FB7 
 105      0DEC802A 
 105      CF9A738D 
 106 0097 BA03D49C 		.ascii	"\272\003\324\234\013\324\021E$\315.\306\025U\323\261"
 106      0BD41145 
 106      24CD2EC6 
 106      1555D3B1 
 107 00a7 EBB0D4D7 		.ascii	"\353\260\324\327\213a\304\266/~{\036\337\022\237[X("
 107      8B61C4B6 
 107      2F7E7B1E 
 107      DF129F5B 
 107      5828
 108 00b9 B2C46A3D 		.ascii	"\262\304j=Bbj4\177+X\210\340\003\021\331\362r\263\340"
ARM GAS  /tmp/ccuGx7KI.s 			page 8


 108      42626A34 
 108      7F2B5888 
 108      E00311D9 
 108      F272B3E0 
 109 00cd C6F97A50 		.ascii	"\306\371zP_\207\346q=\270\037Cg\326\000\353\177\021"
 109      5F87E671 
 109      3DB81F43 
 109      67D600EB 
 109      7F11
 110 00df AF70615C 		.ascii	"\257pa\\\302\222\303~\007\026pa\312\232`\260\006PF\211"
 110      C292C37E 
 110      07167061 
 110      CA9A60B0 
 110      06504689 
 111 00f3 7F26B555 		.ascii	"\177&\265UKL\016\216\261\267\327\264)\366ln\241\253"
 111      4B4C0E8E 
 111      B1B7D7B4 
 111      29F66C6E 
 111      A1AB
 112 0105 04468570 		.ascii	"\004F\205p\217]A\232\014JPV;\370\023WP\026U\005\020"
 112      8F5D419A 
 112      0C4A5056 
 112      3BF81357 
 112      50165505 
 113 011a 43781B4B 		.ascii	"Cx\033K\200A\010\257c1p\212#\024U\2127(j\024G)\346P"
 113      804108AF 
 113      6331708A 
 113      2314558A 
 113      37286A14 
 114 0132 BC493197 		.ascii	"\274I1\227\342-\212yn,\2428F\221\016\025\316\332v\001"
 114      E22D8A79 
 114      6E2CA238 
 114      46910E15 
 114      CEDA7601 
 115 0146 73DB88DB 		.ascii	"s\333\210\333^\033\012\203\235\262\216\367\203-\253"
 115      5E1B0A83 
 115      9DB28EF7 
 115      832DAB
 116 0155 76129659 		.ascii	"v\022\226Y\362\250\026Q\334p5\224&.\370\0140t\024\\"
 116      F2A81651 
 116      DC703594 
 116      262EF80C 
 116      3074145C 
 117 0169 2112BE43 		.ascii	"!\022\276C+\031\246S\357\256\260\312\240TRNL~\370\314"
 117      2B19A653 
 117      EFAEB0CA 
 117      A054524E 
 117      4C7EF8CC 
 118 017d 56F55E2C 		.ascii	"V\365^,\252\264\011\360\006\342\370\273\357\322\307"
 118      AAB409F0 
 118      06E2F8BB 
 118      EFD2C7
 119 018c 7D6962E4 		.ascii	"}ib\344\322=\3522\204w\323$\3053\330G6R\215\362\004"
 119      D23DEA32 
 119      8477D324 
 119      C533D847 
 119      36528DF2 
ARM GAS  /tmp/ccuGx7KI.s 			page 9


 120 01a1 E087AB38 		.ascii	"\340\207\2538l\017\354\267PK\243]\334\036q\267uI\220"
 120      6C0FECB7 
 120      504BA35D 
 120      DC1E71B7 
 120      754990
 121 01b4 80789D78 		.ascii	"\200x\235xR\234^Ld{`79\306\257\300e\264\320\307L\224"
 121      529C5E4C 
 121      647B6037 
 121      39C6AFC0 
 121      65B4D0C7 
 122 01ca 93E3AEDE 		.ascii	"\223\343\256\336\321%\307\022\320\323\313\307\271\007"
 122      D125C712 
 122      D0D3CBC7 
 122      B907
 123 01d8 E4841599 		.ascii	"\344\204\025\231\2124\225h+{\335\275\354\214_x*\245"
 123      8A349568 
 123      2B7BDDBD 
 123      EC8C5F78 
 123      2AA5
 124 01ea 29D6C865 		.ascii	")\326\310e\017\027\302\011\352\330[]\346}\226\021d\231"
 124      0F17C209 
 124      EAD85B5D 
 124      E67D9611 
 124      6499
 125 01fc 4308EF93 		.ascii	"C\010\357\223\345b\020\203\337\3274\010Xm\020O\345 "
 125      E5621083 
 125      DFD73408 
 125      586D104F 
 125      E520
 126 020e 26B30D22 		.ascii	"&\263\015\"\204\017\350b\211\307u>\204\017\321/\027"
 126      840FE862 
 126      89C7753E 
 126      840FD12F 
 126      17
 127 021f 5EC2F43C 		.ascii	"^\302\364<&\336\215.y'\222\323\313\250\021m'\015.\346"
 127      26DE8D2E 
 127      792792D3 
 127      CBA8116D 
 127      270D2EE6 
 128 0233 33A07B89 		.ascii	"3\240{\211\252\3642'\373t\026Y\244\306#u\021\350(\344"
 128      AAF43227 
 128      FB741659 
 128      A4C62375 
 128      11E828E4 
 129 0247 A72950E7 		.ascii	"\247)P\347=\233\245\002\275\205\274LMJ\344f\227`)7\300"
 129      3D9BA502 
 129      BD85BC4C 
 129      4D4AE466 
 129      97602937 
 130 025c 633EA08B 		.ascii	"c>\240\213\301\025\021\316Q\020y\257A9\342\321\025]"
 130      C11511CE 
 130      511079AF 
 130      4139E2D1 
 130      155D
 131 026e 80F3DD8A 		.ascii	"\200\363\335\212\205y\322\346\006Q\240\250qqU\2406\310"
 131      8579D2E6 
 131      0651A0A8 
ARM GAS  /tmp/ccuGx7KI.s 			page 10


 131      717155A0 
 131      36C8
 132 0280 A506C13C 		.ascii	"\245\006\301<]\230\271\311\344&\021O\373S\212'o\273"
 132      5D98B9C9 
 132      E426114F 
 132      FB538A27 
 132      6FBB
 133 0292 35FE0AC4 		.ascii	"5\376\012\304\373CHI\270\350\205^\215\236x\216\354\205"
 133      FB434849 
 133      B8E8855E 
 133      8D9E788E 
 133      EC85
 134 02a4 67EF852F 		.ascii	"g\357\205/\365\022\257\003\017\226\373/\230\222\002"
 134      F512AF03 
 134      0F96FB2F 
 134      989202
 135 02b3 AB8494BB 		.ascii	"\253\204\224\273<\025\223\263\"\206\330\227\251\345"
 135      3C1593B3 
 135      2286D897 
 135      A9E5
 136 02c1 FD17B5BC 		.ascii	"\375\027\265\274\025\033\243*\350\337\030\224O\303c"
 136      151BA32A 
 136      E8DF1894 
 136      4FC363
 137 02d0 E83D2AA7 		.ascii	"\350=*\247\341\227\355\263p#\326\243{\273\220\242\205"
 137      E197EDB3 
 137      7023D6A3 
 137      7BBB90A2 
 137      85
 138 02e1 9B3C63B5 		.ascii	"\233<c\265\014c\271\344XN\220O\004,\205\240\300#\320"
 138      0C63B9E4 
 138      584E904F 
 138      042C85A0 
 138      C023D0
 139 02f4 9DF7652A 		.ascii	"\235\367e*\003\245\315\002\322\237D\372\363Z-6(WLx{"
 139      03A5CD02 
 139      D29F44FA 
 139      F35A2D36 
 139      28574C78 
 140 0309 30689437 		.ascii	"0h\2247\205\217\205\017\325\032\2551#\332n\304\242\246"
 140      858F850F 
 140      D51AAD31 
 140      23DA6EC4 
 140      A2A6
 141 031b 61361DEF 		.ascii	"a6\035\357li\214\204\315\240\011\254\275M\211Z'b\352"
 141      6C698C84 
 141      CDA009AC 
 141      BD4D895A 
 141      2762EA
 142 032e C9C6E60E 		.ascii	"\311\306\346\016kOF~[k\264=f\034\250\251*\257:E@\263"
 142      6B4F467E 
 142      5B6BB43D 
 142      661CA8A9 
 142      2AAF3A45 
 143 0344 356AD59F 		.ascii	"5j\325\237\334\033\0116A0=\327:\325n\224W\325V\326\032"
 143      DC1B0936 
 143      41303DD7 
ARM GAS  /tmp/ccuGx7KI.s 			page 11


 143      3AD56E94 
 143      57D556D6 
 144 0359 E116B3B9 		.ascii	"\341\026\263\271\343\270e\310\\3r\260\243\305\244\364"
 144      E3B865C8 
 144      5C3372B0 
 144      A3C5A4F4 
 145 0369 82AADA9A 		.ascii	"\202\252\332\232\300\261\306\230\325\026\015\227\006"
 145      C0B1C698 
 145      D5160D97 
 145      06
 146 0376 7694018B 		.ascii	"v\224\001\213\202\036\261\"\255\321N\370\013\363\236"
 146      821EB122 
 146      ADD14EF8 
 146      0BF39E
 147 0385 9776     		.ascii	"\227v"
 148              		.text
 149              		.section	.gnu.lto_chThdCreateFromHeap.4747db695e3e50c7,"",%progbits
 150 0000 789C8D53 		.ascii	"x\234\215S_HSQ\030\377\276s\3566g\376\253\010\262\007"
 150      5F485351 
 150      18FFBE73 
 150      EE3667FE 
 150      AB08B207 
 151 0014 5B622029 		.ascii	"[b )\273FPB\020\225\020\3650\242\215\240\2275\346\365"
 151      BB465042 
 151      109510F5 
 151      30A28DA0 
 151      9735E6F5 
 152 0028 D406CE8D 		.ascii	"\324\006\316\215\273i\352C\336\254\307 \011\202\012"
 152      BB69EA43 
 152      DEACC720 
 152      09820A
 153 0037 82D28A58 		.ascii	"\202\322\212X\032\241\201\324\203F\230\3042\237$\302"
 153      1AA181D4 
 153      834698C4 
 153      329F24C2 
 154 0047 24A4B0A7 		.ascii	"$\244\260\247\036z\010\372C`\337=\367\316\2666Gg\234"
 154      1E7A08FA 
 154      4360DF3D 
 154      F7CEB636 
 154      47679C
 155 005a 7DE79EF3 		.ascii	"}\347\236\363\373~\347;\277\3379\014\220~\205m\017\365"
 155      FB7EE73B 
 155      BFDF390C 
 155      907E856D 
 155      0FF5
 156 006c AF0AC014 		.ascii	"\257\012\300\024Et\000\262\241y\200\013\036\306\224"
 156      457400B2 
 156      A179800B 
 156      1EC694
 157 007b 0C07A391 		.ascii	"\014\007\243\221\317f\000\214\026\216\2125\257 \232"
 157      CF66008C 
 157      168E8A35 
 157      AF209A
 158 008a 03A21A60 		.ascii	"\003\242\032`\\\301\201\223\222\223\325\303\035\303"
 158      5CC18193 
 158      9293D5C3 
 158      1DC3
ARM GAS  /tmp/ccuGx7KI.s 			page 12


 159 0098 B83A74D1 		.ascii	"\270:t\3218:\270\274\272\272] 0`\010!\204\305\321\225"
 159      383AB8BC 
 159      BABA5D20 
 159      30600821 
 159      84C5D195 
 160 00ac 8A5A1088 		.ascii	"\212Z\020\210\340\00132P\362\013(H\345\014\032e\352"
 160      E0013332 
 160      50F20B28 
 160      48E50C1A 
 160      65EA
 161 00be 97744FC9 		.ascii	"\227tO\311\314\245\364x\305\302\230s\232=_^\035h\200"
 161      CCA5F478 
 161      C5C29873 
 161      9A3D5F5E 
 161      1D6880
 162 00d1 119B46A0 		.ascii	"\021\233F\240\302\240I2,\244\177\261B\012%\027\353`"
 162      C2A04932 
 162      2CA47FB1 
 162      420A2517 
 162      EB60
 163 00e3 B05B625F 		.ascii	"\260[b_U\027\331\214\326!\027\355d\260W\242\227\322"
 163      5517D98C 
 163      D62117ED 
 163      64B057A2 
 163      97D2
 164 00f5 53459869 		.ascii	"SE\230i\340\314\303\273\030\354\227\370w\225E\321\256"
 164      E0CCC3BB 
 164      18EC97F8 
 164      779545D1 
 164      AE
 165 0106 3C348976 		.ascii	"<4\211v@\242\177\024\257\305\354\012lA\010\3420\326"
 165      40A27F14 
 165      AFC5EC0A 
 165      6C4108E2 
 165      30D6
 166 0118 93C041BC 		.ascii	"\223\300A\274\213\015\300)\336\247\250\320\374m\232"
 166      8B0DC029 
 166      DEA7A8D0 
 166      FC6D9A
 167 0127 77D2F703 		.ascii	"w\322\367\003\372vQLS,\2438J\321m\347Qs\300%\303\250"
 167      FA76514C 
 167      532CA338 
 167      4AD16DE7 
 167      5173C025 
 168 013d 6116DE9A 		.ascii	"a\026\336\232\015\331\267\343\204\031M\217\375\264\261"
 168      0DD9B7E3 
 168      84194D8F 
 168      FDB4B1
 169 014c 39E073E0 		.ascii	"9\340s\340\370\235\256\013\342#\022CC\245\037~\032e"
 169      F89DAE0B 
 169      E2231243 
 169      43A51F7E 
 169      1A65
 170 015e 02CB3084 		.ascii	"\002\3130\204h\345h\3104\344\002\335\000\263t\006\013"
 170      68E568C8 
 170      34E402DD 
 170      00B37406 
ARM GAS  /tmp/ccuGx7KI.s 			page 13


 170      0B
 171 016f 6971131E 		.ascii	"iq\023\036\340%\314|\306\231\207\333\326(j\345ar\233"
 171      E025CC7C 
 171      C69987DB 
 171      D6286AE5 
 171      61729B
 172 0182 1F392567 		.ascii	"\0379%g\200\023\001Z\325\331E\332t%.L9\203\303R\266"
 172      8013015A 
 172      D5D945DA 
 172      74252E4C 
 172      3983C352 
 173 0197 8F97BFBF 		.ascii	"\217\227\277\277o.ye\314\311rZ\004x\015\2038~\345\332"
 173      6F2E7965 
 173      CCC9725A 
 173      04780D83 
 173      387EE5DA 
 174 01ab A7D6BCCD 		.ascii	"\247\326\274\315H\251q\251\310\343\274-\315\2473B\025"
 174      48A971A9 
 174      C8E3BC2D 
 174      CDA73342 
 174      15
 175 01bc 9220F20F 		.ascii	"\222 \362\017\240\016\236\340-\343\372A\201\033\362"
 175      A00E9EE0 
 175      2DE3FA41 
 175      811BF2
 176 01cb 68D79627 		.ascii	"h\327\226'\355\345\012I0\007[\027\337\334\343Y\001\334"
 176      EDE50A49 
 176      30075B17 
 176      DFDCE359 
 176      01DC
 177 01dd B68695A4 		.ascii	"\266\206\225\244!\313j\250\220\206\032:5tiHkU\371b\016"
 177      21CB6AA8 
 177      90861A3A 
 177      35746948 
 177      6B55F962 
 178 01f2 4B3149E1 		.ascii	"K1I\341\014\014\266~\033=o\3157\301.\201\325\374&\334"
 178      0C0CB67E 
 178      1B3D6FCD 
 178      37C12E81 
 178      D5FC26DC 
 179 0206 408135E4 		.ascii	"@\2015\344\202\333,\205\244\204S\324Oc\316\261\253\345"
 179      82DB2C85 
 179      A48453D4 
 179      4F63CEB1 
 179      ABE5
 180 0218 F337BDCC 		.ascii	"\3637\275\314&\003\330el\2442x\266\014\311\260I\336"
 180      2603D865 
 180      6CA43278 
 180      B60CC9B0 
 180      49DE
 181 022a B7CDB284 		.ascii	"\267\315\262\204\177\354X\307\225u\254\011\342\004\271"
 181      7FEC58C7 
 181      9575AC09 
 181      E204B9
 182 0239 20BD99F8 		.ascii	" \275\231\370\360?\336@)o^Ho\246\327\363&\210\2234\370"
 182      F03FDE40 
 182      296F5E48 
ARM GAS  /tmp/ccuGx7KI.s 			page 14


 182      6FA6D7F3 
 182      26889334 
 183 024e CB639B11 		.ascii	"\313c\233\021\304gX\227s\323\024\353Z\317\003b\326\020"
 183      C4675897 
 183      73D314EB 
 183      5ACF0362 
 183      D610
 184 0260 79F8B780 		.ascii	"y\370\267\200Y\365\330\342\323\025SM>7Ve>\011\224)&"
 184      59F5D8E2 
 184      D315534D 
 184      3E375665 
 184      3E099429 
 185 0275 1B3F974C 		.ascii	"\033?\227L\354\360z\325\266H\264=z<\240\306\223\252"
 185      ECF07AD5 
 185      B648B43D 
 185      7A3CA0C6 
 185      93AA
 186 0287 9E5293BA 		.ascii	"\236R\223\272\246j\221\216\276\256p,\252y5`\251\204"
 186      A66A918E 
 186      BEAE702C 
 186      AA793560 
 186      A984
 187 0299 2322C289 		.ascii	"#\"\302\211\204\222\214\366\013%\241G\343,q\206\207"
 187      84928CF6 
 187      0B25A147 
 187      E32C7186 
 187      87
 188 02aa F5B38E9E 		.ascii	"\365\263\216\236pg\267h*`H\304\365TR=\344\367\265\371"
 188      7067B768 
 188      2A6048C4 
 188      F554523D 
 188      E4F7B5F9 
 189 02be 7A894A8B 		.ascii	"z\211J\213\353\"\324\263/\346\215\2007\037+zSj\233/"
 189      EB22D4B3 
 189      2FE68D80 
 189      371F2B7A 
 189      536A9B2F 
 190 02d2 702CA046 		.ascii	"p,\240F\273\264\316\356\016\241J\254\026;\322\335\245"
 190      BBB4CEEE 
 190      0EA14AAC 
 190      163BD2DD 
 190      A5
 191 02e3 11BCC617 		.ascii	"\021\274\306\027\360{\332\303IA\2336{v\266\000\323\301"
 191      F07BDAC3 
 191      49419B36 
 191      7B76B600 
 191      D3C1
 192 02f5 1513B1B8 		.ascii	"\025\023\261\270\336\007\177\0003\367(\370"
 192      DE077F00 
 192      33F728F8 
 193              		.text
 194              		.section	.gnu.lto_chThdCreateFromMemoryPool.4747db695e3e50c7,"",%progbits
 195 0000 789C9553 		.ascii	"x\234\225S]H\024Q\024>\347\336\031\327\2654\355G\262"
 195      5D481451 
 195      143EE7DE 
 195      19D7B534 
 195      ED47B2
ARM GAS  /tmp/ccuGx7KI.s 			page 15


 196 0013 07DBC440 		.ascii	"\007\333\304@Rv\014\241\244\247B\210\"\226h\227 \202"
 196      52760CA1 
 196      A4A74288 
 196      22966897 
 196      2082
 197 0025 4DD6716C 		.ascii	"M\326ql\227\\w\331U\323\036r\262\036z\210\220 \350\007"
 197      975C77D9 
 197      55D31E72 
 197      B21E7A88 
 197      9020E807 
 198 0039 219390A8 		.ascii	"!\223\220\250\220\014d\027\037\212J\221M|\212^\222\020"
 198      900C6417 
 198      1F8A4A91 
 198      4D7C8A5E 
 198      9210
 199 004b 927AF149 		.ascii	"\222z\361I\244\037\020\354\334;3\352\246+u\207\2313"
 199      A41F10EC 
 199      DC3B33EA 
 199      A62B7587 
 199      9933
 200 005d 73EFF9BE 		.ascii	"s\357\371\276s\346\273\337e\200t\255\037ut_R\001F)\242"
 200      73E6BBDF 
 200      658074AD 
 200      1F75745F 
 200      52014629 
 201 0072 0AC8FAA6 		.ascii	"\012\310\372\246\001\256y\030S2\034\314*>\221\0010k"
 201      01AE7918 
 201      53321CCC 
 201      2A3E9101 
 201      306B
 202 0084 392AD6BC 		.ascii	"9*\326\274\202(^\210\252\207q\005{\316JN^\001\003\246"
 202      82285E88 
 202      AA877105 
 202      7BCE4A4E 
 202      5E0103A6 
 203 0098 79A7EF5D 		.ascii	"y\247\357]\357\211\336\331\345\345\275\206\230mD\310"
 203      EF89DED9 
 203      E5E5BD86 
 203      986D44C8 
 204 00a8 A4874ACB 		.ascii	"\244\207J\313\300@\004\017\210\310@\311\256n\343\256"
 204      C040040F 
 204      88C840C9 
 204      AE6EE3AE 
 205 00b8 9B0E8E33 		.ascii	"\233\016\2163\250D\001]L\265\374\037RaP%\221K\251\316"
 205      A844015D 
 205      4CB5FC1F 
 205      52615025 
 205      914BA9CE 
 206 00cc 4D91F3A9 		.ascii	"M\221\363\251\005\2764\226\367\232\275\231]\356\251"
 206      05BE3496 
 206      F79ABD99 
 206      5DEEA9
 207 00db 84419BC6 		.ascii	"\204A\233\306@\225A\265d\230K\215\360\365\024|mn\036"
 207      409541B5 
 207      64984B8D 
 207      F0F5147C 
 207      6D6E1E
ARM GAS  /tmp/ccuGx7KI.s 			page 16


 208 00ee 03AFCCBD 		.ascii	"\003\257\314\275yp\203b\264\016k\263]\014\352d\366|"
 208      79708362 
 208      B40E6BB3 
 208      5D0CEA64 
 208      F67C
 209 0100 EA07DB30 		.ascii	"\352\007\3330\337\225\225O*\034\222\371\277\0127\314"
 209      DF95954F 
 209      2A1C92F9 
 209      BF0A37CC 
 210 0110 E674AB50 		.ascii	"\346t\253P\212\020\304A\254\000\206A|\202\225\300\351"
 210      8A10C441 
 210      AC008641 
 210      7C8295C0 
 210      E9
 211 0121 7B80BE55 		.ascii	"{\200\276U\212\217(\346\321\374\020\315\273(>\245\230"
 211      8A8F28E6 
 211      D1FC10CD 
 211      BB283EA5 
 211      98
 212 0132 4FF11945 		.ascii	"O\361\031E\267\215\243\241\302\015\323,\346\026\316"
 212      B78DA3A1 
 212      C20DD32C 
 212      E616CE
 213 0141 9A8DC8CA 		.ascii	"\232\215\310\312r\234\021Q\354\267\237j\213\027>\005"
 213      729C1151 
 213      ECB79F6A 
 213      8B173E05 
 214 0151 CA4CBA3C 		.ascii	"\312L\272<\210/\250\276\216\374\012\3746\363\015\314"
 214      882FA8BE 
 214      8EFC0AFC 
 214      36F30DCC 
 215 0161 C746440B 		.ascii	"\307FD\013\243#3\320\0150\001\014\2544\213\233\222\001"
 215      A32333D0 
 215      0D30010C 
 215      AC348B9B 
 215      9201
 216 0173 C6E1FD37 		.ascii	"\306\341\3757\234K\357Y\301\227\311\237Y;\374\342\233"
 216      9C4BEF59 
 216      C197C99F 
 216      593BFCE2 
 216      9B
 217 0184 4CC78900 		.ascii	"L\307\211\000\255\356\354&m\272M,P\300\340\210l\376"
 217      ADEEEC26 
 217      6DBA4D2C 
 217      50C0E088 
 217      6CFE
 218 0196 F1AD9F9F 		.ascii	"\361\255\237\237k65\201\230,\240E\200\017\320\213\013"
 218      6B363581 
 218      982CA045 
 218      800FD08B 
 218      0B
 219 01a7 B7EF7EAD 		.ascii	"\267\357~\255\317*FJ\275\224\212\014g\225\024g\350!"
 219      CF2A464A 
 219      BD948A0C 
 219      67951467 
 219      E821
 220 01b9 75486AC8 		.ascii	"uHj\310\007@9<\307~\363\336Q\003\267d\321\256,\017\333"
ARM GAS  /tmp/ccuGx7KI.s 			page 17


 220      0740393C 
 220      C77EF3DE 
 220      5103B764 
 220      D1AE2C0F 
 221 01ce CB5B2541 		.ascii	"\313[%A\006z\317\213S\341(\240V\303\001\003\013\371"
 221      067ACF8B 
 221      53E128A0 
 221      56C30103 
 221      0BF9
 222 01e0 03B88F06 		.ascii	"\003\270\217\006\0261\222\257Ln.\300\244\213\036\027"
 222      163192AF 
 222      4C6E2EC0 
 222      A48B1E17 
 223 01f0 84AA9356 		.ascii	"\204\252\223V\013S\260;\354\340\334\266\362\333Hy\346"
 223      0B53B03B 
 223      ECE0DCB6 
 223      F2DB4879 
 223      E6
 224 0201 28CF894F 		.ascii	"(\317\211O\307<\035]:\322Zq\366.\014\312]p\313\036\352"
 224      C73C1D5D 
 224      3AD25A71 
 224      F62E0CCA 
 224      5D70CB1E 
 225 0216 3F8E5DB5 		.ascii	"?\216]\265\346e\375\022\273\376v\252\357\026\365\205"
 225      E665FD12 
 225      BBFE76AA 
 225      EF16F585 
 226 0226 5AE76479 		.ascii	"Z\347dy\\\325\253D\376\022\241O\315d\241yn4\003\307"
 226      5CD5AB44 
 226      FE12A14F 
 226      CD64A179 
 226      6E3403C7 
 227 023a 14A27D75 		.ascii	"\024\242}u\316\301\001\330\375\357\240\376\271\323\277"
 227      CEC101D8 
 227      FDEFA0FE 
 227      B9D3BF
 228 0249 04EF940E 		.ascii	"\004\357\224\016\337%{\377\313\0009|\220\303\014A\034"
 228      DF257BFF 
 228      CB00397C 
 228      90C30C41 
 228      1C
 229 025a A1B2D20D 		.ascii	"\241\262\322\015\257\276\374\213\033`37\214K7\274\315"
 229      AFBEFC8B 
 229      1B603337 
 229      8C4B37BC 
 229      CD
 230 026b E586208E 		.ascii	"\345\206 \216\322\313*\217\275\375ALc\371\032o+\326"
 230      D2CB2A8F 
 230      BDFD414C 
 230      63F91A6F 
 230      2BD6
 231 027d 299A0644 		.ascii	")\232\006Dg'\345\317\177\002t\204c\231\376\357BH\276"
 231      6727E5CF 
 231      7F027484 
 231      6399FEEF 
 231      4248BE
 232 0290 3856244E 		.ascii	"8V$N J\210`\333\347\365j\015\341HS\344t@\213%\265D\273"
ARM GAS  /tmp/ccuGx7KI.s 			page 18


 232      204A8860 
 232      DBE7F56A 
 232      0DE14853 
 232      E474408B 
 233 02a8 964CE89A 		.ascii	"\226L\350\232\036n\356n\013E#\272W\007~9\031g\355q\026"
 233      1E6EEE6E 
 233      0B4523BA 
 233      57077E39 
 233      1967ED71 
 234 02bd 8D2BF144 		.ascii	"\215+\361D$\306\342-<\224\270\250v\206Z;\214\352u\350"
 234      24C6E22D 
 234      3C94B8A8 
 234      76865A3B 
 234      8CEA75E8 
 235 02d1 782CD19E 		.ascii	"x,\321\236\324\216\371}\015\276.\242\321c\011\243\261"
 235      D48EF97D 
 235      0DBE2EA2 
 235      D16309A3 
 235      B1
 236 02e2 F370D41B 		.ascii	"\363p\324\033\006ov\256\321\325\2565\370\002'\003Z\244"
 236      066F76AE 
 236      D1D5AE35 
 236      F8022703 
 236      5AA4
 237 02f4 4D6FED68 		.ascii	"Mo\355h64\231\253G\217w\264\351\224^\354\013\370=M\241"
 237      363499AB 
 237      478F77B4 
 237      E9945EEC 
 237      0BF83D4D 
 238 0309 A441456B 		.ascii	"\244AEk<\373k\201%\300\0255\242\261D7\374\001:_<T"
 238      3CFB6B81 
 238      25C01535 
 238      A2B14437 
 238      FC013A5F 
 239              		.text
 240              		.section	.gnu.lto_.cgraph.4747db695e3e50c7,"",%progbits
 241 0000 789C45C8 		.ascii	"x\234E\310=\012\302@\030\204\341\231\3756\331M\016\341"
 241      3D0AC240 
 241      1884E199 
 241      FD36D94D 
 241      0EE1
 242 0012 55BFC082 		.ascii	"U\277\300\202\0106^@\033;\377A-mL\237#\210b\345\011"
 242      08365E40 
 242      1B3BFF41 
 242      2D6D4C9F 
 242      238862E5 
 243 0027 AC143746 		.ascii	"\254\0247F7\323\014\317k@\010\200\013~3'*0i\240:\035"
 243      37D30CCF 
 243      6B400880 
 243      0B7E3327 
 243      2A3069A0 
 244 003d D12CA8EC 		.ascii	"\321,\250\3544\213ZRM\257\025Uz\255\2516\211Gj\366U"
 244      348B5A52 
 244      4DAF1555 
 244      7AADA936 
 244      89476AF6 
 245 0052 5591076A 		.ascii	"U\221\007j\236\260\243\272\204-\325'\354\251E\302\206"
ARM GAS  /tmp/ccuGx7KI.s 			page 19


 245      9EB0A3BA 
 245      842DD527 
 245      ECA945C2 
 245      86
 246 0063 5AFE21C8 		.ascii	"Z\376!\310p\277\275)&G\0307\361\201s\373R \\c\027\217"
 246      70BFBD29 
 246      26471837 
 246      F18173FB 
 246      52205C63 
 247 0079 F9E319DF 		.ascii	"\371\343\031\337!\014_\003\261e\327\255G\335v\353P\307"
 247      210C5F03 
 247      B165D7AD 
 247      47DD76EB 
 247      50C7
 248 008b 8E0FA77B 		.ascii	"\216\017\247{F\242"
 248      46A2
 249              		.text
 250              		.section	.gnu.lto_.vars.4747db695e3e50c7,"",%progbits
 251 0000 789C6362 		.ascii	"x\234cb`d`f`\000\222P\000\000\000r\000\010"
 251      60646066 
 251      60009250 
 251      00000072 
 251      0008
 252              		.text
 253              		.section	.gnu.lto_.refs.4747db695e3e50c7,"",%progbits
 254 0000 789C6362 		.ascii	"x\234cb`d`f```b\200\001\000\000\204\000\011"
 254      60646066 
 254      60606062 
 254      80010000 
 254      840009
 255              		.text
 256              		.section	.gnu.lto_.statics.4747db695e3e50c7,"",%progbits
 257 0000 789C6362 		.ascii	"x\234cb`d`b\300\016@\342\214\020&\000\000\375\000\011"
 257      60646062 
 257      C00E40E2 
 257      8C102600 
 257      00FD0009 
 258              		.text
 259              		.section	.gnu.lto_.decls.4747db695e3e50c7,"",%progbits
 260 0000 789CAD5A 		.ascii	"x\234\255Z{pT\325\031\277\217\354n6\013\001\241e\242"
 260      7B7054D5 
 260      19BF8FEC 
 260      6E360B01 
 260      A165A2
 261 0013 ED4874C4 		.ascii	"\355Ht\304\252\035\262\240\0108\243\214\016\216\202"
 261      AA1DB2A0 
 261      0838A38C 
 261      0E8E82
 262 0022 2D6D47ED 		.ascii	"-mG\355\264\377\354l\227\315Mvk\366\321\335\033\036"
 262      B4FFEC6C 
 262      97CD4D76 
 262      6BF6D1DD 
 262      1B1E
 263 0034 FEB504C7 		.ascii	"\376\265\004\307\246\014\226\340\003\026\321\020\025"
 263      A60C96E0 
 263      0316D110 
 263      15
ARM GAS  /tmp/ccuGx7KI.s 			page 20


 264 0041 09060B44 		.ascii	"\011\006\013D@\010\216\210\200\004Hx\204\206\002\005"
 264      40088E88 
 264      80044878 
 264      84860205 
 265 0051 21C08AA0 		.ascii	"!\300\212\240Q\001#\322\200\320\357\234{\357\271\347"
 265      510123D2 
 265      80D0EF9C 
 265      7BEFB9E7 
 266 0061 DEBD8FDD 		.ascii	"\336\275\217\335\015wr\356={\367|\277\357y\276\363\235"
 266      0D7772EE 
 266      3D7BF77C 
 266      BFEF79BE 
 266      F39D
 267 0073 93E51896 		.ascii	"\223\345\030\226A\327&\216an\3005u\034\303\034q0\214"
 267      41D7268E 
 267      616EC035 
 267      751CC31C 
 267      71308C
 268 0086 13DE3D02 		.ascii	"\023\336=\002\015}\333\304H\227\007Z3\264\211\360r\022"
 268      0D7DDBC4 
 268      4897075A 
 268      33B489F0 
 268      7212
 269 0098 B4C7A1CD 		.ascii	"\264\307\241\315\207\266\012\332Zh\353\241\265A\373"
 269      87B60ADA 
 269      5A68EBA1 
 269      B541FB
 270 00a7 14DA4E96 		.ascii	"\024\332N\226\311\272\020m\211\214Y\012m\020\264\313"
 270      C9BA106D 
 270      898C590A 
 270      6D10B4CB 
 271 00b7 D026416B 		.ascii	"\320&Ak\201V\004m\025\264=0\340}h<\364OB\373\034\332"
 271      8156046D 
 271      15B43D30 
 271      E07D683C 
 271      F44F42FB 
 272 00cd FDF09993 		.ascii	"\375\360\231\2231V\311\375\016xv\352\370 \331\334:\036"
 272      3156C9FD 
 272      0E7876EA 
 272      F820D9DC 
 272      3A1E
 273 00df 08BB0DDA 		.ascii	"\010\273\015\332^x\271\237\225x\256\222\307\374 ?\021"
 273      5E78B99F 
 273      9578AE92 
 273      C7FC203F 
 273      11
 274 00f0 1D7A76E9 		.ascii	"\035zv\351\360\220\236\267\030\340]\326a\"\274\363\320"
 274      F0909EB7 
 274      18E05DD6 
 274      6122BCF3 
 274      D0
 275 0101 2ECA7643 		.ascii	".\312vC\272\034\206\367\255\320\216@[\011\237\0352\277"
 275      BA1C86F7 
 275      ADD08E40 
 275      5B099F1D 
 275      32BF
 276 0113 73D02E50 		.ascii	"s\320.P\272\3612\037d\303f\231\366(\364O@;\011\255G"
ARM GAS  /tmp/ccuGx7KI.s 			page 21


 276      BAF1321F 
 276      64C36699 
 276      F628F44F 
 276      403B09AD 
 277 0128 2713B2FB 		.ascii	"'\023\262\373\317d\273\3212=\011\357\237\206\366!\364"
 277      CF64BBD1 
 277      323D09EF 
 277      9F86F621 
 277      F4
 278 0139 9F87E729 		.ascii	"\237\207\347)h\333X\255\234\247\241mf%9\221\314gX\311"
 278      68DB58AD 
 278      9CA7A16D 
 278      66253991 
 278      CC6758C9 
 279 014d BF1B64FD 		.ascii	"\277\033d\375/\310\374\037\227\375\330&\373U\177!\277"
 279      2FC8FC1F 
 279      97FDD826 
 279      FB557F21 
 279      BF
 280 015e 8F907552 		.ascii	"\217\220uRdP\374\270\200\222!\003\255]'\003\222\261"
 280      6450FCB8 
 280      80922103 
 280      AD5D2703 
 280      92B1
 281 0170 C1461664 		.ascii	"\301F\026d\2237YI\036\344\373\"\231\347NJ&$\326\027"
 281      93375949 
 281      1EE4FB22 
 281      99E74E4A 
 281      2624D617 
 282 0184 3AD9DC4C 		.ascii	":\331\334L}\012\256\246\027SSv\201\\\2672>\266\024\342"
 282      7D0AAEA6 
 282      17535376 
 282      815CB732 
 282      3EB614E2 
 283 0198 A11CF706 		.ascii	"\241\034\367\006\271%\240Q\314\362T\252\001\206\261"
 283      B925A051 
 283      CCF254AA 
 283      0186B1
 284 01a7 3EB68975 		.ascii	">\266\211uC0q,s\037\363^\012_2\242\374(f\256\037Y\327"
 284      4330712C 
 284      731FF35E 
 284      0A5F32A2 
 284      FC2866AE 
 285 01be CB1788BE 		.ascii	"\313\027\210\276\034\243?\301\302\327\357\260\3671\375"
 285      1CA33FC1 
 285      C2D7EFB0 
 285      F731FD
 286 01cd F33FD939 		.ascii	"\363?\3319Z\202\362\261N7-8\376,\215\222\200\321\327"
 286      5A82F2B1 
 286      4E372D38 
 286      FE2C8D92 
 286      80D1D7
 287 01e0 88D91534 		.ascii	"\210\331\0254-\331\033\312\305*\337\241\017.\346f@\214"
 287      2DD91BCA 
 287      C52ADFA1 
 287      0F2EE666 
 287      408C
ARM GAS  /tmp/ccuGx7KI.s 			page 22


 288 01f2 641A535B 		.ascii	"d\032S[{\032\346\326M\201\201\256\021\314k\262\216)"
 288      7B1AE6D6 
 288      4D8181AE 
 288      11CC6BB2 
 288      8E29
 289 0204 56F4B18F 		.ascii	"V\364\261\217\374\334DM\304o%;\002\367x<\037!A\314K"
 289      FCDC444D 
 289      C46F253B 
 289      02F7783C 
 289      1F2141CC 
 290 0219 A5EA64F3 		.ascii	"\245\352d\363\014c\026\"\234r\332PME\004\342q\235\245"
 290      0C631622 
 290      9C72DA50 
 290      4D4504E2 
 290      719DA5
 291 022c 56B1C300 		.ascii	"V\261\303\000d=\253\230\352\362\342\033\207d\253\347"
 291      643DAB98 
 291      EAF2E21B 
 291      8764ABE7 
 292 023c 80C441A0 		.ascii	"\200\304A\240!\312\325\200\"\321c\354\224\204\215\336"
 292      21CAD580 
 292      22D163EC 
 292      94848DDE 
 293 024c 328A0B1A 		.ascii	"2\212\013\032\177\352(\313\216gf\330\035L\023\010\337"
 293      7FEA28CB 
 293      8E6766D8 
 293      1D4C1308 
 293      DF
 294 025d 303735C5 		.ascii	"075\305\351c[X\017`.\344\024\314kk\276b\215\315\240"
 294      E9635B58 
 294      0F602EE4 
 294      14CC6B6B 
 294      BE628DCD 
 295 0272 F4A54B19 		.ascii	"\364\245K\031#_\006\230i\202\33191\037\304\362,D\034"
 295      235F0698 
 295      6982D939 
 295      311FC4F2 
 295      2C441C
 296 0285 8C757904 		.ascii	"\214uy\004\343\2078\030\227q\212\211\257\357\322\006"
 296      E3873818 
 296      97718A89 
 296      AFEFD206 
 297 0295 763E586D 		.ascii	"v>Xm\030\253\231S#\273k\247W\011C\227.\262]\332\260"
 297      18AB9953 
 297      23BB6BA7 
 297      57094397 
 297      2EB25DDA 
 298 02aa 94BE567A 		.ascii	"\224\276Vz(\010\2070\371\023p\314Zb\312\376\306\305"
 298      28088730 
 298      F91370CC 
 298      5A62CAFE 
 298      C6C5
 299 02bc FB1EB2B6 		.ascii	"\373\036\262\266f\261\251\177R\330\232r\22059\315\365"
 299      66B1A97F 
 299      52D89A72 
 299      903539CD 
 299      F5
ARM GAS  /tmp/ccuGx7KI.s 			page 23


 300 02cd E7988D98 		.ascii	"\347\230\215\230\343\026\303 \333B\005\331\365\346u"
 300      E316C320 
 300      DB4205D9 
 300      F5E675
 301 02dc 8641C652 		.ascii	"\206A\306R\356\263\237,\034\341~\027\346\376%\346\276"
 301      EEB39F2C 
 301      1CE17E17 
 301      E6FE25E6 
 301      BE
 302 02ed DD90FB76 		.ascii	"\335\220\373v\212\373\3525G\207\0300w\2331\267\230\344"
 302      8AFBEA35 
 302      47871830 
 302      779B31B7 
 302      98E4
 303 02ff B4CBDB71 		.ascii	"\264\313\333q\374.\343I\3704/\3353R\361\330$\217\326"
 303      FC2EE349 
 303      F8342FDD 
 303      3352F1D8 
 303      248FD6
 304 0312 83F059F1 		.ascii	"\203\360Y\361 \226}%\257\310\276z\315\262\203\367\016"
 304      20967D25 
 304      AFC8BE7A 
 304      CDB283F7 
 304      0E
 305 0323 742E49B2 		.ascii	"t.I\262\254\"\240;\246\016l.)\210\253\011b\247\015\242"
 305      AC22A03B 
 305      A60E6C2E 
 305      2988AB09 
 305      62A70DA2 
 306 0337 793C6911 		.ascii	"y<i\021[\011bw^\210\3462\256'\210\307m\020\207\346("
 306      5B096277 
 306      5E88E632 
 306      AE2788C7 
 306      6D1087E6 
 307 034c E3468298 		.ascii	"\343F\202\230\311\013\321\\\306\315\004\261\327\006"
 307      C90BD15C 
 307      C6CD04B1 
 307      D706
 308 035a B12C4719 		.ascii	"\261,G\031\267\020\304\276\274\020\315e\334F\020\257"
 308      B710C4BE 
 308      BC10CD65 
 308      DC4610AF 
 309 036a D920961B 		.ascii	"\331 \226\033\311\230\025S\372\305q\033K\346\004\307"
 309      C9981553 
 309      FAC5711B 
 309      4BE604C7 
 310 037a 7CC62B99 		.ascii	"|\306+\231\343z\363\206\016o\001\361O\240v\363j\332"
 310      E37AF386 
 310      0E6F01F1 
 310      4FA076F3 
 310      6ADA
 311 038c 5B925FDA 		.ascii	"[\222_\33232\206\264,\355'\240}\233\354\226:\373\260"
 311      333286B4 
 311      2CED27A0 
 311      7D9BEC96 
 311      3AFBB0
 312 039f 92300F13 		.ascii	"\2220\017\023\314k6K\235]Xi\322\225\274V\365\274\273"
ARM GAS  /tmp/ccuGx7KI.s 			page 24


 312      CC6B364B 
 312      9D5D5869 
 312      D295BC56 
 312      F5BCBB
 313 03b2 B52C4DA5 		.ascii	"\265,M\245\313b\202\206*757\222\341\251\2622\263\321"
 313      CB628286 
 313      2A373537 
 313      92E1A9B2 
 313      32B3D1
 314 03c5 3E36C38E 		.ascii	">6\303\216\202\373\027\254\233H\"\367I\367\006\336u"
 314      82FB17AC 
 314      9B4822F7 
 314      49F706DE 
 314      75
 315 03d6 9CE4D178 		.ascii	"\234\344\321x\203\2028\007j\363P9M\207JFu\205\215s-"
 315      83823807 
 315      6AF35039 
 315      4D874A46 
 315      75858D73 
 316 03eb E6CE85BA 		.ascii	"\346\316\205\272T\231\223R\335\306Rr\212?\217W\365\257"
 316      54999352 
 316      DDC65272 
 316      8A3F8F57 
 316      F5AF
 317 03fd D5149FD6 		.ascii	"\325\024\237\326W\010\271c\365b\254>^\255\0206\374\304"
 317      5708B963 
 317      F562AC3E 
 317      5EAD1036 
 317      FCC4
 318 040f 29A66275 		.ascii	")\246bu\025\002\253]\360U\343)\266\313o4\307\\\243&"
 318      1502AB5D 
 318      F055E329 
 318      B6CB6F34 
 318      C75CA326 
 319 0423 C9F7EA24 		.ascii	"\311\367\352$\321\212\233C\306(\314\216\027\261\356"
 319      D18A9B43 
 319      C628CC8E 
 319      17B1EE
 320 0432 2F14113B 		.ascii	"/\024\021;\326\023;J\206\311W\235\371E\252:W\363S\347"
 320      D6133B4A 
 320      86C9579D 
 320      F945AA3A 
 320      57F353E7 
 321 0446 9E81AB73 		.ascii	"\236\201\253s\031\253\363\252\252\316\312\001\252\363"
 321      19ABF3AA 
 321      AACECA01 
 321      AAF3
 322 0454 06A5CE6B 		.ascii	"\006\245\316k\373\363Rg\014\245\216T\271\015g^\266\253"
 322      FBF35267 
 322      0CA58E54 
 322      B90D675E 
 322      B6AB
 323 0466 DC905857 		.ascii	"\334\220XW\331\341Lv\335\204\336*uS\337\226R&\373*\242"
 323      D9E14C76 
 323      DD84DE2A 
 323      7553DF96 
 323      5226FB2A 
ARM GAS  /tmp/ccuGx7KI.s 			page 25


 324 047b 5829DBC5 		.ascii	"X)\333\305w\260\374\210\266\367\223\263\005o\014\264"
 324      77B0FC88 
 324      B6F793B3 
 324      056F0CB4 
 325 048b 982D0433 		.ascii	"\230-\00433e\240\345\321$\224~\327\021\300\343\273\007"
 325      3365A0E5 
 325      D124947E 
 325      D711C0E3 
 325      BB07
 326 049d BA7BC97B 		.ascii	"\272{\311{\177\360\002\207t\332\254\206\314\025*d\332"
 326      7FF00287 
 326      74DAAC86 
 326      CC152A64 
 326      DA
 327 04ae F421935B 		.ascii	"\364!\223[\275\277\223(\324\337x\350\240Mn4\324H\276"
 327      BDBF9328 
 327      D4DF78E8 
 327      A04D6E34 
 327      D448BE
 328 04c1 38662F09 		.ascii	"8f/\011\300\314S\005\254\375\371\355\033h\273\314\343"
 328      C0CC5305 
 328      ACFDF9ED 
 328      1B68BBCC 
 328      E3
 329 04d2 D036B78B 		.ascii	"\3206\267\213\330\345\362\342%;\247H\2409\355@z0\345"
 329      D8E5F2E2 
 329      253BA748 
 329      A039ED40 
 329      7A30E5
 330 04e5 4B9CD11E 		.ascii	"K\234\321\036\000\275U\267\271m\266;\020i\235\366\261"
 330      00BD55B7 
 330      B96DB63B 
 330      10699DF6 
 330      B1
 331 04f6 1FB09C8C 		.ascii	"\037\260\234\214\331\373\257\202\002%\373\242E\364\261"
 331      D9FBAF82 
 331      0225FBA2 
 331      45F4B1
 332 0505 0BB8510C 		.ascii	"\013\270Q\014\310\327\300\335\241z\340\002\361@g\207"
 332      C8D7C0DD 
 332      A17AE002 
 332      F1406787 
 333 0515 DD14D2FA 		.ascii	"\335\024\322\372\240\\\343\203\224\352\003\315\356\351"
 333      A05CE383 
 333      94EA03CD 
 333      EEE9
 334 0523 514D0944 		.ascii	"QM\011D\273\340\025\354\202~\312\005\033wN\325\272\340"
 334      BBE015EC 
 334      827ECA05 
 334      1B774ED5 
 334      BAE0
 335 0535 5173248E 		.ascii	"Qs$\216\231\347@\224\213\014]\260H\343\202\303\206."
 335      99E74094 
 335      8B0C5DB0 
 335      48E382C3 
 335      862E
 336 0547 E04C5D80 		.ascii	"\340L]\200\2503\253o\316I\203\217]O0{+\362A,7w\352\""
ARM GAS  /tmp/ccuGx7KI.s 			page 26


 336      A833AB6F 
 336      CE49838F 
 336      5D4F307B 
 336      2BF2412C 
 337 055f CAA96970 		.ascii	"\312\251ip*\347c\227\200:>\366u\332\265K\035\244\356"
 337      2AE76397 
 337      803A3EF6 
 337      75DAB54B 
 337      1DA4EE
 338 0572 A35CAB35 		.ascii	"\243\\\2535\243\322\277\307T\031mv\\A0\217\377\326Z"
 338      A3D2BFC7 
 338      54196D76 
 338      5C41308F 
 338      FFD65A
 339 0585 9931B6E6 		.ascii	"\2311\266\346\221r\323\373\004\261sZ>\210\345Y\210\266"
 339      9172D3FB 
 339      04B1735A 
 339      3E88E559 
 339      88B6
 340 0597 3BF914AB 		.ascii	";\371\024\253\251ta\303\205y\277m\030BoS!t\371p\353"
 340      A97461C3 
 340      8579BF6D 
 340      18426F53 
 340      2174F970 
 341 05ac 09A310E2 		.ascii	"\011\243\020\342\251\340W\002\372$\301\354\336Xjm\364"
 341      A9E05702 
 341      FA24C1EC 
 341      DE586A6D 
 341      F4
 342 05bd DC228863 		.ascii	"\334\"\210c\276$\220\231\303\245\3266\262\333\016\347"
 342      BE249099 
 342      C3A5D636 
 342      B2DB0EE7 
 343 05cd 6B23CDD1 		.ascii	"k#\315\321 \326\357;\2072a3\377\361(\001)\031\213\212"
 343      20D6EF3B 
 343      87326133 
 343      FFF12801 
 343      29198B8A 
 344 05e1 D0B7A908 		.ascii	"\320\267\251\010]\016\021\312\373\330wq\2046\343\373"
 344      5D0E11CA 
 344      FBD87771 
 344      8436E3FB 
 345 05f1 7B6A9C9A 		.ascii	"{j\234\232W\012-\034U\215\377Hl\320\227\237\015\312"
 345      570A2D1C 
 345      558DFF48 
 345      6CD0979F 
 345      0DCA
 346 0603 351E33E7 		.ascii	"5\0363\347\366\026\315\355\272C-\214\272\206[\263\233"
 346      F616CDED 
 346      BA432D8C 
 346      BA865BB3 
 346      9B
 347 0614 68EB45E9 		.ascii	"h\353E\351\300\257\336I\326\272}v\231v\242N\330lL\\"
 347      C0AFDE49 
 347      D6BA7D76 
 347      9976A24E 
 347      D86C4C5C 
ARM GAS  /tmp/ccuGx7KI.s 			page 27


 348 0628 5ABC4220 		.ascii	"Z\274B \273\367\333\245\253G\215\304\314\276\350\263"
 348      BBF7DBA5 
 348      AB478DC4 
 348      CCBEE8B3 
 349 0638 5B1FBB16 		.ascii	"[\037\273\026\266c\303|l+\213\234\266\016\3377\340\373"
 349      B663C37C 
 349      6C2B8B9C 
 349      B60EDF37 
 349      E0FB
 350 064a C7F8FE39 		.ascii	"\307\370\3769\276\237\304\367S\370~\016\337/\340\373"
 350      BE9FC4F7 
 350      53F87E0E 
 350      DF2FE0FB 
 351 065a 0FF8DE8F 		.ascii	"\017\370\336\217\357\377\300n\177\031\337\337\300\367"
 351      EFFFC06E 
 351      7F19DFDF 
 351      C0F7
 352 0668 467C6FC2 		.ascii	"F|o\302\367\265\370\376ANA\301jN\264 ,\237\345\211\333"
 352      F7B5F8FE 
 352      414E41C1 
 352      6A4EB420 
 352      2C9FE589 
 353 067d 963A499D 		.ascii	"\226:I\235s\266\353\333\220\364\372.\346\235T\352ed"
 353      73B6EBDB 
 353      90F4FA2E 
 353      E69D54EA 
 353      6564
 354 068f 36653E75 		.ascii	"6e>u\341a\315\354H\346\210\313\204\2234\224\271\233"
 354      E161CDEC 
 354      48E688CB 
 354      84933494 
 354      B99B
 355 06a1 791785FF 		.ascii	"y\027\205\377\326\2722|8\307\310d!\215\301\326s\034"
 355      D6BA327C 
 355      38C7C864 
 355      218DC1D6 
 355      731C
 356 06b3 6D41748C 		.ascii	"mAt\214\337\324\203\370\031\034\343#Ts\345\3328\315"
 356      DFD483F8 
 356      191CE323 
 356      5473E5DA 
 356      38CD
 357 06c5 39BE345C 		.ascii	"9\2764\\\253b7Q1\223\216\032+\010\001\307\241%g\023"
 357      AB623751 
 357      31938E1A 
 357      2B0801C7 
 357      A1256713 
 358 06d9 379249BB 		.ascii	"7\222I\273sP\260\256a{\235L\313\310t\233x3)\361\220"
 358      7350B0AE 
 358      617B9D4C 
 358      CBC8749B 
 358      783329F1 
 359 06ee 8F2C54FE 		.ascii	"\217,T\376\373\320|\376u\361\211\275\312=D\345\356\245"
 359      FBD07CFE 
 359      75F189BD 
 359      CA3D44E5 
 359      EEA5
ARM GAS  /tmp/ccuGx7KI.s 			page 28


 360 0700 B759ABBC 		.ascii	"\267Y\253\274\205\313\321\247)\215O\021\231\326\247"
 360      85CBD1A7 
 360      298D4F11 
 360      99D6A7
 361 070f 9FDE349F 		.ascii	"\237\3364\237~\306\331\377o\246\376\014u,\221R\317\233"
 361      7EC6D9FF 
 361      6FA6FE0C 
 361      752C9152 
 361      CF9B
 362 0721 CB196D06 		.ascii	"\313\031m\006\336\2053\3607\304\036\337~\267\360\344"
 362      DE8533F0 
 362      37C41EDF 
 362      7EB7F0E4 
 363 0731 C39284B9 		.ascii	"\303\222\204\271@qL\243\013\221v\030.x\035\324\202w"
 363      40714CA3 
 363      0B917618 
 363      2E781DD4 
 363      8277
 364 0743 6DC97426 		.ascii	"m\311t&\373\342\315\026\022\235A&Y\331\343\200\326\036"
 364      FBE2CD16 
 364      129D4126 
 364      59D9E380 
 364      D61E
 365 0755 79EF680E 		.ascii	"y\357h\016\342\252\241\305\245\330`\305\217\255_\377"
 365      E2AAA1C5 
 365      A5D860C5 
 365      8FAD5FFF 
 366 0765 CFA1F8CD 		.ascii	"\317\241\370\315\241\333\3218\264;\032\007\331\3218"
 366      A1DBD138 
 366      B43B1A07 
 366      D9D138
 367 0774 D41D0D1D 		.ascii	"\324\035\015\035m\366\374\367s(\205\374D\370\177\265"
 367      6DF6FCF7 
 367      732885FC 
 367      44F87FB5 
 368 0784 E3E0B17B 		.ascii	"\343\340\261{%b\335i>\322\324\334\016\2079M\"\323H\255"
 368      2562DD69 
 368      3ED2D4DC 
 368      0E87394D 
 368      22D348AD 
 369 0798 FB8E63D6 		.ascii	"\373\216c\326\026+~\003\227\177\2256\211\360\034\266"
 369      162B7E03 
 369      977F9536 
 369      89F01CB6 
 370 07a8 BA4D7353 		.ascii	"\272MsS\365\274\262U\337\352\324D\213\276\300\376\010"
 370      F5BCB255 
 370      DFEAD444 
 370      8BBEC0FE 
 370      08
 371 07b9 33FD2F67 		.ascii	"3\375/g\264_Go\225`\351L\337n\020,ry-1\224\275\274"
 371      B45F476F 
 371      9560E94C 
 371      DF6E102C 
 371      72792D31 
 372 07d0 F5C5543D 		.ascii	"\365\305T=;\247\365\227\271l\017N`?\267\027\253\377"
 372      3BA7F597 
 372      B96C0F4E 
ARM GAS  /tmp/ccuGx7KI.s 			page 29


 372      603FB717 
 372      ABFF
 373 07e2 E6F8688F 		.ascii	"\346\370h\217l\217\002\320Na\264\203\004\255\177\376"
 373      6C8F02D0 
 373      4E61B483 
 373      04AD7FFE 
 374 07f2 C5F68715 		.ascii	"\305\366\207\025s\273uA\343\326\006\215\233\004\215"
 374      73BB7541 
 374      E3D6068D 
 374      9B048D
 375 0801 5B0E1AE9 		.ascii	"[\016\032\351\337\267L\201T\034s\214X\366\333\357\272"
 375      DFB74C81 
 375      541C738C 
 375      58F6DBEF 
 375      BA
 376 0812 4E9FE38D 		.ascii	"N\237\343\215\345\317\301\235\364\266\313j\267\204\344"
 376      E5CFC19D 
 376      F4B6CB6A 
 376      B784E4
 377 0821 3B6B38EB 		.ascii	";k8\353\317R\263\376x\332\350\340\205\313\377\214\347"
 377      CF52B3FE 
 377      78DAE8E0 
 377      85CBFF8C 
 377      E7
 378 0832 BC61CC9C 		.ascii	"\274a\314\234\247b&\223\036a\0363F\377\032C\3062g\330"
 378      A7622693 
 378      1E611E33 
 378      46FF1A43 
 378      C63267D8 
 379 0846 4B176FA7 		.ascii	"K\027o\247\260u\021\267\336\364\3007q\355x\276\237%"
 379      B07511B7 
 379      DEF4C037 
 379      71ED78BE 
 379      9F25
 380 0858 987D6585 		.ascii	"\230}e\205\357\3149\346k\214\203\214~-}\373@E\223R\341"
 380      EFCC39E6 
 380      6B8C838C 
 380      7E2D7DFB 
 380      40459352 
 381 086d 370472C7 		.ascii	"7\004r\307\222\374\016\301\312u\302]\"a\331\271dD\001"
 381      92FC0EC1 
 381      CA75C25D 
 381      2261D9B9 
 381      644401
 382 0880 314980FA 		.ascii	"1I\200\372H\272\352~\335n\347i\365\017ai_%\355;\256"
 382      48BAEA7E 
 382      DD6EE769 
 382      F50F6169 
 382      5F25ED3B 
 383 0895 12CCCC6D 		.ascii	"\022\314\314m&\233\025\272\237S\251\333A\355R\366J\273"
 383      269B15BA 
 383      9F53A9DB 
 383      41ED52F6 
 383      4ABB
 384 08a7 947DB814 		.ascii	"\224}\270\024=\212\357?\344R\220\266\253\241\347 E\014"
 384      3D8AEF3F 
 384      E45290B6 
ARM GAS  /tmp/ccuGx7KI.s 			page 30


 384      ABA1E720 
 384      450C
 385 08b9 F20C55D3 		.ascii	"\362\014U\323|\310R\037\255VN\264\3116guU_+M\362\344"
 385      7CC8521F 
 385      AD564EB4 
 385      C9366775 
 385      555F2B4D 
 386 08cf B978F5E3 		.ascii	"\271x\365\343`\236\343V\322\340\331\356K&\213\327U\313"
 386      609EE356 
 386      D2E0D9EE 
 386      4B268BD7 
 386      55CB
 387 08e1 C5EB86C5 		.ascii	"\305\353\206\305\342\225\365\035-.zP\245\335\0327U\260"
 387      E295F51D 
 387      2D2E7A50 
 387      A5DD1A37 
 387      55B0
 388 08f3 B7B4C95F 		.ascii	"\267\264\311_\320\325\2354\375\266\343q;\240L;\3471"
 388      D0D59D34 
 388      FDB6E371 
 388      3BA04C3B 
 388      E731
 389 0905 96AA8826 		.ascii	"\226\252\210&B\346\367\261\227pI\210\210v\0151-\011"
 389      42E6F7B1 
 389      97704988 
 389      88760D31 
 389      2D09
 390 0917 B1A7685A 		.ascii	"\261\247hZi\263\266\2330<\336\262\2053\245\306\216\245"
 390      69B3B69B 
 390      303CDEB2 
 390      8533A5C6 
 390      8EA5
 391 0929 A92503EF 		.ascii	"\251%\003\357#\324G\006\233\322\242\241\032Z\274\245"
 391      23D44706 
 391      9BD2A2A1 
 391      1A5ABCA5 
 392 0939 EB22A457 		.ascii	"\353\"\244W\314\205F\206\224#\317\250\200G\324\335-"
 392      CC854686 
 392      9423CFA8 
 392      8047D4DD 
 392      2D
 393 094a 51CB0A7E 		.ascii	"Q\313\012~\016\177\263\012\334\227\370\374~|\364\027"
 393      0E7FB30A 
 393      DC97F8FC 
 393      7E7CF417 
 394 095a 82304817 		.ascii	"\2020H\027\235\015<\232\350\207HL\254>q\360\214\264"
 394      9D0D3C9A 
 394      E887484C 
 394      AC3E71F0 
 394      8CB4
 395 096c 1336FCED 		.ascii	"\0236\374\355\221\026\010\211\362\012o\264\304\241\267"
 395      91160889 
 395      F20A6FB4 
 395      C4A1B7
 396 097b CABAB323 		.ascii	"\312\272\263#]\225\025\262\026\205mNg\301\363J\220\300"
 396      5D9515B2 
 396      16856D4E 
ARM GAS  /tmp/ccuGx7KI.s 			page 31


 396      67C1F34A 
 396      90C0
 397 098d 8B0D792F 		.ascii	"\213\015y/\246y/v\032\360\326\236\004/\342Q\020,\"\210"
 397      A6792F76 
 397      1AF0D69E 
 397      042FE251 
 397      102C2288 
 398 09a1 9D76871D 		.ascii	"\235v\207\035\332\231\257\275\314}\206\330\220I\330"
 398      DA99AFBD 
 398      CC7D86D8 
 398      9049D8
 399 09b0 88B9212B 		.ascii	"\210\271!+u\026\262\266\031,I+\010bw\272\240%I\203)"
 399      7516B2B6 
 399      192C492B 
 399      086277BA 
 399      A0254983 
 400 09c5 55DC1B08 		.ascii	"U\334\033\010f\306FJ\303\025%\373\242\303\305\307\276"
 400      66C6464A 
 400      C31525FB 
 400      A2C3C5C7 
 400      BE
 401 09d6 CAE3F4FF 		.ascii	"\312\343\364\377\032\217\022\377\233\370\276\214\317"
 401      1A8F12FF 
 401      9BF8BE8C 
 401      CF
 402 09e3 21FD2F50 		.ascii	"!\375/P-Yd\234\357\345\231n\225\006?-Q\323\340\3023"
 402      2D59649C 
 402      EFE5996E 
 402      95063F2D 
 402      51D3E0C2 
 403 09f8 46697001 		.ascii	"Fip\001\216\213cx\334|\0362\232I^\341\365\251\314\307"
 403      8E8B6378 
 403      DC7C1E32 
 403      9A495EE1 
 403      F5A9CCC7 
 404 0a0c BEC87332 		.ascii	"\276\310s2Q\375\330\374\022\231\217\255'\264\275\233"
 404      51FDD8FC 
 404      12998FAD 
 404      27B4BD9B 
 405 0a1c 2E9BA741 		.ascii	".\233\247A\243T\346c\347\021\342+\346YPJe\330\212F\251"
 405      A354E663 
 405      E711E22B 
 405      E659504A 
 405      65D88A46 
 406 0a31 0C516736 		.ascii	"\014Qg6Y\247\262\345\331\251\254\247\241anS\336?\243"
 406      59A7B2E5 
 406      D9A9ACA7 
 406      A1616E53 
 406      DE3FA3
 407 0a44 7C9FD7AD 		.ascii	"|\237\327\255\257\330\352\026~;Q\242\246\252\017\372"
 407      AFD8EA16 
 407      7E3B51A2 
 407      A6AA0FFA 
 408 0a54 EB795A0C 		.ascii	"\353yZ\014\037\273\346f\311\325\252\227k\222\376\210"
 408      1FBBE666 
 408      C9D5AA97 
 408      6B92FE88 
ARM GAS  /tmp/ccuGx7KI.s 			page 32


 409 0a64 E43C1104 		.ascii	"\344<\021\004\366\2073\264b\254\273Ybl\320\213\201O"
 409      F68733B4 
 409      62ACBB59 
 409      626CD08B 
 409      814F
 410 0a76 D3C8A726 		.ascii	"\323\310\247&\034\364\032\261\372\210X\375\215\027G"
 410      1CF41AB1 
 410      FA8858FD 
 410      8D1747
 411 0a85 6AC5DA94 		.ascii	"j\305\332\224\207X\326\013\320f\003\363\344V\212\345"
 411      8758D60B 
 411      D06603F3 
 411      E4568AE5 
 412 0a95 3035E778 		.ascii	"05\347x\324Z\351\340\212\243:\027o\315C\011\313S\221"
 412      D45AE9E0 
 412      8AA33A17 
 412      6FCD4309 
 412      CB5391
 413 0aa8 6D7A1D70 		.ascii	"mz\035p\335\243SB#\330?=\252\313/~\237\326\011\366\331"
 413      DDA35342 
 413      23D83F3D 
 413      AACB2F7E 
 413      9FD609F6 
 414 0abd CD12ACDD 		.ascii	"\315\022\254\335hNh\203\357u\217:\013.\315\324\312\261"
 414      684E6883 
 414      EF758F3A 
 414      0B2ECDD4 
 414      CAB1
 415 0acf 5B2B87AE 		.ascii	"[+\207\256\310D\023\316\234\365\0365\265\2263\313\244"
 415      C84413CE 
 415      9CF51E35 
 415      B59633CB 
 415      A4
 416 0ae0 73585673 		.ascii	"sXVs\016\013\331\262\377\317\214\315 u\237~\013\323"
 416      0E0BD9B2 
 416      FFCF8CCD 
 416      20759F7E 
 416      0BD3
 417 0af2 206D94D3 		.ascii	" m\224\323\245\322\317\201\024\336C\011oN\346\275\227"
 417      A5D2CF81 
 417      14DE4309 
 417      6F4EE6BD 
 417      97
 418 0b03 BF05F734 		.ascii	"\277\005\3674\2774\307C\314\345\335\307K\313\215\272"
 418      BF34C743 
 418      CCE5DDC7 
 418      4BCB8DBA 
 419 0b13 B2293D56 		.ascii	"\262)=V+@\271\236\377D2\322%c\355/\200\377\001S\376"
 419      2B40B99E 
 419      FF4432D2 
 419      2563ED2F 
 419      80FF0153 
 420 0b28 4ADD7127 		.ascii	"J\335q'\363V\352\300\201\206T]Y]\317\215\033#iq\316"
 420      F356EAC0 
 420      8186545D 
 420      595DCF8D 
 420      1B236971 
ARM GAS  /tmp/ccuGx7KI.s 			page 33


 421 0b3d 50E2E80B 		.ascii	"P\342\350\013+3\261\263\013\260\177\027 v\267\251\330"
 421      2B33B1B3 
 421      0BB07F17 
 421      2076B7A9 
 421      D8
 422 0b4e F46F59D5 		.ascii	"\364oY\325q\250\276\300\021\207\316\251\257\245K\315"
 422      71A8BEC0 
 422      1187CEA9 
 422      AFA54BCD 
 423 0b5e A481DD85 		.ascii	"\244\201\335\205\207\225i!\017\351c\257\3252\366\016"
 423      87956921 
 423      0FE963AF 
 423      D532F60E 
 424 0b6e F39A4D8C 		.ascii	"\363\232M\214\216\026\375\336\336\234\366\210\032\267"
 424      8E16FDDE 
 424      DE9CF688 
 424      1AB7
 425 0b7c 391A3C44 		.ascii	"9\032<D0\006[\032\\?\316\307\036+\300\340\307M\015>"
 425      30065B1A 
 425      5C3FCEC7 
 425      1E2BC0E0 
 425      C74D0D3E 
 426 0b90 48637065 		.ascii	"Hcpe\034t\017\361\312\351z\337/\314\204\341\230\217"
 426      1C740FF1 
 426      CAE97ADF 
 426      2FCC84E1 
 426      988F
 427 0ba2 35F63698 		.ascii	"5\3666\230\216\010@\235\216&\003v\2749\302v\210z\340"
 427      8E08409D 
 427      8E260376 
 427      BC39C276 
 427      887AE0
 428 0bb5 A8F3CC36 		.ascii	"\250\363\3146K\257\236R=\243\243\333lIw\332\224n\203"
 428      4BAF9E52 
 428      3DA3A3DB 
 428      6C4977DA 
 428      946E83
 429 0bc8 25DD1953 		.ascii	"%\335\031S\272vK\272L\336\021t@=\011\271\3152\204\262"
 429      BA764BBA 
 429      4CDE1174 
 429      403D09B9 
 429      CD3284B2 
 430 0bdc 06FAD82F 		.ascii	"\006\372\330/\013\210\241s\2461t\253&\206\316\351c\010"
 430      0B88A173 
 430      A63174AB 
 430      2686CEE9 
 430      6308
 431 0bee 15749D6D 		.ascii	"\025t\235m\245\246\342pL\207&\212\030G$Y\355\027\235"
 431      A5A6E270 
 431      4C87268A 
 431      18472459 
 431      ED179D
 432 0c01 4FFEEE8F 		.ascii	"O\376\356\217\345\223\231\361\025\025\336\311\241\360"
 432      E59399F1 
 432      1515DEC9 
 432      A1F0
 433 0c0f F4F0EF9F 		.ascii	"\364\360\357\237\361\306\222\336\204\350\215\307\022"
ARM GAS  /tmp/ccuGx7KI.s 			page 34


 433      F1C692DE 
 433      84E88DC7 
 433      12
 434 0c1c 62D2FBD8 		.ascii	"b\322\373\330\323\323&O\233\345\015\306\"\361p\215\220"
 434      D3D3264F 
 434      9BE50DC6 
 434      22F1708D 
 434      90
 435 0c2d 487A9F9C 		.ascii	"Hz\237\234<\331\033\014\211\263\343B\262\"\304\270\302"
 435      3CD91B0C 
 435      89B3E342 
 435      B222C4B8 
 435      C2
 436 0c3e 51F181FB 		.ascii	"Q\361\201\373\375\242\340\015\305\"\202\267&P\233\020"
 436      FDA2E00D 
 436      C52282B7 
 436      26509B10 
 437 0c4e A2410191 		.ascii	"\242A\001\221\215F#\247\207\243^@\256\011O\367V\007"
 437      8D4623A7 
 437      87A35E40 
 437      AE094FF7 
 437      5607
 438 0c60 83DE4022 		.ascii	"\203\336@\"2:\032\213\012\243\205\300\364\260w\\\305"
 438      323A1A8B 
 438      0AA385C0 
 438      F4B0775C 
 438      C5
 439 0c71 848A71E8 		.ascii	"\204\212q\350k\362\247\375>\034\015\326\324V\012\336"
 439      6BF2A7FD 
 439      3E1C0DD6 
 439      D4560ADE 
 440 0c81 A458096C 		.ascii	"\244X\011l\200[\261\030J\010\201J\277xw\226\264\312"
 440      805BB118 
 440      4A08814A 
 440      BF787796 
 440      B4CA
 441 0c93 D8602839 		.ascii	"\330`(9;\251H\347\016\206\374\022\311\235V\004\301P"
 441      3BA948E7 
 441      0E86FC12 
 441      C99D5604 
 441      C150
 442 0ca5 250C76C6 		.ascii	"%\014v\306\375Qa\226\010\217xB\230\341\022\343\211p"
 442      FD516196 
 442      088F7842 
 442      98E112E3 
 442      8970
 443 0cb7 CC2F16D7 		.ascii	"\314/\026\327\312\032\342\367\341\230+\030\213\2120"
 443      CA1AE2F7 
 443      E1982B18 
 443      8B8A30
 444 0cc6 EC5736F6 		.ascii	"\354W6\366\012\005c\011\001P=\350\265\0370\202\342\254"
 444      0A056309 
 444      01503DE8 
 444      B51F3082 
 444      E2AC
 445 0cd8 5FE742E3 		.ascii	"_\347B\343\2371!\202TM\010\325`\015\277\310%\306q\211"
 445      9F312182 
ARM GAS  /tmp/ccuGx7KI.s 			page 35


 445      544D08D5 
 445      600DBFC8 
 445      25C67189 
 446 0cec 07B9C478 		.ascii	"\007\271\304x.1\201KL\344\022\017\361\211\261c\240\215"
 446      2E31814B 
 446      4CE4120F 
 446      F189B163 
 446      A08D
 447 0cfe E56A12F0 		.ascii	"\345j\022\360x\300\021\367\003\266\013I?SH\3003VS)$"
 447      78C011F7 
 447      03B60B49 
 447      3F5348C0 
 447      33565329 
 448 0d13 8A82A140 		.ascii	"\212\202\241@\002\251\024\210\010\305bR\014\210\202"
 448      02A91488 
 448      08C56252 
 448      0C8882
 449 0d22 5F742165 		.ascii	"_t!e&\3023\356\307o\\b$V)\340\317U5\201\352\244KL\010"
 449      26C233EE 
 449      C76F5C62 
 449      245629E0 
 449      CF553581 
 450 0d3b 5549AC2B 		.ascii	"UI\254+\3528\023\225\263!F\212\205Ya1\010\003\2353\305"
 450      EA381395 
 450      B321468A 
 450      85596131 
 450      08039D33 
 451 0d50 D8F4BFC6 		.ascii	"\330\364\277\306=\302\014!*F\002\311\347`\2440\023u"
 451      3DC20C21 
 451      2A4602C9 
 451      E760A430 
 451      1375
 452 0d62 F8B8BFB6 		.ascii	"\370\270\277\266T\262t\322_\023N\212~q\010\261\275\364"
 452      54B274D2 
 452      5F134E8A 
 452      7E7108B1 
 452      BDF4
 453 0d74 C61DF7CF 		.ascii	"\306\035\367\317\014\204\305p\264z\210\362\372o\265"
 453      0C84C570 
 453      B47A88F2 
 453      FA6FB5
 454 0d83 422D701F 		.ascii	"B-p\037J\215\304\257J\342~`\213\273\016\334\205\027"
 454      4A8DC4AF 
 454      4AE27E60 
 454      8BBB0EDC 
 454      8517
 455 0d95 425C8842 		.ascii	"B\\\210B\024T;\"\265`\376;,\334\031\021g\241\300\214"
 455      14543B22 
 455      B560FE3B 
 455      2CDC1911 
 455      67A1C08C 
 456 0da9 4858F08C 		.ascii	"HX\360\214\315\214\202]0\035\010\034\301^\006i`\034"
 456      CD8C825D 
 456      301D081C 
 456      C15E0669 
 456      601C
 457 0dbb 92AB04E9 		.ascii	"\222\253\004\351\032\250\301\276\205\227\361X\254fx"
ARM GAS  /tmp/ccuGx7KI.s 			page 36


 457      1AA8C1BE 
 457      8597F158 
 457      AC6678
 458 0dca 30F46CA8 		.ascii	"0\364l\250\362i\241F\010$\205\212x !V\214\311\346\230"
 458      F269A146 
 458      0824858A 
 458      78202156 
 458      8CC9E698 
 459 0dde 4C04815B 		.ascii	"L\004\201[\345l\260p8X\021d81\356\301\204\217U\002m"
 459      E56CB070 
 459      38581164 
 459      3831EEC1 
 459      848F5502 
 460 0df3 D5201A64 		.ascii	"\325 \032dpD\210\304\022\263\375!!\020\367\213V\301"
 460      704488C4 
 460      12B3FD21 
 460      2110F78B 
 460      56C1
 461 0e05 8846A0B0 		.ascii	"\210F\240\260\241\010\234\311\360\363`\246\337\024>"
 461      A1089CC9 
 461      F0F360A6 
 461      DF143E
 462 0e14 C5A88954 		.ascii	"\305\250\211T)T\001\374 \200\257\026\304\252\332h\320"
 462      295401FC 
 462      2080AF16 
 462      C4AADA68 
 462      D0
 463 0e25 2F8EB232 		.ascii	"/\216\2622\246\020\221\003\271$\004\361\037\233\021"
 463      A6109103 
 463      B92404F1 
 463      1F9B11
 464 0e34 86D8F260 		.ascii	"\206\330\362`5\340\006\375\222\244\370\\\240&\\\035"
 464      35E006FD 
 464      92A4F85C 
 464      A0265C1D 
 465 0e44 95A7CAF8 		.ascii	"\225\247\312\370q~\321\201_\024!;\027\241\241lm\021"
 465      717ED181 
 465      5F14213B 
 465      17A1A16C 
 465      6D11
 466 0e56 52810D39 		.ascii	"R\201\0159C\376\252\204 8B\310\370\256\034\330\313a"
 466      43FEAA84 
 466      203842C8 
 466      F8AE1CD8 
 466      CB61
 467 0e68 01EC259F 		.ascii	"\001\354%\237L\206\217\242\360D\"\026\231\002\270\016"
 467      4C868FA2 
 467      F0442216 
 467      9902B80E 
 468 0e78 041E2F42 		.ascii	"\004\036/B\256\343\342U| Q\255\330\031y\321:K\300@4"
 468      AEE3E255 
 468      7C2051AD 
 468      D81979D1 
 468      3A4BC040 
 469 0e8d 28294D51 		.ascii	"()MQ\030-\251\343\212\207p|\270\"R6(\205'\304\274\020"
 469      182DA9E3 
 469      8A87707C 
ARM GAS  /tmp/ccuGx7KI.s 			page 37


 469      B8225236 
 469      288527C4 
 470 0ea3 14FD4805 		.ascii	"\024\375H\005O$N\254p\253N\242i\230\365\037\000\213"
 470      4F244EAC 
 470      70AB4EA2 
 470      6998F51F 
 470      008B
 471 0eb5 8BC44B82 		.ascii	"\213\304K\202!\324{\002\264\205.\022\026u!&\236\011"
 471      21D47B02 
 471      B4852E12 
 471      16752126 
 471      9E09
 472 0ec7 86FE1478 		.ascii	"\206\376\024xN\250\215?3\210\242\237\352\221\006=VS"
 472      4EA88D3F 
 472      3388A29F 
 472      EA91063D 
 472      5653
 473 0ed9 130B7A24 		.ascii	"\023\013z$Z\334/\366\373\261\225\374\203\225N\305\370"
 473      5ADC2FF6 
 473      FBB195FC 
 473      83954EC5 
 473      F8
 474 0eea B10F8CD5 		.ascii	"\261\017\214\325|\032O\177zp\302\377\001\3231\3313"
 474      7C1A4F7F 
 474      7A70C2FF 
 474      01D331D9 
 474      33
 475              		.text
 476              		.section	.gnu.lto_.symtab.4747db695e3e50c7,"",%progbits
 477 0000 63685468 		.ascii	"chThdAddRef\000\000\000\000\000\000\000\000\000\000"
 477      64416464 
 477      52656600 
 477      00000000 
 477      00000000 
 478 0015 00003801 		.ascii	"\000\0008\001\000\000chThdRelease\000\000\000\000\000"
 478      00006368 
 478      54686452 
 478      656C6561 
 478      73650000 
 479 002c 00000000 		.ascii	"\000\000\000\000\000\000\000>\001\000\000chThdCreat"
 479      0000003E 
 479      01000063 
 479      68546864 
 479      43726561 
 480 0041 6546726F 		.ascii	"eFromHeap\000\000\000\000\000\000\000\000\000\000\000"
 480      6D486561 
 480      70000000 
 480      00000000 
 480      00000000 
 481 0055 00440100 		.ascii	"\000D\001\000\000chThdCreateFromMemoryPool\000\000\000"
 481      00636854 
 481      68644372 
 481      65617465 
 481      46726F6D 
 482 0076 00000000 		.ascii	"\000\000\000\000\000\000\000\000\000\214\001\000\000"
 482      00000000 
 482      008C0100 
ARM GAS  /tmp/ccuGx7KI.s 			page 38


 482      00
 483 0083 6368506F 		.ascii	"chPoolFree\000\000\002\000\000\000\000\000\000\000\000"
 483      6F6C4672 
 483      65650000 
 483      02000000 
 483      00000000 
 484 0098 00AB0100 		.ascii	"\000\253\001\000\000chHeapFree\000\000\002\000\000\000"
 484      00636848 
 484      65617046 
 484      72656500 
 484      00020000 
 485 00ad 00000000 		.ascii	"\000\000\000\000\000\000\260\001\000\000chSchWakeup"
 485      0000B001 
 485      00006368 
 485      53636857 
 485      616B6575 
 486 00c2 53000002 		.ascii	"S\000\000\002\000\000\000\000\000\000\000\000\000\264"
 486      00000000 
 486      00000000 
 486      00B4
 487 00d0 01000063 		.ascii	"\001\000\000chThdCreateI\000\000\002\000\000\000\000"
 487      68546864 
 487      43726561 
 487      74654900 
 487      00020000 
 488 00e6 00000000 		.ascii	"\000\000\000\000\000\271\001\000\000chHeapAlloc\000"
 488      00B90100 
 488      00636848 
 488      65617041 
 488      6C6C6F63 
 489 00fb 00020000 		.ascii	"\000\002\000\000\000\000\000\000\000\000\000\301\001"
 489      00000000 
 489      000000C1 
 489      01
 490 0108 00006368 		.ascii	"\000\000chPoolAlloc\000\000\002\000\000\000\000\000"
 490      506F6F6C 
 490      416C6C6F 
 490      63000002 
 490      00000000 
 491 011d 00000000 		.ascii	"\000\000\000\000\306\001\000\000"
 491      C6010000 
 492              		.text
 493              		.section	.gnu.lto_.opts,"",%progbits
 494 0000 272D6444 		.ascii	"'-dD''-mcpu=cortex-m3''-mno-thumb-interwork''-mthum"
 494      27272D6D 
 494      6370753D 
 494      636F7274 
 494      65782D6D 
 495 0033 6227272D 		.ascii	"b''-ggdb''-g3''-O2''-fomit-frame-pointer''-falign-f"
 495      67676462 
 495      27272D67 
 495      3327272D 
 495      4F322727 
 496 0066 756E6374 		.ascii	"unctions=16''-ffunction-sections''-fdata-sections''"
 496      696F6E73 
 496      3D313627 
 496      272D6666 
ARM GAS  /tmp/ccuGx7KI.s 			page 39


 496      756E6374 
 497 0099 2D666E6F 		.ascii	"-fno-common''-flto'\000"
 497      2D636F6D 
 497      6D6F6E27 
 497      272D666C 
 497      746F2700 
 498              		.text
 499              		.cfi_sections	.debug_frame
 500              		.section	.text.chThdAddRef,"ax",%progbits
 501              		.align	2
 502              		.p2align 4,,15
 503              		.global	chThdAddRef
 504              		.thumb
 505              		.thumb_func
 506              		.type	chThdAddRef, %function
 507              	chThdAddRef:
 508              	.LFB170:
 509              		.file 1 "../ChibiOS/os/rt/src/chdynamic.c"
 510              		.loc 1 68 0
 511              		.cfi_startproc
 512              		@ args = 0, pretend = 0, frame = 0
 513              		@ frame_needed = 0, uses_anonymous_args = 0
 514              		@ link register save eliminated.
 515              	.LVL0:
 516              	.LBB63:
 517              	.LBB64:
 518              	.LBB65:
 519              	.LBB66:
 520              		.file 2 "../ChibiOS/os/ext/CMSIS/include/core_cmFunc.h"
 521              		.loc 2 546 0
 522 0000 2022     		movs	r2, #32
 523              	@ 546 "../ChibiOS/os/ext/CMSIS/include/core_cmFunc.h" 1
 524 0002 82F31188 		MSR basepri, r2
 525              	@ 0 "" 2
 526              		.thumb
 527              	.LBE66:
 528              	.LBE65:
 529              	.LBE64:
 530              	.LBE63:
 531              		.loc 1 72 0
 532 0006 817F     		ldrb	r1, [r0, #30]	@ zero_extendqisi2
 533              	.LBB67:
 534              	.LBB68:
 535              	.LBB69:
 536              	.LBB70:
 537              	.LBB71:
 538              		.loc 2 546 0
 539 0008 0023     		movs	r3, #0
 540              	.LBE71:
 541              	.LBE70:
 542              	.LBE69:
 543              	.LBE68:
 544              	.LBE67:
 545              		.loc 1 72 0
 546 000a 4A1C     		adds	r2, r1, #1
 547 000c 8277     		strb	r2, [r0, #30]
 548              	.LVL1:
ARM GAS  /tmp/ccuGx7KI.s 			page 40


 549              	.LBB76:
 550              	.LBB75:
 551              	.LBB74:
 552              	.LBB73:
 553              	.LBB72:
 554              		.loc 2 546 0
 555              	@ 546 "../ChibiOS/os/ext/CMSIS/include/core_cmFunc.h" 1
 556 000e 83F31188 		MSR basepri, r3
 557              	@ 0 "" 2
 558              		.thumb
 559              	.LBE72:
 560              	.LBE73:
 561              	.LBE74:
 562              	.LBE75:
 563              	.LBE76:
 564              		.loc 1 75 0
 565 0012 7047     		bx	lr
 566              		.cfi_endproc
 567              	.LFE170:
 568              		.size	chThdAddRef, .-chThdAddRef
 569 0014 AFF30080 		.section	.text.chThdRelease,"ax",%progbits
 569      AFF30080 
 569      AFF30080 
 570              		.align	2
 571              		.p2align 4,,15
 572              		.global	chThdRelease
 573              		.thumb
 574              		.thumb_func
 575              		.type	chThdRelease, %function
 576              	chThdRelease:
 577              	.LFB171:
 578              		.loc 1 90 0
 579              		.cfi_startproc
 580              		@ args = 0, pretend = 0, frame = 0
 581              		@ frame_needed = 0, uses_anonymous_args = 0
 582              		@ link register save eliminated.
 583              	.LVL2:
 584              		.loc 1 90 0
 585 0000 0146     		mov	r1, r0
 586              	.LBB97:
 587              	.LBB98:
 588              	.LBB99:
 589              	.LBB100:
 590              		.loc 2 546 0
 591 0002 2023     		movs	r3, #32
 592              	@ 546 "../ChibiOS/os/ext/CMSIS/include/core_cmFunc.h" 1
 593 0004 83F31188 		MSR basepri, r3
 594              	@ 0 "" 2
 595              		.thumb
 596              	.LBE100:
 597              	.LBE99:
 598              	.LBE98:
 599              	.LBE97:
 600              		.loc 1 95 0
 601 0008 827F     		ldrb	r2, [r0, #30]	@ zero_extendqisi2
 602 000a 531E     		subs	r3, r2, #1
 603 000c DBB2     		uxtb	r3, r3
ARM GAS  /tmp/ccuGx7KI.s 			page 41


 604 000e 8377     		strb	r3, [r0, #30]
 605              	.LVL3:
 606              	.LBB101:
 607              	.LBB102:
 608              	.LBB103:
 609              	.LBB104:
 610              	.LBB105:
 611              		.loc 2 546 0
 612 0010 0022     		movs	r2, #0
 613              	@ 546 "../ChibiOS/os/ext/CMSIS/include/core_cmFunc.h" 1
 614 0012 82F31188 		MSR basepri, r2
 615              	@ 0 "" 2
 616              		.thumb
 617              	.LBE105:
 618              	.LBE104:
 619              	.LBE103:
 620              	.LBE102:
 621              	.LBE101:
 622              		.loc 1 101 0
 623 0016 13B9     		cbnz	r3, .L2
 624              		.loc 1 101 0 is_stmt 0 discriminator 1
 625 0018 037F     		ldrb	r3, [r0, #28]	@ zero_extendqisi2
 626              	.LVL4:
 627 001a 0F2B     		cmp	r3, #15
 628 001c 00D0     		beq	.L7
 629              	.L2:
 630 001e 7047     		bx	lr
 631              	.L7:
 632              		.loc 1 102 0 is_stmt 1
 633 0020 427F     		ldrb	r2, [r0, #29]	@ zero_extendqisi2
 634 0022 02F00303 		and	r3, r2, #3
 635 0026 012B     		cmp	r3, #1
 636 0028 09D0     		beq	.L4
 637 002a 022B     		cmp	r3, #2
 638 002c F7D1     		bne	.L2
 639              	.LVL5:
 640              	.LBB106:
 641              	.LBB107:
 642              		.loc 1 114 0
 643 002e 4369     		ldr	r3, [r0, #20]
 644 0030 0269     		ldr	r2, [r0, #16]
 645              		.loc 1 116 0
 646 0032 006C     		ldr	r0, [r0, #64]
 647              	.LVL6:
 648              		.loc 1 114 0
 649 0034 1A61     		str	r2, [r3, #16]
 650 0036 0A69     		ldr	r2, [r1, #16]
 651 0038 5361     		str	r3, [r2, #20]
 652              	.LBE107:
 653              	.LBE106:
 654              		.loc 1 121 0
 655              	.LBB109:
 656              	.LBB108:
 657              		.loc 1 116 0
 658 003a FFF7FEBF 		b	chPoolFree
 659              	.LVL7:
 660              	.L4:
ARM GAS  /tmp/ccuGx7KI.s 			page 42


 661              	.LBE108:
 662              	.LBE109:
 663              		.loc 1 106 0
 664 003e 4369     		ldr	r3, [r0, #20]
 665 0040 0269     		ldr	r2, [r0, #16]
 666 0042 1A61     		str	r2, [r3, #16]
 667 0044 0169     		ldr	r1, [r0, #16]
 668 0046 4B61     		str	r3, [r1, #20]
 669              		.loc 1 121 0
 670              		.loc 1 108 0
 671 0048 FFF7FEBF 		b	chHeapFree
 672              	.LVL8:
 673              		.cfi_endproc
 674              	.LFE171:
 675              		.size	chThdRelease, .-chThdRelease
 676 004c AFF30080 		.section	.text.chThdCreateFromHeap,"ax",%progbits
 677              		.align	2
 678              		.p2align 4,,15
 679              		.global	chThdCreateFromHeap
 680              		.thumb
 681              		.thumb_func
 682              		.type	chThdCreateFromHeap, %function
 683              	chThdCreateFromHeap:
 684              	.LFB172:
 685              		.loc 1 147 0
 686              		.cfi_startproc
 687              		@ args = 4, pretend = 0, frame = 0
 688              		@ frame_needed = 0, uses_anonymous_args = 0
 689              	.LVL9:
 690 0000 F0B5     		push	{r4, r5, r6, r7, lr}
 691              	.LCFI0:
 692              		.cfi_def_cfa_offset 20
 693              		.cfi_offset 4, -20
 694              		.cfi_offset 5, -16
 695              		.cfi_offset 6, -12
 696              		.cfi_offset 7, -8
 697              		.cfi_offset 14, -4
 698 0002 83B0     		sub	sp, sp, #12
 699              	.LCFI1:
 700              		.cfi_def_cfa_offset 32
 701              		.loc 1 147 0
 702 0004 0D46     		mov	r5, r1
 703 0006 1746     		mov	r7, r2
 704 0008 1E46     		mov	r6, r3
 705              		.loc 1 151 0
 706 000a FFF7FEFF 		bl	chHeapAlloc
 707              	.LVL10:
 708              		.loc 1 152 0
 709 000e 0446     		mov	r4, r0
 710 0010 90B1     		cbz	r0, .L9
 711              	.LVL11:
 712              	.LBB110:
 713              	.LBB111:
 714              	.LBB112:
 715              	.LBB113:
 716              		.loc 2 546 0
 717 0012 2023     		movs	r3, #32
ARM GAS  /tmp/ccuGx7KI.s 			page 43


 718              	@ 546 "../ChibiOS/os/ext/CMSIS/include/core_cmFunc.h" 1
 719 0014 83F31188 		MSR basepri, r3
 720              	@ 0 "" 2
 721              		.thumb
 722              	.LBE113:
 723              	.LBE112:
 724              	.LBE111:
 725              	.LBE110:
 726              		.loc 1 165 0
 727 0018 089C     		ldr	r4, [sp, #32]
 728 001a 2946     		mov	r1, r5
 729 001c 3A46     		mov	r2, r7
 730 001e 3346     		mov	r3, r6
 731 0020 0094     		str	r4, [sp, #0]
 732 0022 FFF7FEFF 		bl	chThdCreateI
 733              	.LVL12:
 734              		.loc 1 166 0
 735 0026 0121     		movs	r1, #1
 736 0028 4177     		strb	r1, [r0, #29]
 737              		.loc 1 167 0
 738 002a 0021     		movs	r1, #0
 739              		.loc 1 165 0
 740 002c 0446     		mov	r4, r0
 741              	.LVL13:
 742              		.loc 1 167 0
 743 002e FFF7FEFF 		bl	chSchWakeupS
 744              	.LVL14:
 745              	.LBB114:
 746              	.LBB115:
 747              	.LBB116:
 748              	.LBB117:
 749              	.LBB118:
 750              		.loc 2 546 0
 751 0032 0020     		movs	r0, #0
 752              	@ 546 "../ChibiOS/os/ext/CMSIS/include/core_cmFunc.h" 1
 753 0034 80F31188 		MSR basepri, r0
 754              	@ 0 "" 2
 755              	.LVL15:
 756              		.thumb
 757              	.L9:
 758              	.LBE118:
 759              	.LBE117:
 760              	.LBE116:
 761              	.LBE115:
 762              	.LBE114:
 763              		.loc 1 170 0
 764 0038 2046     		mov	r0, r4
 765 003a 03B0     		add	sp, sp, #12
 766 003c F0BD     		pop	{r4, r5, r6, r7, pc}
 767              		.cfi_endproc
 768              	.LFE172:
 769              		.size	chThdCreateFromHeap, .-chThdCreateFromHeap
 770 003e 00BF     		.section	.text.chThdCreateFromMemoryPool,"ax",%progbits
 771              		.align	2
 772              		.p2align 4,,15
 773              		.global	chThdCreateFromMemoryPool
 774              		.thumb
ARM GAS  /tmp/ccuGx7KI.s 			page 44


 775              		.thumb_func
 776              		.type	chThdCreateFromMemoryPool, %function
 777              	chThdCreateFromMemoryPool:
 778              	.LFB173:
 779              		.loc 1 197 0
 780              		.cfi_startproc
 781              		@ args = 0, pretend = 0, frame = 0
 782              		@ frame_needed = 0, uses_anonymous_args = 0
 783              	.LVL16:
 784 0000 2DE9F041 		push	{r4, r5, r6, r7, r8, lr}
 785              	.LCFI2:
 786              		.cfi_def_cfa_offset 24
 787              		.cfi_offset 4, -24
 788              		.cfi_offset 5, -20
 789              		.cfi_offset 6, -16
 790              		.cfi_offset 7, -12
 791              		.cfi_offset 8, -8
 792              		.cfi_offset 14, -4
 793 0004 82B0     		sub	sp, sp, #8
 794              	.LCFI3:
 795              		.cfi_def_cfa_offset 32
 796              		.loc 1 197 0
 797 0006 0546     		mov	r5, r0
 798 0008 8846     		mov	r8, r1
 799 000a 1746     		mov	r7, r2
 800 000c 1E46     		mov	r6, r3
 801              		.loc 1 203 0
 802 000e FFF7FEFF 		bl	chPoolAlloc
 803              	.LVL17:
 804              		.loc 1 204 0
 805 0012 0446     		mov	r4, r0
 806 0014 90B1     		cbz	r0, .L12
 807              	.LVL18:
 808              	.LBB119:
 809              	.LBB120:
 810              	.LBB121:
 811              	.LBB122:
 812              		.loc 2 546 0
 813 0016 2023     		movs	r3, #32
 814              	@ 546 "../ChibiOS/os/ext/CMSIS/include/core_cmFunc.h" 1
 815 0018 83F31188 		MSR basepri, r3
 816              	@ 0 "" 2
 817              		.thumb
 818              	.LBE122:
 819              	.LBE121:
 820              	.LBE120:
 821              	.LBE119:
 822              		.loc 1 217 0
 823 001c 6968     		ldr	r1, [r5, #4]
 824 001e 4246     		mov	r2, r8
 825 0020 3B46     		mov	r3, r7
 826 0022 0096     		str	r6, [sp, #0]
 827 0024 FFF7FEFF 		bl	chThdCreateI
 828              	.LVL19:
 829              		.loc 1 218 0
 830 0028 0221     		movs	r1, #2
 831 002a 4177     		strb	r1, [r0, #29]
ARM GAS  /tmp/ccuGx7KI.s 			page 45


 832              		.loc 1 219 0
 833 002c 0564     		str	r5, [r0, #64]
 834              		.loc 1 220 0
 835 002e 0021     		movs	r1, #0
 836              		.loc 1 217 0
 837 0030 0446     		mov	r4, r0
 838              	.LVL20:
 839              		.loc 1 220 0
 840 0032 FFF7FEFF 		bl	chSchWakeupS
 841              	.LVL21:
 842              	.LBB123:
 843              	.LBB124:
 844              	.LBB125:
 845              	.LBB126:
 846              	.LBB127:
 847              		.loc 2 546 0
 848 0036 0020     		movs	r0, #0
 849              	@ 546 "../ChibiOS/os/ext/CMSIS/include/core_cmFunc.h" 1
 850 0038 80F31188 		MSR basepri, r0
 851              	@ 0 "" 2
 852              	.LVL22:
 853              		.thumb
 854              	.L12:
 855              	.LBE127:
 856              	.LBE126:
 857              	.LBE125:
 858              	.LBE124:
 859              	.LBE123:
 860              		.loc 1 223 0
 861 003c 2046     		mov	r0, r4
 862 003e 02B0     		add	sp, sp, #8
 863 0040 BDE8F081 		pop	{r4, r5, r6, r7, r8, pc}
 864              		.cfi_endproc
 865              	.LFE173:
 866              		.size	chThdCreateFromMemoryPool, .-chThdCreateFromMemoryPool
 867 0044 AFF30080 		.text
 867      AFF30080 
 867      AFF30080 
 868              	.Letext0:
 869              		.file 3 "/home/laurence/ARM-GCC/bin/../lib/gcc/arm-none-eabi/4.7.4/include/stddef.h"
 870              		.file 4 "/home/laurence/ARM-GCC/bin/../lib/gcc/arm-none-eabi/4.7.4/../../../../arm-none-eabi/inclu
 871              		.file 5 "../ChibiOS/os/rt/ports/ARMCMx/compilers/GCC/chtypes.h"
 872              		.file 6 "../ChibiOS/os/rt/include/chsystypes.h"
 873              		.file 7 "../ChibiOS/os/rt/include/chschd.h"
 874              		.file 8 "../ChibiOS/os/rt/ports/ARMCMx/chcore.h"
 875              		.file 9 "../ChibiOS/os/rt/ports/ARMCMx/chcore_v7m.h"
 876              		.file 10 "../ChibiOS/os/rt/include/chtm.h"
 877              		.file 11 "../ChibiOS/os/rt/include/chmtx.h"
 878              		.file 12 "../ChibiOS/os/rt/include/chthreads.h"
 879              		.file 13 "../ChibiOS/os/rt/include/chmemcore.h"
 880              		.file 14 "../ChibiOS/os/rt/include/chheap.h"
 881              		.file 15 "../ChibiOS/os/rt/include/chmempools.h"
 882              		.file 16 "../ChibiOS/os/rt/include/chsys.h"
 883              		.file 17 "../ChibiOS/os/ext/CMSIS/include/core_cm3.h"