ARM GAS  /tmp/ccxZg1j1.s 			page 1


   1              		.syntax unified
   2              		.cpu cortex-m3
   3              		.fpu softvfp
   4              		.eabi_attribute 20, 1
   5              		.eabi_attribute 21, 1
   6              		.eabi_attribute 23, 3
   7              		.eabi_attribute 24, 1
   8              		.eabi_attribute 25, 1
   9              		.eabi_attribute 26, 1
  10              		.eabi_attribute 30, 2
  11              		.eabi_attribute 34, 1
  12              		.eabi_attribute 18, 4
  13              		.thumb
  14              		.file	"chheap.c"
  15              		.text
  16              	.Ltext0:
  17              		.section	.gnu.lto_.jmpfuncs.a4793cfbb9fd47c2,"",%progbits
  18 0000 789C6362 		.ascii	"x\234cb`d`g\300\016|\201X\036\210Y\031\030\030\231\252"
  18      60646067 
  18      C00E7C81 
  18      581E8859 
  18      19181899 
  19 0015 187E3670 		.ascii	"\030~6p\244220j3h\245222g22\3041\002%\217\355Z\254\002"
  19      A4323230 
  19      6A3368A5 
  19      32323267 
  19      3232C431 
  20 0030 A4560015 		.ascii	"\244V\000\02510\2613\26260\002e\031\230\231\201*\301"
  20      3130B133 
  20      B2363002 
  20      65199899 
  20      812AC1
  21 0043 B09E8181 		.ascii	"\260\236\201\201\205\021\304`\005\0131\310\351\351\351"
  21      8511C460 
  21      050B31C8 
  21      E9E9E9
  22 0052 3B676426 		.ascii	";gd&e\372\007\353\347\027\353\027\225\350\027\027%\353"
  22      65FA07EB 
  22      E717EB17 
  22      95E81717 
  22      25EB
  23 0064 276764A4 		.ascii	"'gd\244&\026\350%3\000\000\205\"\022\336"
  23      2616E825 
  23      33000085 
  23      2212DE
  24              		.text
  25              		.section	.gnu.lto_.inline.a4793cfbb9fd47c2,"",%progbits
  26 0000 789C6362 		.ascii	"x\234cb`d\340e\300\016T\030!4+\003\003\207\000#\003"
  26      6064E065 
  26      C00E5418 
  26      21342B03 
  26      03870023 
  27 0015 13DB073D 		.ascii	"\023\333\007=\006\266\005\362L\014L\334\014@mL\014<"
  27      06B605F2 
  27      4C0C4CDC 
  27      0C406D4C 
  27      0C3C
ARM GAS  /tmp/ccxZg1j1.s 			page 2


  28 0027 228C4C4C 		.ascii	"\"\214LL E@\314\302\332\241\316\300\275\302\015({\201"
  28      204540CC 
  28      C2DAA1CE 
  28      C0BDC20D 
  28      287B81
  29 003a 9F054470 		.ascii	"\237\005Dp@\324M\360cf0:\313\300\310\302\220*\311\220"
  29      40D44DF0 
  29      6366303A 
  29      CBC0C8C2 
  29      902AC990 
  30 004e CAC80432 		.ascii	"\312\310\00421\015\316\002\352d\004\351\266Y\265\234"
  30      310DCE02 
  30      EA6404E9 
  30      B659B59C 
  31 005e 156238CB 		.ascii	"\025b8\313\002y\001\006\216\033z\0120\355\250\024\253"
  31      02790106 
  31      8E1B7A0A 
  31      30EDA814 
  31      AB
  32 006f 20986261 		.ascii	" \230ba\320\333\307\010\324\011\324\313\354r\352\253"
  32      D0DBC708 
  32      D409D4CB 
  32      EC72EAAB 
  33 007f 3003DF0C 		.ascii	"0\003\337\014g\230\325\250\352\031D\35630\262a\263\234"
  33      6798D5A8 
  33      EA1944EE 
  33      3330B261 
  33      B39C
  34 0091 11CC6206 		.ascii	"\021\314b\006\261Ra,\230\203\330\004Z\2328\340\016r"
  34      B152612C 
  34      9883D804 
  34      5A9A38E0 
  34      0E72
  35 00a3 00110D40 		.ascii	"\000\021\015@\333\232\330\005\230\300$\232-\014\000"
  35      DB9AD805 
  35      98C0249A 
  35      2D0C00
  36 00b2 43982468 		.ascii	"C\230$h"
  37              		.text
  38              		.section	.gnu.lto_.pureconst.a4793cfbb9fd47c2,"",%progbits
  39 0000 789C6362 		.ascii	"x\234cb`d`f``\340f\200\000V\006\011&)f)\026)V)\000\004"
  39      60646066 
  39      6060E066 
  39      80005606 
  39      09262966 
  40 001b 6B00A5   		.ascii	"k\000\245"
  41              		.text
  42              		.section	.gnu.lto__heap_init.a4793cfbb9fd47c2,"",%progbits
  43 0000 789CAD51 		.ascii	"x\234\255Q=K\303P\024\275\347\275|U\035\334\244\213"
  43      3D4BC350 
  43      14BDE7BD 
  43      7C551DDC 
  43      A48B
  44 0012 74564856 		.ascii	"tVHVw\177\200\2508\332\242!\220LJ\353\344\222X\034:"
  44      777F80A8 
  44      38DAA221 
  44      904C4AEB 
ARM GAS  /tmp/ccxZg1j1.s 			page 3


  44      E492581C 
  45 0027 BA9A2CE2 		.ascii	"\272\232,\342T\004\177\203\016N\245trp\024\\:9u\260"
  45      54047F83 
  45      0E4EA574 
  45      7270145C 
  45      3A3975B0 
  46 003b 22E87D1F 		.ascii	"\"\350}\037-\005\027\007\363\310;'\367\275s\317\315"
  46      2D051707 
  46      F3C83B27 
  46      F7BD73CF 
  46      CD
  47 004c BD82C0EB 		.ascii	"\275\202\300\353\367S\347w\314\007\015FH\202\270\032"
  47      F753E777 
  47      CC070D46 
  47      4882B81A 
  48 005c 115D3404 		.ascii	"\021]4\004\240\010Kr\201\374\300(\007\367ok\223\312"
  48      A0084B72 
  48      81FCC028 
  48      07F76F6B 
  48      93CA
  49 006e 7B108FAF 		.ascii	"{\020\217\257\3379\221\307!\227.\213b\225Z6\365\256"
  49      DF3991C7 
  49      21972E8B 
  49      62955A36 
  49      F5AE
  50 0080 4225DC83 		.ascii	"B%\334\203\320D\016\250;\225\223\362\035\207\270\201"
  50      D0440EA8 
  50      3B9593F2 
  50      1D87B881 
  51 0090 4B9BB491 		.ascii	"K\233\264\221\200dI\327H\000qN\323\"H \220\231\352\352"
  51      806449D7 
  51      4800714E 
  51      D3224820 
  51      9099EAEA 
  52 00a4 9428A1E6 		.ascii	"\224(\241\346M\265}H\336\354-\211\026\360\342\233R\250"
  52      4DB57D48 
  52      DEEC2D89 
  52      16F0E29B 
  52      52A8
  53 00b6 BBF555DE 		.ascii	"\273\365U\336\212\205\254\216\324\340\032\360\014\370"
  53      8A85AC8E 
  53      D4E01AF0 
  53      0CF8
  54 00c4 7FB482B5 		.ascii	"\177\264\202\265j\252\330\330\325\214\277{\276f\016"
  54      6AAAD8D8 
  54      D58CBF7B 
  54      BE660E
  55 00d3 51DFB71A 		.ascii	"Q\337\267\032g\356\377T}.\376U\360o\306\2565V7\003m"
  55      67EEFF54 
  55      7D2EFE55 
  55      F06FC6AE 
  55      35563703 
  56 00e8 3724E7B9 		.ascii	"7$\347\271\272\263n\363\206\324\270!\302t\336F\226\240"
  56      BAB36EF3 
  56      86D4B821 
  56      C274DE46 
  56      96A0
ARM GAS  /tmp/ccxZg1j1.s 			page 4


  57 00fa CD97257B 		.ascii	"\315\227%{5\301\003\352\325\370\260\2574\011V\210F\004"
  57      35C103EA 
  57      D5F8B0AF 
  57      34095688 
  57      4604
  58 010c 1EE02CCD 		.ascii	"\036\340,\315lf\320\243R5\255\207a\264\235f\307\331"
  58      6C66D0A3 
  58      5235AD87 
  58      61B49D66 
  58      C7D9
  59 011e CE7E74D2 		.ascii	"\316~t\322\211\332gQ\247\035Gq\232&G\247aL?W$aO"
  59      89DA6751 
  59      A71D4771 
  59      9A2647A7 
  59      614C3F57 
  60              		.text
  61              		.section	.gnu.lto_chHeapObjectInit.a4793cfbb9fd47c2,"",%progbits
  62 0000 789CA553 		.ascii	"x\234\245S1k\024A\024\376\336\314\316n\324\\.\225p\215"
  62      316B1441 
  62      14FEDECC 
  62      CE6ED45C 
  62      2E95708D 
  63 0014 9EE1AA08 		.ascii	"\236\341\252\010\267`\225\336\306T\242\"\330\\\202Y"
  63      B76095DE 
  63      C654A222 
  63      D85C8259 
  64 0024 56EE2A8F 		.ascii	"V\356*\217\234\026\271\346\326K\212\224\301\312\004"
  64      9C16B9E6 
  64      D64B8A94 
  64      C1CA04
  65 0033 6E353184 		.ascii	"n51\204#? H\032\005E$\204T)\257\010\232\302\302\322"
  65      233F2048 
  65      1A054524 
  65      845429AF 
  65      089AC2C2 
  66 0048 22695CDF 		.ascii	"\"i\\\337\314\354\206\223;N\301Y\226\357\355\316\373"
  66      CCEC8693 
  66      3B4EC159 
  66      96EFEDCE 
  66      FB
  67 0059 BE6FE6CD 		.ascii	"\276o\346\315\033\001\342gp\024\370-:\300-F\222 \261"
  67      1B01E267 
  67      7014F82D 
  67      3AC02D46 
  67      9220B1
  68 006c 7604BC28 		.ascii	"v\004\274(\012\"\0350\245%\250\365\3200\345\0246\243"
  68      0A221D30 
  68      A525A8F5 
  68      D030E514 
  68      36A3
  69 007e E8E5DAC7 		.ascii	"\350\345\332\307\366\235\366I\222\\\017\365\337y\302"
  69      F69DF649 
  69      925C0FF5 
  69      DF79C2
  70 008d C18F6F57 		.ascii	"\301\217oW\013\010\211P\204F\001\347O\217\001\2364\274"
  70      0B088950 
  70      844601E7 
ARM GAS  /tmp/ccxZg1j1.s 			page 5


  70      4F8F019E 
  70      34BC
  71 009f 9FF12EFD 		.ascii	"\237\361.\375\013o9\312x\216\300\015\322\324\323\316"
  71      0B6F39CA 
  71      788EC00D 
  71      D2D4D3CE 
  72 00af FE686AAF 		.ascii	"\376hj\257\2637~\374\332}/>\234$\255\022\336\246:!)"
  72      B3377EFC 
  72      DA7D2F3E 
  72      9C24AD12 
  72      DEA63A21 
  73 00c4 819291E8 		.ascii	"\201\222\221\350u\366\305\240\204\350\317u\005\246M"
  73      75F6C5A0 
  73      84E8CF75 
  73      05A64D
  74 00d3 EEBBDC10 		.ascii	"\356\273\334\0203\236G\177\266'P6\331g\371\241\331\036"
  74      339E477F 
  74      B6275036 
  74      D967F9A1 
  74      D91E
  75 00e5 BF0A1344 		.ascii	"\277\012\023D\025\332\246\022\004\343\016\243\303\330"
  75      15DAA612 
  75      04E30EA3 
  75      C3D8
  76 00f3 6554A8D0 		.ascii	"eT\250\320\033\232\202\313\270\311\310Ca%\212&E\205"
  76      1B9A82CB 
  76      B8C9C843 
  76      61258A26 
  76      4585
  77 0105 B6F8BB66 		.ascii	"\266\370\273f\264\315\270\247Q\037\317}V\327\201<@{"
  77      B4CDB8A7 
  77      511FCF7D 
  77      56D7813C 
  77      407B
  78 0117 E653BCC7 		.ascii	"\346S\274\307R\273\354q\023\323!\215\311\015\254SH\227"
  78      52BBEC71 
  78      13D3218D 
  78      C90DAC53 
  78      4897
  79 0129 4440A656 		.ascii	"D@\246V\212I\253\\y\314e}\240\377^6\321g\210\303\370"
  79      8A49AB5C 
  79      79CC657D 
  79      A0FF5E36 
  79      D16788C3 
  80 013e 574AB77E 		.ascii	"WJ\267~\201\326f\335\331\256\327\247\352H\003W,\214"
  80      81D666DD 
  80      D9AED7A7 
  80      EA480357 
  80      2C8C
  81 0150 5BC88DB0 		.ascii	"[\310\215\260J\275\346\264\332\2522\021Otm\304\225\371"
  81      4ABDE6B4 
  81      DAAA3211 
  81      4F746DC4 
  81      95F9
  82 0162 A2A3CC6B 		.ascii	"\242\243\314k\3468\376\332\277\007\357\177lTjS0\265"
  82      E638FEDA 
  82      BF07EF7F 
ARM GAS  /tmp/ccxZg1j1.s 			page 6


  82      6C546A53 
  82      30B5
  83 0174 D7433BF4 		.ascii	"\327C;\364\342-\032\261\037\353\220c\007\323\034\372"
  83      E22D1AB1 
  83      1FEB9063 
  83      07D31CFA 
  84 0184 E81E65BA 		.ascii	"\350\036e\272\310V\237z\362dW\246\006Nj\260\334:\275"
  84      C8569F7A 
  84      F26457A6 
  84      064E6AB0 
  84      DC3ABD
  85 0197 38868054 		.ascii	"8\206\200T@\216\265?K\222$o\2270\373]\016\333\342\337"
  85      408EB53F 
  85      4B92246F 
  85      9730FB5D 
  85      0EDBE2DF 
  86 01ab 9D55EA1C 		.ascii	"\235U\352\034\350\210\205\316\245\276A\231\227\333\304"
  86      E88885CE 
  86      A5BE4199 
  86      97DBC4
  87 01ba 12DF2C32 		.ascii	"\022\337,2r\023\303J\365\31232\256\3253\265\001\016"
  87      7213C34A 
  87      F5CA3332 
  87      AED533B5 
  87      010E
  88 01cc B93DAD04 		.ascii	"\271=\255\004\320\304y4\026R\236\346)-(\313\2064\011"
  88      D0C47934 
  88      16529EE6 
  88      292D28CB 
  88      863409
  89 01df 1C81F836 		.ascii	"\034\201\3706eyY\027\222i>\275\276k\345\262\177\273"
  89      65795917 
  89      92693EBD 
  89      BE6BE5B2 
  89      7FBB
  90 01f1 5A5BA8DD 		.ascii	"Z[\250\335}\340?m\370\213\317\374\306b\340\007\325j"
  90      7DE03F6D 
  90      F88BCFFC 
  90      C662E007 
  90      D56A
  91 0203 F8B85E0E 		.ascii	"\370\270^\016 \252u\245\303\272\\x\376\304i\324\232"
  91      20AA75A5 
  91      C3BA5C78 
  91      FEC469D4 
  91      9A
  92 0214 E16F3C84 		.ascii	"\341o<\204\310F"
  92      C846
  93              		.text
  94              		.section	.gnu.lto_chHeapAlloc.a4793cfbb9fd47c2,"",%progbits
  95 0000 789CC557 		.ascii	"x\234\305W\315K\\W\024?\347\336\36753\276\031\253$\304"
  95      CD4B5C57 
  95      143FE7DE 
  95      F73533BE 
  95      19AB24C4 
  96 0014 06A73604 		.ascii	"\006\2476\004\022R\352H\351_\320lZ\262(\265t\023H\245"
  96      1252EA48 
  96      E95FD06C 
ARM GAS  /tmp/ccxZg1j1.s 			page 7


  96      5AB228B5 
  96      741348A5 
  97 0028 0E13C62C 		.ascii	"\016\023\306,Z\253\245P7N5\213\241t\021\272\262\245"
  97      5AABA550 
  97      374E358B 
  97      A17411BA 
  97      B2A5
  98 003a 8BA4A9A9 		.ascii	"\213\244\251\251\216\216\2226\013\343\246\301\030\021"
  98      8E8E9236 
  98      0BE3A6C1 
  98      1811
  99 0048 19A40B09 		.ascii	"\031\244\013\011Y\270\310bH\263\220\256B0T:=\367\334"
  99      59B8C862 
  99      48B390AE 
  99      4230543A 
  99      3DF7DC
 100 005b 779F6FE2 		.ascii	"w\237o\342\347H\241O\306\363\356\307\371\235\337\371"
 100      E748A14F 
 100      C6F3EEC7 
 100      F99DDFF9 
 101 006b B867EE08 		.ascii	"\270g\356\010@\372\333\371\334\241\217\343\003\274M"
 101      40FADBF9 
 101      DCA18FE3 
 101      03BC4D
 102 007a 125380E2 		.ascii	"\022S\200\342\332*\300\327\035B\310\365\004\024\316"
 102      DA2AC0D7 
 102      1D42C8F5 
 102      0414CE
 103 0089 5A771600 		.ascii	"Zw\026\000\012]\022-=oa\\\277\330\302\331\214\323\206"
 103      0A5D122D 
 103      3D6F615C 
 103      BFD8C2D9 
 103      8CD386
 104 009c F8D87D80 		.ascii	"\370\330}\200\353]\216p\213gh\350\251\377].\306\364"
 104      EB5D8E70 
 104      8B6768E8 
 104      A9FF5D2E 
 104      C6F4
 105 00ae 2ECFBCC4 		.ascii	".\317\274\3040\251_\342\302^]!\310\263\211\005I;\023"
 105      30A95FE2 
 105      C25E5D21 
 105      C8B38905 
 105      493B13
 106 00c1 A2698987 		.ascii	"\242i\211\207\311\0255l\022\376\037\025\036\336C\032"
 106      C915356C 
 106      12FE1F15 
 106      1EDE431A 
 107 00d1 FA462B89 		.ascii	"\372F+\211\250^\310\203a!-\333q\275X<\321\344'q\370"
 107      A85EC883 
 107      61212DDB 
 107      71BD583C 
 107      D1E42771 
 108 00e6 2376AAE9 		.ascii	"#v\252\351\024\334(\024\276\273v\177\344\335\221\307"
 108      14DC2814 
 108      BEBB767F 
 108      E4DD91C7 
 109 00f6 B5DA6B39 		.ascii	"\265\332k95\333\203\260R\032\367\333 \207\010\035\240"
ARM GAS  /tmp/ccxZg1j1.s 			page 8


 109      35DB83B0 
 109      521AF7DB 
 109      2087081D 
 109      A0
 110 0107 A400ABDE 		.ascii	"\244\000\253\336\375\035z\222\365\252\245dcj\332\334"
 110      FD1D7A92 
 110      F5AAA564 
 110      636ADADC 
 111 0117 E2D4D051 		.ascii	"\342\324\320Q\324*S\317\2611=\213\3656\246\376iPO\333"
 111      D42A53CF 
 111      B1313D8B 
 111      F536A6FE 
 111      69504FDB 
 112 012b 5B9F7E2E 		.ascii	"[\237~.\217\242\007G!\371\254t\253A\222\266&93p\030"
 112      8FA20747 
 112      21F9AC74 
 112      AB4192B6 
 112      26393370 
 113 0140 B5D14268 		.ascii	"\265\321BhN\300\353\310a\231\234?\224\305:\325\323\254"
 113      4EC0EBC8 
 113      61999C3F 
 113      94C53AD5 
 113      D3AC
 114 0152 3AE736AC 		.ascii	":\3476\254x\206\025\213\261}\025\253\223\363rc\326\371"
 114      7886158B 
 114      B17D15AB 
 114      93F37263 
 114      D6F9
 115 0164 5DDC7B5C 		.ascii	"]\334{\\\033>\0157\003\224\034:\002\3161@u\262$vB`t"
 115      1B3E0D37 
 115      03941C3A 
 115      02CE3140 
 115      75B22476 
 116 017b AF2BA04B 		.ascii	"\257+\240K\033\333\255\246i\235>\016\274\205p\011gI"
 116      1BDBADA6 
 116      699D3E0E 
 116      BC857009 
 116      6749
 117 018d 51909CC4 		.ascii	"Q\220\234\304S IN\221\264P\317;$o\223ti\376:\315{\240"
 117      5320494E 
 117      91B450CF 
 117      3B246F93 
 117      7469FE3A 
 118 01a4 C7B1607F 		.ascii	"\307\261`\177\234\344\015\222\011\222\277\220\364I\376"
 118      9CE40D92 
 118      0992BF90 
 118      F449FE
 119 01b3 443245F2 		.ascii	"D2E\362&\311f\222?\223l!Y&\331\032\214\217\221\034'"
 119      26C96692 
 119      3F936C21 
 119      5926D91A 
 119      8C8F911C 
 120 01c8 799CE42D 		.ascii	"y\234\344-\222'\002\273'IN\220l\017\364\323\301|G \351"
 120      922702BB 
 120      27494E90 
 120      6C0FF4D3 
 120      C17C4720 
ARM GAS  /tmp/ccxZg1j1.s 			page 9


 121 01dd B1E16AA1 		.ascii	"\261\341j\241\320,\265}=\253\261{\202\226\365\201\222"
 121      D02CB57D 
 121      3DABB17B 
 121      8296F581 
 121      92
 122 01ee 7FFBD04D 		.ascii	"\177\373\320M\336\222\224\017`\361\011nM\276z\011\177"
 122      DE92940F 
 122      60F1096E 
 122      4DBE7A09 
 122      7F
 123 01ff A372C9A2 		.ascii	"\243r\311\242\325\306\276G\237nu\224\277\025r\011\304"
 123      D5C6BE47 
 123      9F6E7594 
 123      BF157209 
 123      C4
 124 0210 62E953BD 		.ascii	"b\351S\275Q\007`\010^\024<\332\216}\010\217dD\301bl"
 124      51076008 
 124      5E143CDA 
 124      8E7D088F 
 124      6444C162 
 125 0225 52206B7A 		.ascii	"R kzk\226\242\014+0:\274V\272bl\271Yt\3328\334.\360"
 125      6B96A20C 
 125      2B303ABC 
 125      56BA626C 
 125      B95974DA 
 126 023d E25D5994 		.ascii	"\342]Y\224f\321\243u\275\270Y\253\325R\264a\211\023"
 126      66D1A375 
 126      BDB859AB 
 126      D552B461 
 126      8913
 127 024f A1ADDF66 		.ascii	"\241\255\337fHOi\215\274\220\353\245\220\177l\010\276"
 127      484F698D 
 127      BC90EBA5 
 127      907F6C08 
 127      BE
 128 0260 A26AC237 		.ascii	"\242j\3027\340\\\016=\371\003|\2179\214\0112o\034{\252"
 128      E05C0E3D 
 128      F9037C8F 
 128      398C0932 
 128      6F1C7BAA 
 129 0274 887E6C3A 		.ascii	"\210~l:xQ\323&\354\274\301V\241#\240\000\233\032\230"
 129      7851D326 
 129      ECBCC156 
 129      A123A000 
 129      9B1A98
 130 0287 C18E33B6 		.ascii	"\301\2163\266\324\330\361\335\260\201\241\353\276\035"
 130      D4D8F1DD 
 130      B081A1EB 
 130      BE1D
 131 0295 2A54541A 		.ascii	"*TT\032\000L\274\022\330\203\301&\002\315a\223z{\010"
 131      004CBC12 
 131      D883C126 
 131      02CD6193 
 131      7A7B08
 132 02a8 48D11718 		.ascii	"H\321\027\030\215\351b\351KZ\221sR\305\324\006\244~"
 132      8DE962E9 
 132      4B5A9173 
ARM GAS  /tmp/ccxZg1j1.s 			page 10


 132      52C5D406 
 132      A47E
 133 02ba AF82BA55 		.ascii	"\257\202\272U\3525\\\247\230k\202\271^\244\246i\250"
 133      EA355CA7 
 133      986B82B9 
 133      5EA4A669 
 133      A8
 134 02cb FACCD195 		.ascii	"\372\314\321\225,\374\200\252GT\023\212\252*\3639\035"
 134      2CFC80AA 
 134      4754138A 
 134      AA2AF339 
 134      1D
 135 02dc 066148CB 		.ascii	"\006aH\313 2\000\017\340\352\023\334N\204\317q\336\316"
 135      2032000F 
 135      E0EA13DC 
 135      4E84CF71 
 135      DECE
 136 02ee 2DF97937 		.ascii	"-\371y7.U*U\2675\273R\264K\247\313c\210\305*ND!RQ\010"
 136      2E552A55 
 136      B735BB52 
 136      B44BA7CB 
 136      6388C52A 
 137 0308 4AF78FB6 		.ascii	"J\367\217\266T\224U\3435\273\232\231\254\2459'\367\241"
 137      549455E3 
 137      35BB9A99 
 137      ACA53927 
 137      F7A1
 138 031a 3EE1D653 		.ascii	">\341\326S\247\271Gz\212\202\274\351\362,\201\277\367"
 138      A7B9477A 
 138      8A82BCE9 
 138      F22C81BF 
 138      F7
 139 032b D4D6D007 		.ascii	"\324\326\320\007\340\212\275Bb\205\305B\270E\233\323"
 139      E08ABD42 
 139      6285C542 
 139      B8459BD3 
 140 033b D56C7CF0 		.ascii	"\325l|\360\002\037F\277\221\225\351\001\343C\013\321"
 140      021F46BF 
 140      9195E901 
 140      E3430BD1 
 141 034b 6467A3C5 		.ascii	"dg\243\305Z\346$\265\350$\255Mo{\334\372?y\334\322\210"
 141      5AE624B5 
 141      E824AD4D 
 141      6F7BDCFA 
 141      3F79DCD2 
 142 0360 C7AD7C34 		.ascii	"\307\255|4\213R}\327\031\342\307LY\2502\0003{\234\026"
 142      8B527DD7 
 142      19E2C74C 
 142      59A83200 
 142      337B9C16 
 143 0374 EA8FACE2 		.ascii	"\352\217\254\342\264\034\345\264KE\356I\306T$\001k\244"
 143      B41CE5B4 
 143      4B45EE49 
 143      C6542401 
 143      6BA4
 144 0386 EAF43CFE 		.ascii	"\352\364<\376\367\031\325y\271\2601\375+\356O\364\300"
 144      F719D579 
ARM GAS  /tmp/ccxZg1j1.s 			page 11


 144      B9B031FD 
 144      2BEE4FF4 
 144      C0
 145 0397 A3131E94 		.ascii	"\243\023\036\224n\325=\370\220\214\\\330\252\307u\016"
 145      6ED53DF8 
 145      908C5CD8 
 145      AAC7750E 
 146 03a7 4EF6D84E 		.ascii	"N\366\330N\322\313z\312\011\015!7\226J9\275Kk\021\365"
 146      D2CB7ACA 
 146      090D2137 
 146      964A39BD 
 146      4B6B11F5 
 147 03bb AD854B74 		.ascii	"\255\205Kt\355M\223\244\023\201%\001\346Twc\034\324"
 147      ED4D93A4 
 147      13812501 
 147      E6547763 
 147      1CD4
 148 03cd A530ECD7 		.ascii	"\2450\354\327\272\001\012]\257\352\326at\023\207\215"
 148      BA010A5D 
 148      AFEAD661 
 148      7413878D 
 149 03dd FBF24E17 		.ascii	"\373\362N\0276\303\270\217\331\246\315\374\211caI\205"
 149      36C3B88F 
 149      D9A6CDFC 
 149      89636149 
 149      85
 150 03ee EE9BE721 		.ascii	"\356\233\347!\020b\314\242\336N\213v\265\334\253\230"
 150      1062CCA2 
 150      DE4E8B76 
 150      B5DCAB98 
 151 03fe 52A75B90 		.ascii	"R\247[\220\222\\\337*'\017\343\372\310E\272\375\030"
 151      925CDF2A 
 151      270FE3FA 
 151      C845BAFD 
 151      18
 152 040f 13279970 		.ascii	"\023'\231pj\357\306\355\032\333\314-\037\352\251]\221"
 152      6AEFC6ED 
 152      1ADBCC2D 
 152      1FEAA95D 
 152      91
 153 0420 06C63123 		.ascii	"\006\3061#\370\262\3446X\235\371+\214P{]\033$\236\333"
 153      F8B2E436 
 153      589DF92B 
 153      8C507B5D 
 153      1B249EDB 
 154 0434 7D344D40 		.ascii	"}4M@\212Z{N5\221h\177\320M<\035\230\335\350\0145^\016"
 154      8A5A7B4E 
 154      3591687F 
 154      D04D3C1D 
 154      98DDE80C 
 155 044b 89B24BBF 		.ascii	"\211\262K\2770\306%W\326\263\231CVV\272\301\312\342"
 155      30C62557 
 155      D6B39943 
 155      5656BAC1 
 155      CAE2
 156 045d B29D291D 		.ascii	"\262\235)\035p\034\366D\225\001*\037\007ui\230\275\034"
 156      701CF644 
ARM GAS  /tmp/ccxZg1j1.s 			page 12


 156      95012A1F 
 156      07756998 
 156      BD1C
 157 046f F5F43CBC 		.ascii	"\365\364<\274\243\256{\001\300v\031\362\267me6m\274"
 157      A3AE7B01 
 157      C07619F2 
 157      B76D6536 
 157      6DBC
 158 0481 EF08BEC9 		.ascii	"\357\010\276\311_\262\370\012)\250,\023j$*I\276p\254"
 158      5FB2F80A 
 158      29A82C13 
 158      6A242A49 
 158      BE70AC
 159 0494 02869990 		.ascii	"\002\206\231\220\272\206$U|l\255L\301\357\360+\031\015"
 159      BA862455 
 159      7C6CAD4C 
 159      C1EFF02B 
 159      190D
 160 04a6 40BF72AA 		.ascii	"@\277r\252\263I\363N%E\267\"T\000\312\205tgg\346|\276"
 160      B349F34E 
 160      2545B722 
 160      5400CA85 
 160      746767E6 
 161 04bc AFB7EFFD 		.ascii	"\257\267\357\375\0173\237\015f\006\276\310\014\016d"
 161      0F339F0D 
 161      6606BEC8 
 161      0C0E64
 162 04cb 33D97C3E 		.ascii	"3\331|>\367I\177g\026\304\347\375\"\337/.\367\333j\242"
 162      F7497F67 
 162      16C4E7FD 
 162      22DF2F2E 
 162      F7DB6AA2 
 163 04df DF1AEC1B 		.ascii	"\337\032\354\033\312\375\013\236\267\202k"
 163      CAFD0B9E 
 163      B7826B
 164              		.text
 165              		.section	.gnu.lto_chHeapFree.a4793cfbb9fd47c2,"",%progbits
 166 0000 789CCD56 		.ascii	"x\234\315V\315o\033E\024\177of\327\273\353u\014m\324"
 166      CD6F1B45 
 166      147F6F66 
 166      D7BBEB75 
 166      0C6DD4
 167 0013 26A4090E 		.ascii	"&\244\011\016U\244\242\026\342\376\003\225\220\270\220"
 167      55A4A216 
 167      E2FE0395 
 167      90B890
 168 0022 136A1097 		.ascii	"\023j\020\227JiE-#\347\002&\345B/1.\207\250\247\212"
 168      4A69452D 
 168      23E70226 
 168      E5422F31 
 168      2E87A8A7 
 169 0037 03329C5A 		.ascii	"\0032\234Z\012!\264|TQ\204\034\333\001T\014\262,+'\253"
 169      0A21B47C 
 169      5451841C 
 169      DB01540C 
 169      B22C2B27 
 170 004c EA21871E 		.ascii	"\352!\207\036B\211PNP!7B5ofv6v6\301\037\342\300F\361"
ARM GAS  /tmp/ccxZg1j1.s 			page 13


 170      4289504E 
 170      50213742 
 170      356F6676 
 170      367636C1 
 171 0065 6F6766DF 		.ascii	"ogf\337\357\375\336\307\354,\003\244\277\340u\235\376"
 171      EFFDDEC7 
 171      EC2C03A4 
 171      BFE0759D 
 171      FE
 172 0076 5F8A024C 		.ascii	"_\212\002L\022\342\000 \273\266\016\360\3768C\256n8"
 172      12E20020 
 172      BBB60EF0 
 172      FE3843AE 
 172      6E38
 173 0088 33375CC8 		.ascii	"37\\\310<o\254\334\005\310\2346\230\271p\202\206\256"
 173      3C6FACDC 
 173      05C89C36 
 173      98B97082 
 173      86AE
 174 009a F83D6D32 		.ascii	"\370=m2\353.\247Qh\275*\026C\336\320UC\213\331\322\324"
 174      EB2EA751 
 174      68BD2A16 
 174      43DED055 
 174      438BD9D2 
 175 00af 51A6363A 		.ascii	"Q\2466:\212\322aa9\037Q\363a\214\250yW\371\2741\036"
 175      8AD26161 
 175      391F51F3 
 175      618CA879 
 175      57F9BC31 
 176 00c4 411437A4 		.ascii	"A\0247\244w\236q\303\014Y\266\023v#8\377\272\014`\360"
 176      779E71C3 
 176      0C59B613 
 176      762338FF 
 176      BA0C60F0 
 177 00d8 38DCC864 		.ascii	"8\334\310d>\274\366S\366\225\354\203f3\226\024\263\027"
 177      3EBCF653 
 177      F695EC83 
 177      66339614 
 177      B317
 178 00ea 10AAB77F 		.ascii	"\020\252\267\177\303g \211\010\343 \220\201\321\036"
 178      C3672089 
 178      08E32090 
 178      81D11E
 179 00f9 6AC08E4B 		.ascii	"j\300\216K\273rq\261/\273Z\361V\217v\206\264{T|\253"
 179      BB7271B1 
 179      2FBB5AF1 
 179      568F7686 
 179      B47B547C 
 180 010e 373326CD 		.ascii	"73&\315\240\037\215}\0315\254~\302*\227\012\254\037"
 180      A01F8D7D 
 180      1935AC7E 
 180      C22A970A 
 180      AC1F
 181 0120 BB8AD98F 		.ascii	"\273\212\331\217U_\201\325J\017\373\222\270Q\232\373"
 181      555F81D5 
 181      4A0FFB92 
 181      B8519AFB 
ARM GAS  /tmp/ccxZg1j1.s 			page 14


 182 0130 BF564C09 		.ascii	"\277VL\011\334.-\367\325\212]9\273\222\361\0252x\016"
 182      DC2E2DF7 
 182      D58A5D39 
 182      BB92F115 
 182      32780E
 183 0143 6542560B 		.ascii	"eBV\013]\371k3\235\220\246\371\256\232k\327\320dpB\032"
 183      5DF96B33 
 183      9D90A6F9 
 183      AE9A6BD7 
 183      D0647042 
 184 0158 6EAE76D8 		.ascii	"n\256v\330n\365\325\337\361\357\265\320\017\354\307"
 184      6EF5D5DF 
 184      F1EFB5D0 
 184      0FECC7
 185 0167 07CDF909 		.ascii	"\007\315\371\011\270\351\361$1\304\340EIQ_\375~?\012"
 185      B8E9F124 
 185      31C4E045 
 185      49515FFD 
 185      7E3F0A
 186 017a 7A024E21 		.ascii	"z\002N!\314\340\035<\016\014g\360;\234\000N\343e\032"
 186      CCE01D3C 
 186      0E0C67F0 
 186      3B9C004E 
 186      E3651A
 187 018d 1B842B84 		.ascii	"\033\204+\204\246\267\036\"\274Nh\023~J\350\022\336"
 187      A6B71E22 
 187      BC4E6813 
 187      7E4AE812 
 187      DE
 188 019e 248C107E 		.ascii	"$\214\020~F8@\3709a\224p\221\360\020\341\027\204\207"
 188      463840F8 
 188      39619470 
 188      91F010E1 
 188      178487
 189 01b1 09970807 		.ascii	"\011\227\010\007\011\277$<Bx\213\360(\341m\302!\302"
 189      09BF243C 
 189      42788BF0 
 189      28E16DC2 
 189      21C2
 190 01c3 AF088709 		.ascii	"\257\010\207\011\277&\034\361x\217\021~C8J\370-\341"
 190      BF261CF1 
 190      788F117E 
 190      43384AF8 
 190      2DE1
 191 01d5 98C71BF3 		.ascii	"\230\307\033\363\364\320e\302\007\231\314\323\206\032"
 191      F4D065C2 
 191      0799CCD3 
 191      861A
 192 01e3 2BD54AF3 		.ascii	"+\325J\363\254\214Z^g\005\356p\230\026\275\271\303y"
 192      AC8C5A5E 
 192      6705EE70 
 192      9816BDB9 
 192      C379
 193 01f5 15AE5CE5 		.ascii	"\025\256\\\345\345\302\310\014\346\321\204\004\362\004"
 193      E5C2C80C 
 193      E6D18404 
 193      F204
ARM GAS  /tmp/ccxZg1j1.s 			page 15


 194 0203 32959246 		.ascii	"2\225\222F\323\273\260\351\337\001\374\002\014\324\263"
 194      D3BBB0E9 
 194      DF01FC02 
 194      0CD4B3
 195 0212 CA4142B4 		.ascii	"\312AB\264k\025\262\347j\20575\207q\012NR\301\270\004"
 195      6B15B2E7 
 195      6A853735 
 195      87710A4E 
 195      52C1B804 
 196 0226 4B81CD3F 		.ascii	"K\201\315?\201\2171\211\016\363\034p\351\340)\270O\366"
 196      818F3189 
 196      0EF31C70 
 196      E9E029B8 
 196      4FF6
 197 0238 705E9F48 		.ascii	"p^\237H\347\251&\260`\312;\022\270d\312Yr\232\343\332"
 197      E7A926B0 
 197      60CA3B12 
 197      B864CA59 
 197      729AE3DA 
 198 024c EB8AF46A 		.ascii	"\353\212\364jH\257\217y}W\272y\031\336#^\224\376\034"
 198      48AF8F79 
 198      7D57BA79 
 198      19DE235E 
 198      94FE1C
 199 025f CF5F98FC 		.ascii	"\317_\230\374\031\302\237`\332R\276\270\362\265\300"
 199      19C29F60 
 199      DA52BEB8 
 199      F2B5C0
 200 026e 35794A73 		.ascii	"5yJs\337\221\334\246\307\275Q\210j\356\220\344\006\305"
 200      DF91DCA6 
 200      C7BD5188 
 200      6AEE90E4 
 200      06C5
 201 0280 EDEEC7AD 		.ascii	"\355\356\307\255\324\267\265bM6M^._\206\307\031;\211"
 201      D4B7B562 
 201      4D364D5E 
 201      2E5F86C7 
 201      193B89
 202 0293 11BC80A8 		.ascii	"\021\274\200\250\202%\322$\035\264\362\232&M\342\250"
 202      8225D224 
 202      1DB4F29A 
 202      264DE2A8 
 203 02a3 E3248656 		.ascii	"\343$\206V\265\020\272\375\031\312\017\261\\\274\250"
 203      B510BAFD 
 203      19CA0FB1 
 203      5CBCA8
 204 02b2 8560C2F7 		.ascii	"\205`\302\367\006\367\200F1\267~\206\346\030%B\360\030"
 204      06F78046 
 204      31B77E86 
 204      E6182542 
 204      F018
 205 02c4 80749A72 		.ascii	"\200t\232r2\373\225\314\026YK][N\375i\232\303\277^\340"
 205      32FB95CC 
 205      16594B5D 
 205      5B4EFD69 
 205      9AC3BF5E 
 206 02d9 B270747C 		.ascii	"\262pt|\351\247l\031\037?\260r\250*\007\377R5\323\257"
ARM GAS  /tmp/ccxZg1j1.s 			page 16


 206      E9A76C19 
 206      1F3FB072 
 206      A82A07FF 
 206      5235D3AF 
 207 02ed 9A27FD89 		.ascii	"\232'\375\211\257\301\326\326\255BB\200\177\236\024"
 207      AFC1D6D6 
 207      AD424280 
 207      7F9E14
 208 02fc 7A37B1D6 		.ascii	"z7\261\326\256\327n}\314\362\2725;\265Q\\\366\364v\020"
 208      AED76E7D 
 208      CCF2BA35 
 208      3BB5515C 
 208      F6F47610 
 209 0310 DBD666B9 		.ascii	"\333\326f\271\240\340\012\327\202e_H\207\302\301f\267"
 209      A0E00AD7 
 209      82655F48 
 209      87C2C166 
 209      B7
 210 0321 0EFC6C74 		.ascii	"\016\374ltC\356m\023:\364u\210\256$\214v\020\016\355"
 210      43EE6D13 
 210      3AF47588 
 210      AE248C76 
 210      100EED
 211 0334 D4219D12 		.ascii	"\324!\235\022\332\270\363\240\251\"\304\246v\255\255"
 211      DAB8F3A0 
 211      A922C4A6 
 211      76ADAD
 212 0343 96AE727F 		.ascii	"\226\256r\177m@&3\242\3347,=\035\355%{KV \300\373\226"
 212      6D402633 
 212      A2DC372C 
 212      3D1DED25 
 212      7B4B5620 
 213 035a 0EB061ED 		.ascii	"\016\260a\355\226{\211\267\270\215\266\026\320\026\373"
 213      967B89B7 
 213      B88DB616 
 213      D016FB
 214 0369 41369CF8 		.ascii	"A6\234\370@\320O\035:(\007Q\235\333\274\023H\300\226"
 214      40D04F1D 
 214      3A280751 
 214      9DDBBC13 
 214      48C096
 215 037c E367A062 		.ascii	"\343g\240bj\246\303\224\002\342\333\223\230AZ\020LQ"
 215      6AA6C394 
 215      02E2DB93 
 215      98415A10 
 215      4C51
 216 038e 2F31D929 		.ascii	"/1\331)h)m\327\271G\355\032e-\007\275W\036}FhGG:\244"
 216      68296DD7 
 216      B947ED1A 
 216      652D07BD 
 216      571E7D46 
 217 03a7 D38FA7B2 		.ascii	"\323\217\247\262'\036\272k8:\2259\327\213,;\265e\366"
 217      271EBA6B 
 217      383A9539 
 217      D78B2C3B 
 217      B565F6
 218 03ba DEE4F960 		.ascii	"\336\344\371`\037n\371}(\367'\011\325\005q\364\216:"
ARM GAS  /tmp/ccxZg1j1.s 			page 17


 218      1F6EF97D 
 218      28F72709 
 218      D50571F4 
 218      8E3A
 219 03cc 479F353A 		.ascii	"G\2375:\214\243\007\345\005[\367n\307~\034\"\246\203"
 219      8CA307E5 
 219      055BF76E 
 219      C77E1C22 
 219      A683
 220 03de FA7158BE 		.ascii	"\372qX\276\304\206\002\0153\234h}7Lc\330o\230\355\322"
 220      C486020D 
 220      339C687D 
 220      374C63D8 
 220      6F98EDD2 
 221 03f2 1FFE1B6A 		.ascii	"\037\376\033j\244\253\302\345\254\200\312\212\265O\323"
 221      A4ABC2E5 
 221      AC80CA8A 
 221      B54FD3
 222 0401 1C239DC4 		.ascii	"\034#\235\304\271G\375(-\364\3244\301\344\354i\230Q"
 222      B947FD28 
 222      2DF4D434 
 222      C1E4EC69 
 222      9851
 223 0413 6FF3979E 		.ascii	"o\363\227\236\370\201\214\375\327\373\257\207\246\361"
 223      F8818CFD 
 223      D7FBAF87 
 223      A6F1
 224 0421 F576D330 		.ascii	"\365v\3230c\272 .\340GUU\221\372\232\177 \305\272\365"
 224      63BA202E 
 224      E0475555 
 224      91FA9A7F 
 224      20C5BAF5 
 225 0435 5509FA6A 		.ascii	"U\011\372j\370\276r\376A\277\300\333\017\343\230v\037"
 225      F8BE72FE 
 225      41BFC0DB 
 225      0FE39876 
 225      1F
 226 0446 91FD4A67 		.ascii	"\221\375Jg\352\366Zt\237S\225\265\237\252\353\200\217"
 226      EAF65A74 
 226      9F5395B5 
 226      9FAAEB80 
 226      8F
 227 0457 CEE8C7D4 		.ascii	"\316\350\307\324uV\270\334\241\017P\200g''\343/\247"
 227      7556B8DC 
 227      A10F5080 
 227      672727E3 
 227      2FA7
 228 0469 662FCEBE 		.ascii	"f/\316\276\372Z\374\355K\361\271w\343\227\346\022\361"
 228      FA5AFCED 
 228      4BF1B977 
 228      E397E612 
 228      F1
 229 047a 442A957C 		.ascii	"D*\225|#=\231\000\366N\232\245\322\246\030\2451\375"
 229      233D9900 
 229      F64E9AA5 
 229      D2A618A5 
 229      31FD
ARM GAS  /tmp/ccxZg1j1.s 			page 18


 230 048c 0F4E3DCD 		.ascii	"\017N=\315q"
 230      71
 231              		.text
 232              		.section	.gnu.lto_chHeapStatus.a4793cfbb9fd47c2,"",%progbits
 233 0000 789C9554 		.ascii	"x\234\225TMh\023A\024~ofg7\3116\211=\306\203\326R\244"
 233      4D681341 
 233      147E6F66 
 233      6737C936 
 233      893DC683 
 234 0017 2A341E3C 		.ascii	"*4\036<x\367bOb\245 \205Zl\0104=\324\264\025\301\\\022"
 234      78F7624F 
 234      62A52085 
 234      5A6C0834 
 234      3DD4B415 
 235 002e DB821E14 		.ascii	"\333\202\036\024\212'\355\311Z\212\251\242\007\361\020"
 235      8A27EDC9 
 235      5A8AA9A2 
 235      07F110
 236 003d BC4434AD 		.ascii	"\274D4\255\331\022z*\301C\016=\371Sz,\242P\250ofv\322"
 236      D9127A2A 
 236      C1430E3D 
 236      F9537A2C 
 236      A250A86F 
 237 0054 2C29D26E 		.ascii	",)\322n\010og\336\373\336\373\3367o\226\001\322\257"
 237      086F67DE 
 237      FBDEFBDE 
 237      376F9601 
 237      D2AF
 238 0066 FD99A4FF 		.ascii	"\375\231\244\377\240\015p\211,F\000\331\374\006\300"
 238      A00D7089 
 238      2C4600D9 
 238      FC06C0
 239 0075 832EC678 		.ascii	"\203.\306x\303\205B\257\365\3413@\341\"GK\357[h\353"
 239      C38542AF 
 239      F5E13340 
 239      E122474B 
 239      EF5B68EB 
 240 0089 17A15F16 		.ascii	"\027\241_\026\273l&\036\177\245\230^g\316\241H\207\205"
 240      BB6C261E 
 240      7FA5985E 
 240      67CEA148 
 240      8785
 241 009b 16D6E432 		.ascii	"\026\326\3442\374[.C\030\326\361aD\371B\034\362\214"
 241      FC5B2E43 
 241      18D6F161 
 241      44F9421C 
 241      F28C
 242 00ad 5BC27642 		.ascii	"[\302vBa\314\017*Fv7,\026\012O\347\277\314\\\235\331"
 242      61CC0F2A 
 242      4676372C 
 242      160A4FE7 
 242      BFCC5C9D 
 243 00c2 DADF3F9D 		.ascii	"\332\337?\235\226\273#\010\353O~a\002\322\210\320\005"
 243      96BB2308 
 243      EB4F7E61 
 243      02D288D0 
 243      05
ARM GAS  /tmp/ccxZg1j1.s 			page 19


 244 00d3 D232B082 		.ascii	"\3222\260\202\334\333p\\\341j\336\353c\342,\205+:GA"
 244      DCDB705C 
 244      E16ADEEB 
 244      63E22C85 
 244      2B3A4741 
 245 00e7 CD169AD5 		.ascii	"\315\026\232\325\030\234A\011\334+\177<R\301\003\250"
 245      189C4109 
 245      DC2B7F3C 
 245      52C103A8 
 246 00f7 60D0A3A0 		.ascii	"`\320\243\240\225\352\370\261\221g\025\362\033\377/"
 246      95EAF8B1 
 246      916715F2 
 246      1BFF2F
 247 0106 70B7BCCD 		.ascii	"p\267\274\315\367<\273\314>m\355\347{`\311\317\222F"
 247      F73CBBCC 
 247      3E6DEDE7 
 247      7B60C9CF 
 247      9246
 248 0118 9BC13995 		.ascii	"\233\3019\225`\267\374\236\265\247\300\326X\207AR\305"
 248      60B7FC9E 
 248      B5A7C0D6 
 248      58874152 
 248      C5
 249 0129 96A28714 		.ascii	"\226\242\207\024#?\375mH \014\343\012\001\031\331%\354"
 249      233FFD6D 
 249      48200CE3 
 249      0A0119D9 
 249      25EC
 250 013b 064E7699 		.ascii	"\006Nv\231\254E\366\025Y\201\332\357\320\372\005\255"
 250      AC45F615 
 250      5981DAEF 
 250      D0FA05AD 
 251 014b 237E9C4B 		.ascii	"#~\234Kv\221l\224\354K\2621?>\356\343;\011\367\206p"
 251      76916C94 
 251      EC4BB231 
 251      3F3EEEE3 
 251      3B09F786 
 252 0160 F408982B 		.ascii	"\364\010\230+\024Np\215\323^\035;\342\017\365uii\002"
 252      144E708D 
 252      D35E1D3B 
 252      E20FF575 
 252      696902
 253 0173 07881D59 		.ascii	"\007\210\035Y\276\012\225\357\270Y=9\214oQ@\012EBqm"
 253      BE0A95EF 
 253      B8593D39 
 253      8C6F5140 
 253      0A454271 
 254 0188 7D06E4BC 		.ascii	"}\006\344\274<D\276\006\254Q\235\320\201\232h\016\376"
 254      3C44BE06 
 254      AC519DD0 
 254      819A680E 
 254      FE
 255 0199 1642148E 		.ascii	"\026B\024\216\031\251s\013\300R\271\011@\325th\212T"
 255      19A9730B 
 255      C052B909 
 255      40D57468 
 255      8A54
ARM GAS  /tmp/ccxZg1j1.s 			page 20


 256 01ab 817598F9 		.ascii	"\201u\230\371\313w\2521S\314\311\301}\232b\274\000\347"
 256      CB77AA31 
 256      53CCC9C1 
 256      7D9A62BC 
 256      00E7
 257 01bd D318E20B 		.ascii	"\323\030\342\013\360\034\323\030f\024\333\312\342V\360"
 257      F01CD318 
 257      6614DBCA 
 257      E256F0
 258 01cc 3ED6945E 		.ascii	">\326\224^2\001\030\002\021\034A\324Q\2244\215.\000"
 258      32011802 
 258      111C41D4 
 258      5194348D 
 258      2E00
 259 01de D5DE335D 		.ascii	"\325\3363]i\005dJ\241b\310W\361\306\215o9\340S\024\213"
 259      6905644A 
 259      A162C857 
 259      F1C68D6F 
 259      39E05314 
 260 01f3 C2308C28 		.ascii	"\3020\214(\206\\3\3548\214a\321Q\024}\216\325f\005\223"
 260      865C33EC 
 260      388C61D1 
 260      51147D8E 
 260      D5660593 
 261 0207 431F0565 		.ascii	"C\037\005e\222\373u@\222\230a\253p\215\352=\362\360"
 261      92FB7540 
 261      929861AB 
 261      708DEA3D 
 261      F2F0
 262 0219 1297C209 		.ascii	"\022\227\302\011@\372Jpb1T\363\266\321\320\210\252\372"
 262      40FA4A70 
 262      623154F3 
 262      B6D1D088 
 262      AAFA
 263 022b 822B13F5 		.ascii	"\202+\023\365it\020\015W\322\220\312\377\021\212\006"
 263      6974100D 
 263      57D290CA 
 263      FF118A06 
 264 023b 3392719F 		.ascii	"3\222q\237\231\354h6\377\210\233L1J\226\222\347\263"
 264      99EC6836 
 264      FF889B4C 
 264      314A9692 
 264      E7B3
 265 024d A6C6F040 		.ascii	"\246\306\360@\036r\351\330\212\367\256\031\035O!\327"
 265      1E72E9D8 
 265      8AF7AE19 
 265      1D4F21D7 
 266 025d DA200421 		.ascii	"\332 \004!\313\012\022\327\255\306\203\255\272f\014"
 266      CB0A12D7 
 266      ADC683AD 
 266      BA660C
 267 026c 6C901FB3 		.ascii	"l\220\037\263\346\034\3502\272\266\332\320I\370\301"
 267      E61CE832 
 267      BAB6DAD0 
 267      49F8C1
 268 027b 86C63375 		.ascii	"\206\3063u\014C%\327\320pU\337\\\267\037kW\201\031\025"
 268      0C4325D7 
ARM GAS  /tmp/ccxZg1j1.s 			page 21


 268      D07055DF 
 268      5CB71F6B 
 268      57811915 
 269 028f 7E86832A 		.ascii	"~\206\203*P\255g\256z#yJ\232\327*\314\375\300\313\315"
 269      50AD67AE 
 269      7A23794A 
 269      9AD72ACC 
 269      FDC0CBCD 
 270 02a3 D4066A9E 		.ascii	"\324\006j\236:P\302\210U\024\344\023\305x\035\270\031"
 270      3A50C288 
 270      5514E413 
 270      C5781DB8 
 270      19
 271 02b4 0EABC8A9 		.ascii	"\016\253\310\251cQ\212\326\301j\356\321\220\221r\242"
 271      63518AD6 
 271      C16AEED1 
 271      909172A2 
 272 02c4 E68DCA86 		.ascii	"\346\215\312\206\035\377NQ\205M\257y\247:\023\352\033"
 272      1DFF4E51 
 272      854DAF79 
 272      A73A13EA 
 272      1B
 273 02d5 10BC5321 		.ascii	"\020\274S!\200\025[\036t\177\303\233\322\221\272!\301"
 273      80155B1E 
 273      747FC39B 
 273      D291BA21 
 273      C1
 274 02e6 5A1037D5 		.ascii	"Z\0207\325H[\006\024V\371\351\006\354x\261C\356\000"
 274      485B0614 
 274      56F9E906 
 274      EC78B143 
 274      EE00
 275 02f8 0BDE810D 		.ascii	"\013\336\201\015\300\335~C\202\233\373\2172\207T\350"
 275      C0DD7E43 
 275      829BFB8F 
 275      328754E8 
 276 0308 545F5FF2 		.ascii	"T__\362\312Xf4s\355F\362\316tr\352nrz*\225L\215\215"
 276      CA586634 
 276      73ED46F2 
 276      CE7472EA 
 276      6E727A2A 
 277 0320 A56F67FB 		.ascii	"\245og\373R\300&\2638\301\246sB\256\263b:\223Kg\377"
 277      52C026B3 
 277      38C1A673 
 277      42AEB362 
 277      3A934B67 
 278 0335 01472C47 		.ascii	"\001G,G\347"
 278      E7
 279              		.text
 280              		.section	.gnu.lto_.cgraph.a4793cfbb9fd47c2,"",%progbits
 281 0000 789C45CC 		.ascii	"x\234E\314\275\012\302@\020\004\340\231\333\273\313"
 281      BD0AC240 
 281      1004E099 
 281      DBBBCB
 282 000f BD83451E 		.ascii	"\275\203E\036u#\007\"\010\"\244\267\261\364\037\361"
 282      75230722 
 282      0822A4B7 
ARM GAS  /tmp/ccxZg1j1.s 			page 22


 282      B1F41FF1 
 283 001f 092C050B 		.ascii	"\011,\005\013\237@I\033\254l\025/Q\223m\206\217\031"
 283      9F40491B 
 283      AC6C152F 
 283      51936D86 
 283      8F19
 284 0031 D6801000 		.ascii	"\326\200\020\000g\374\316,\251\300\354\002\325\371\230"
 284      67FCCE2C 
 284      A9C0EC02 
 284      D5F998
 285 0040 3C52D9AA 		.ascii	"<R\331\252\030\322\254\250\246\253\314\232*\2756T\333"
 285      18D2ACA8 
 285      A6ABCC9A 
 285      2ABD3654 
 285      DB
 286 0051 6B4B75FD 		.ascii	"kKu\375\223\003\325\177\237\024\344\236\232u\330Q\303"
 286      9303D57F 
 286      9F14E49E 
 286      9A75D851 
 286      C3
 287 0062 1F028FEA 		.ascii	"\037\002\217\352\366\246\030\2178\252s\221\200E\233"
 287      F6A6188F 
 287      38AA7391 
 287      80459B
 288 0071 19AAE963 		.ascii	"\031\252\351c\320d\274\276\304\012\312\362)b\003\252"
 288      D064BCBE 
 288      C40ACAF2 
 288      296203AA 
 289 0081 7B9ADB54 		.ascii	"{\232\333T\227i\346\002bc\227\3414\251s|\000z%A+"
 289      9769E602 
 289      626397E1 
 289      34A9737C 
 289      007A2541 
 290              		.text
 291              		.section	.gnu.lto_.vars.a4793cfbb9fd47c2,"",%progbits
 292 0000 789C6362 		.ascii	"x\234cb`d`f```g\200\000\306U\214\014,\365\314\000\006"
 292      60646066 
 292      60606067 
 292      8000C655 
 292      8C0C2CF5 
 293 0017 110140   		.ascii	"\021\001@"
 294              		.text
 295              		.section	.gnu.lto_.refs.a4793cfbb9fd47c2,"",%progbits
 296 0000 789C6362 		.ascii	"x\234cb`d`f``\020c\200\000V \217\205\221\031H\26220"
 296      60646066 
 296      60601063 
 296      80005620 
 296      8F859119 
 297 0018 3203312B 		.ascii	"2\0031++P\024\000\005\251\000I"
 297      2B501400 
 297      05A90049 
 298              		.text
 299              		.section	.gnu.lto_.statics.a4793cfbb9fd47c2,"",%progbits
 300 0000 789C6362 		.ascii	"x\234cb`d`b\300\016@\342\214\020&\000\000\375\000\011"
 300      60646062 
 300      C00E40E2 
 300      8C102600 
ARM GAS  /tmp/ccxZg1j1.s 			page 23


 300      00FD0009 
 301              		.text
 302              		.section	.gnu.lto_.decls.a4793cfbb9fd47c2,"",%progbits
 303 0000 789CAD59 		.ascii	"x\234\255Y\177p\024\325\035\177o7w\227K  Ni\352X\210"
 303      7F7014D5 
 303      1D7F6F37 
 303      77974B20 
 303      204E69EA 
 304 0016 8E58B543 		.ascii	"\216X\265CN~\210\320A\007&N\305*\325\321\3528\343\334"
 304      4E7E88D0 
 304      4107264E 
 304      C52AD5D1 
 304      EA38E3DC 
 305 002a EC5C2E9B 		.ascii	"\354\\.\233\334\351\375\352\335\006B\247\177\254\201"
 305      DCE9FDEA 
 305      DD0642A7 
 305      7FAC81
 306 0039 6ADAE218 		.ascii	"j\332\342\030)H\"\376\210\024P\020\244Qh\000\035\301"
 306      294822FE 
 306      88145010 
 306      A4516800 
 306      1DC1
 307 004b 31459054 		.ascii	"1E\220T\020Q\353\224\251\0101\"\240V\215\210\032\232"
 307      1051EB94 
 307      A9083122 
 307      A0568D88 
 307      1A9A
 308 005d 7EDFDBDD 		.ascii	"~\337\333\335\267o\367v\367\356\022w\362v\3676\357\373"
 308      B76FF776 
 308      F7EE1277 
 308      F276F736 
 308      EFFB
 309 006f 799FEFE7 		.ascii	"y\237\357\347\373}\277v\005\204\0219\306\213\010\015"
 309      FB7DBF76 
 309      05841139 
 309      C68B080D 
 310 007f C371D795 		.ascii	"\303q\327\225\010\211>\204\374\360\354:(eP\272\240<"
 310      08893E84 
 310      FCF0EC3A 
 310      286550BA 
 310      A03C
 311 0091 0D651A54 		.ascii	"\015e\032T\215@!\026\022\234\202p\255\207k#\224\030"
 311      8D402116 
 311      129C8270 
 311      AD876B23 
 311      9418
 312 00a3 1405CAEF 		.ascii	"\024\005\312\357\241,\205\262\034J;\224\025z\375\225"
 312      A12C85B2 
 312      1C4A3B94 
 312      157AFD95 
 313 00b3 5A33EC20 		.ascii	"Z3\354 vc\341:\007\256\323\261\206=\037\312]P\356\200"
 313      7663E13A 
 313      07AED3B1 
 313      863D1FCA 
 313      5D50EE80 
 314 00c7 721B941B 		.ascii	"r\033\224\033\240\314\205\362(69<\004\367\001\270\316"
 314      A0CC85F2 
ARM GAS  /tmp/ccxZg1j1.s 			page 24


 314      2836393C 
 314      04F701B8 
 314      CE
 315 00d8 866B1D94 		.ascii	"\206k\035\224[\241\334\016\345N(\367`\215\227\310\361"
 315      5BA1DC0E 
 315      E54E28F7 
 315      608D97C8 
 315      F1
 316 00e9 5AEED23E 		.ascii	"Z\356\322>\341{\001\\\301UT\005e\214\356\347]:\227\353"
 316      E17B015C 
 316      C1555405 
 316      658CEEE7 
 316      5D3A97EB 
 317 00fd 91D6B6C1 		.ascii	"\221\326\266\301o\276\215\027\341Bx\025\303G\320\333"
 317      6FBE8D17 
 317      E1427815 
 317      C347D0DB 
 318 010d 33B8ACB6 		.ascii	"3\270\254\266q!\272Mp\3412_\3473Wow\272\255\355\333"
 318      7121BA4D 
 318      70E1325F 
 318      E733576F 
 318      77BAADED 
 319 0122 745E84E7 		.ascii	"t^\204\347/t\336\345H\343\"\351|\356\3418\335\2155\256"
 319      2F74DEE5 
 319      48E322E9 
 319      7CEEE138 
 319      DD8D35AE 
 320 0136 A2DEEE0A 		.ascii	"\242\336\356\012=NN\032\221X\216\323\271\030\274\010"
 320      3D4E4E1A 
 320      91588ED3 
 320      B918BC08 
 321 0146 271F3235 		.ascii	"'\03725\3425\261s\233\253kchr76y\031\372\210z;<\217"
 321      E235B173 
 321      9BAB6B63 
 321      68723736 
 321      7919FA88 
 322 015e 276C3C96 		.ascii	"'l<\226z\360\230\213\315\274$mO\307f\3737p\372\370\365"
 322      7AF0988B 
 322      CDBC246D 
 322      4FC766FB 
 322      3770FAF8 
 323 0173 9C3562C4 		.ascii	"\2345b\304k\"\352mxiQ\211\376\244\252\255j\327\003\352"
 323      6B22EA6D 
 323      78695189 
 323      FEA4AAAD 
 323      6AD703EA 
 324 0187 827D5513 		.ascii	"\202}U\023\320#*\0345\373\200\315OP\030WAOP1\275\035"
 324      D0232A1C 
 324      35FB80CD 
 324      4F501857 
 324      414F5031 
 325 019d 03B7E3A1 		.ascii	"\003\267\343\241\376\024\264NU\333\241\022\016\343\247"
 325      FE14B44E 
 325      55DBA112 
 325      0EE3A7
 326 01ac F104C801 		.ascii	"\361\004\310\001\001\243\253\320F\225\036:\270~\251"
 326      01A3ABD0 
ARM GAS  /tmp/ccxZg1j1.s 			page 25


 326      46951E3A 
 326      B87EA9
 327 01bb 401BF66F 		.ascii	"@\033\366o\371\261v_\004\264\200f`\370\271\036P\303"
 327      F9B1765F 
 327      04B48066 
 327      60F8B91E 
 327      50C3
 328 01cd 781DBE4A 		.ascii	"x\035\276JkK\325\332\"O\221\376\274o\265\037\345\037"
 328      6B4BD5DA 
 328      224F91FE 
 328      BC6FB51F 
 328      E51F
 329 01df E225A84B 		.ascii	"\342%\250K\245\334\026\370\235Z\233\307\032+\267\371"
 329      A5DC16F8 
 329      9D5A9BC7 
 329      1A2BB7F9 
 330 01ef B191FA31 		.ascii	"\261\221\3721\007\353\360\003\313{\366\336da\3355\317"
 330      07EBF003 
 330      CB7BF6DE 
 330      6461DD35 
 330      CF
 331 0200 1D484019 		.ascii	"\035H@\031b\270\331\221\365f\216\365\206\225\357\035"
 331      62B8D991 
 331      F5668EF5 
 331      8695EF1D 
 332 0210 A876E02D 		.ascii	"\250v\340-P\336\255\355K\201w\301ht\225\261\306o\260"
 332      50DEADED 
 332      4B8177C1 
 332      687495B1 
 332      C66FB0
 333 0223 79D14DBD 		.ascii	"y\321M\275X\207M7\206\337\021\335\305\267!\011h\013"
 333      58874D37 
 333      86DF11DD 
 333      C5B72109 
 333      680B
 334 0235 B5DCE6E8 		.ascii	"\265\334\346\350\3076\213\037\347\035\375\230\300\371"
 334      C7368B1F 
 334      E71DFD98 
 334      C0F9
 335 0243 11C67FC3 		.ascii	"\021\306\177\303\225\200\331\3030\207\266\236\302F\323"
 335      9580D9C3 
 335      3087B69E 
 335      C246D3
 336 0252 35AC6532 		.ascii	"5\254e2\012\033\367\332a\324\321\017\007\314W\030f\337"
 336      0A1BF7DA 
 336      61D4D10F 
 336      07CC5718 
 336      66DF
 337 0264 EC52106B 		.ascii	"\354R\020k\362\020\203\250\315T\233\257\310\203\361"
 337      F21083A8 
 337      CD549BAF 
 337      C883F1
 338 0273 12BF8C83 		.ascii	"\022\277\214\203@\340\037L\342\263\217\357\334{\235"
 338      40E01F4C 
 338      E2B38FEF 
 338      DC7B9D
 339 0282 065B32D6 		.ascii	"\006[2\326n\212\265L`X\353\336\332\033\322\260\3028"
ARM GAS  /tmp/ccxZg1j1.s 			page 26


 339      6E8AB54C 
 339      6058EBDE 
 339      DA1BD2B0 
 339      C238
 340 0294 602A60FC 		.ascii	"`*`\374\326ji\310\332\277\215;2\275\215C\245\033\010"
 340      D66A69C8 
 340      DABF8D3B 
 340      32BD8D43 
 340      A51B08
 341 02a7 E82BC190 		.ascii	"\350+\301\220r\303\312\325o\316\361V\263\3345>*U\323"
 341      72C3CAD5 
 341      6FCEF156 
 341      B3DC353E 
 341      2A55D3
 342 02ba E82B7E77 		.ascii	"\350+~w\377\005\364\035m\261\3271\311z\271$\333\264"
 342      FF05F41D 
 342      6DB1D731 
 342      C97AB924 
 342      DBB4
 343 02cc ED45C724 		.ascii	"\355E\307$\303%u\026\201\265~\031m}\223HZ\337\357\330"
 343      C3257516 
 343      81B57E19 
 343      6D7D9348 
 343      5ADFEFD8 
 344 02e0 FA7EAEF5 		.ascii	"\372~\256\365]=\357\217sh<\350\326x\030_\367\243\"B"
 344      5D3DEF8F 
 344      73683CE8 
 344      D678185F 
 344      F7A32242 
 345 02f4 FE4F9ABF 		.ascii	"\376O\232\277\307E\314\234\\\363\306d#b\327WZ#\010\277"
 345      C745CC9C 
 345      5CF3C664 
 345      2362D757 
 345      5A2308BF 
 346 0308 8D0852EE 		.ascii	"\215\010R\356\247\031\367]=O\035\276r\264}I\343\362"
 346      A719F75D 
 346      3D4F1DBE 
 346      72B47D49 
 346      E3F2
 347 031a 1903EDBD 		.ascii	"\031\003\355\275it}\311@\374\202!\366\025@t\317'+\342"
 347      69747DC9 
 347      40FC8221 
 347      F6154074 
 347      CF272BE2 
 348 032e 20433C52 		.ascii	" C<R\022\242;\307o\030\342\321\002\210\343\213\344\370"
 348      12A23BC7 
 348      6F18E2D1 
 348      0288E38B 
 348      E4F8
 349 0340 1D43EC2F 		.ascii	"\035C\354/\011\321\235\343y\206x\246\000bu\221\034\357"
 349      09D19DE3 
 349      798678A6 
 349      00627591 
 349      1CEF
 350 0352 2F331007 		.ascii	"/3\020\007KBt\347\370\007\2068T\000\261\306\211c^N\361"
 350      4B4274E7 
 350      F8078638 
ARM GAS  /tmp/ccxZg1j1.s 			page 27


 350      5400B1C6 
 350      89635E4E 
 351 0367 96A40BEC 		.ascii	"\226\244\013\354\303\254O\010\250\255\314\03096m\333"
 351      C3AC4F08 
 351      A8ADCC18 
 351      39366DDB 
 352 0377 7E203482 		.ascii	"~ 4\202\374gP\313\313\314a\257\263\264a\317I\014mZZ"
 352      FC6750CB 
 352      CBCC61AF 
 352      B3B461CF 
 352      490C6D5A 
 353 038c C1400777 		.ascii	"\301@\007w\024\232\352\012\247\225\206\371\030\303\034"
 353      149AEA0A 
 353      A79586F9 
 353      18C31C
 354 039b 2A30D515 		.ascii	"*0\325\025J+\313p\245\317U\307\326\357\251\356\340\206"
 354      4A2BCB70 
 354      A5CF55C7 
 354      D6EFA9EE 
 354      E086
 355 03ad CB728646 		.ascii	"\313r\206F\326o\346\330\310\252\253\325\325n\265\303"
 355      D66FE6D8 
 355      C8AAABD5 
 355      D56EB5C3 
 356 03bd F8149E02 		.ascii	"\370\024\236\002\347\3238\310\230\350\367\354v\230n"
 356      E7D338C8 
 356      98E8F7EC 
 356      76986E
 357 03cc 19D69691 		.ascii	"\031\326\226\221\372\266U\250\036\360B\326\356\251r"
 357      FAB655A8 
 357      1EF042D6 
 357      EEA972
 358 03db 924F9567 		.ascii	"\222O\225g\314P\024\010\256G\337\371o\253Z\355\347\\"
 358      CC501408 
 358      AE47DFF9 
 358      6FAB5AED 
 358      E75C
 359 03ed 2FA0943E 		.ascii	"/\240\224>\304\177Ng\365\347\313\314\025\302\213\266"
 359      C47F4E67 
 359      F5E7CBCC 
 359      15C28BB6 
 360 03fd 1542F158 		.ascii	"\025B\361X_R\254\036\023k\335\366\363\202!\025\266\255"
 360      5F52AC1E 
 360      136BDDF6 
 360      F3822115 
 360      B6AD
 361 040f 10B075C2 		.ascii	"\020\260u\3027\3053\264+\255\266\200vs\235\344+\263"
 361      37C533B4 
 361      2BADB680 
 361      76739DE4 
 361      2BB3
 362 0421 9358E916 		.ascii	"\223X\351\0261b\214L\307o\250\357\257s:v\033:j\302\224"
 362      31628C4C 
 362      C76FA8EF 
 362      AF733A76 
 362      1B3A6AC2 
 363 0436 EACE41CE 		.ascii	"\352\316A\316\235\357Ks\347\212\321\2733D\335y\217s"
ARM GAS  /tmp/ccxZg1j1.s 			page 28


 363      9DEF4B73 
 363      E78AD1BB 
 363      3344DD79 
 363      8F73
 364 0448 67FBE8DC 		.ascii	"g\373\350\334\371\200sg\325\301\222\334\271\232sG[\271"
 364      F9807367 
 364      D5C192DC 
 364      B99A7347 
 364      5BB9
 365 045a 5D885614 		.ascii	"]\210V\024Z\271\021Z\367\013\027\242\374u\023yj\254"
 365      5AB9115A 
 365      F70B17A2 
 365      FC751379 
 365      6AAC
 366 046c 9B065FA9 		.ascii	"\233\006_\251B\371G\031\327\024UN-a\231\274L \312\015"
 366      42F94719 
 366      D714554E 
 366      2D6199BC 
 366      4C20CA0D 
 367 0480 70CABD64 		.ascii	"p\312\275d\351P\245`=H\261\316p\035j\367\336\251\206"
 367      E950A560 
 367      3D48B1CE 
 367      701D6AF7 
 367      DEA986
 368 0493 E87E5B10 		.ascii	"\350~[\020\374\326 \220\177\223\326\316\221\3053\036"
 368      FCD62090 
 368      7F93D6CE 
 368      91C5331E 
 369 04a3 360E6CFC 		.ascii	"6\016l\374\217\374\010\240\037\002\002V<\224!\021\026"
 369      8FFC08A0 
 369      1F020256 
 369      3C942111 
 369      16
 370 04b4 72F56081 		.ascii	"r\365`\201!\014Y\202\213\362\202kH\370=\003\355_0\332"
 370      210C5982 
 370      8BF2826B 
 370      48F83D03 
 370      ED5F30DA 
 371 04c8 C5E3F564 		.ascii	"\305\343\365drZ\3463\000\217\356\037\355\336\256\344"
 371      725AE633 
 371      008FEE1F 
 371      EDDEAEE4 
 372 04d8 DD533BF5 		.ascii	"\335S;\365\351\317>3-v\233\035j\267\275C\025\267\033"
 372      E9CF3E33 
 372      2D769B1D 
 372      6AB7BD43 
 372      15B71B
 373 04eb 5AED3365 		.ascii	"Z\3553e\177\347\360Hd\327\017\001=\3513\272g\377\257"
 373      7FE7F048 
 373      64D70F01 
 373      3DE933BA 
 373      67FFAF
 374 04fe 46B0322A 		.ascii	"F\2602*mW\305\353\362\250@^\002\254e\272\014,\357\334"
 374      6D57C5EB 
 374      F2A8405E 
 374      02AC65BA 
 374      0C2CEFDC 
ARM GAS  /tmp/ccxZg1j1.s 			page 29


 375 0512 BB40032D 		.ascii	"\273@\003-j\177\326M-;\005\247\035\022yj\276\004\330"
 375      6A7FD64D 
 375      2D3B05A7 
 375      1D12796A 
 375      BE04D8
 376 0525 59707FA6 		.ascii	"Yp\177\246\255b\302x\007\026t\3143[F\224(\371\007O1"
 376      AD62C278 
 376      071674CC 
 376      335B4694 
 376      28F9074F 
 377 053a 8CD70853 		.ascii	"\214\327\010S\020\360{\\\270\304\214\300\253,\002}\007"
 377      10F07B5C 
 377      B8C48CC0 
 377      AB2C027D 
 377      07
 378 054b 060A346A 		.ascii	"\006\0124j\215A\215%\006*uD{Ct\200a\016\335l\324\236"
 378      8D418D25 
 378      062A7544 
 378      7B437480 
 378      610EDD6C 
 379 0561 6759281A 		.ascii	"gY(\032\367W\024\210\252\321)\337e\210Go\361\346x\265"
 379      F7571488 
 379      AAD129DF 
 379      6588476F 
 379      F1E678B5 
 380 0575 2BA221B6 		.ascii	"+\242!\266\326%\216\232~/,\005\261&\017\321\266\303"
 380      D6258E9A 
 380      7E2F2C05 
 380      B1260FD1 
 380      B6C3
 381 0587 252FE0DC 		.ascii	"%/\340\334\347\206\365\002\267\376\372\230q\350}\263"
 381      E786F502 
 381      B7FEFA98 
 381      71E87DB3 
 382 0597 50C06717 		.ascii	"P\300g\027\364K{\351\362\205\331\243\336,\024\317\331"
 382      F44B7BE9 
 382      F285D9A3 
 382      DE2C14CF 
 382      D9
 383 05a8 053CD307 		.ascii	"\005<\323\007\260!\006y\344`!\232\363\212\315K\363\375"
 383      B0210679 
 383      E460219A 
 383      F38ACD4B 
 383      F3FD
 384 05ba 5918FF1D 		.ascii	"Y\030\377\035\226\304\023\302\270\007:E\030\357\244"
 384      96C413C2 
 384      B8073A45 
 384      18EFA4
 385 05c9 E797E8F9 		.ascii	"\347\227\350\3715z>A\317\037\321\363\307\364\374\031"
 385      357A3E41 
 385      CF1FD1F3 
 385      C7F4FC19 
 386 05d9 3D9FA5E7 		.ascii	"=\237\245\347\357\351Y\025\310y\025=?I\317]\364\274"
 386      EFE95915 
 386      C879153D 
 386      3F49CF5D 
 386      F4BC
ARM GAS  /tmp/ccxZg1j1.s 			page 30


 387 05eb 969ED7D1 		.ascii	"\226\236\327\321\3633\364\274\321\314~\3670i\035\222"
 387      F333F4BC 
 387      D1CC7EF7 
 387      30691D92 
 388 05fb BD5530FA 		.ascii	"\275U0\372&yM\331_;\332YA\003\337\305\020\317\224\204"
 388      26794DD9 
 388      5F3BDA59 
 388      4103DFC5 
 388      10CF9484 
 389 060f 58E3AEE9 		.ascii	"X\343\256\351fN\323\347AS!\214\267Ru\236\343{\3742\277"
 389      664ED3E7 
 389      4153218C 
 389      B752759E 
 389      E37BFC32 
 390 0624 F1F678C3 		.ascii	"\361\366x\303\306\317/\366\356\237\3059\003;E\206\331"
 390      C6CF2FF6 
 390      EE9FC539 
 390      033B4586 
 390      D9
 391 0635 FF5E95B7 		.ascii	"\377^\225\2677\205_gtQ\310\225\014r0P\012\242\207>\353"
 391      37855F67 
 391      7451C895 
 391      0C723050 
 391      0AA2873E 
 392 064a 397D9E01 		.ascii	"9}\236\001}\3040~\226\352\263\205f\306\326b2\243\313"
 392      7DC4307E 
 392      96EAB385 
 392      66C6D662 
 392      32A3CB
 393 065d DC4039BE 		.ascii	"\334@9\276Wk;\301\355\277T\363\305\032\241\305O@/\320"
 393      576B3BC1 
 393      EDBF54F3 
 393      C51AA1C5 
 393      4F402FD0 
 394 0671 09688D9F 		.ascii	"\011h\215\237M@\003\217|0W\303-\006J@}\324t\273\343"
 394      4D40038F 
 394      7C3057C3 
 394      2D064A40 
 394      7DD474BB 
 395 0686 0CB49D9B 		.ascii	"\014\264\235\233\201\206:\353\035\304\020\335\006\260"
 395      81863AEB 
 395      1DC410DD 
 395      06B0
 396 0694 896895BE 		.ascii	"\211h\225\276XT\261B\007\000w-v\011\02350\372\205\253"
 396      5854B142 
 396      0700772D 
 396      76091335 
 396      30FA85AB 
 397 06a8 F457BB2F 		.ascii	"\364W\273/\323\221\370_L\203\377}\332}\372[\237\021"
 397      D391F85F 
 397      4C83FF7D 
 397      DA7DFA5B 
 397      9F11
 398 06ba 2D9F6D71 		.ascii	"-\237mq\342\263.N|lq\3423\027'\000\372\033\3213\206"
 398      E2B32E4E 
 398      7C6C71E2 
 398      33172700 
ARM GAS  /tmp/ccxZg1j1.s 			page 31


 398      FA1BD133 
 399 06cf 7CFB3B05 		.ascii	"|\373;\005\222h\317\005\214\366\217\177\363\326\277"
 399      9268CF05 
 399      8CF68F7F 
 399      F3D6BF
 400 06de AF7488AD 		.ascii	"\257t\210\255\346\251\273\016\257\012\226\321\302\302"
 400      E6A9BB0E 
 400      AF0A96D1 
 400      C2C2
 401 06ec DAF63F01 		.ascii	"\332\366?\001\375'`\304\015B~\252\243@n[]\321\017m\202"
 401      FD2760C4 
 401      0D427EAA 
 401      A3406E5B 
 401      5DD10F6D 
 402 0701 EC5AAAB6 		.ascii	"\354Z\252\266\211\306\236d\217\337\222-\326\336,\240"
 402      89C69E64 
 402      8FDF922D 
 402      D6DE2CA0 
 403 0711 4F68A3BD 		.ascii	"Oh\243\275\216\033\223^nc\322\3271\311!Y\364//Z\203"
 403      8E1B935E 
 403      6E63D2D7 
 403      31C92159 
 403      F42F2F5A 
 404 0726 7A94F73C 		.ascii	"z\224\367<\240\266\341\373\273/vk\223\327y\037\215\363"
 404      A0B6E1FB 
 404      BB2F766B 
 404      93D7791F 
 404      8DF3
 405 0738 D74CE74D 		.ascii	"\327L\347M\333^zC\327c\004h\007(\232Zn\356N\276x}\256"
 405      DB5E7A43 
 405      D7630468 
 405      07289A5A 
 405      6EEE4EBE 
 406 074f 2177D096 		.ascii	"!w\320\2264Ak\322\004Y\322\004\365\244\321\266\026h"
 406      34416BD2 
 406      0459D204 
 406      F5A4D1B6 
 406      1668
 407 0761 845602FA 		.ascii	"\204V\002\372c\271\241\354\300\300[\307O\212#\035O-"
 407      63B9A1EC 
 407      C0C05BC7 
 407      4F8A231D 
 407      4F2D
 408 0773 DFE3BCBE 		.ascii	"\337\343\274\276\243\021~\207\034{\375!\256\327\037"
 408      A3117E87 
 408      1C7BFD21 
 408      AED71F
 409 0782 ED70DA61 		.ascii	"\355p\332a\012\245of\337v\314\231\267\271\234\351\357"
 409      0AA56F66 
 409      DF76CC99 
 409      B7B99CE9 
 409      EF
 410 0793 98E89E33 		.ascii	"\230\350\2363N+$\"\226{\203\357\362+\244\207\251\272"
 410      4E2B2422 
 410      967B83EF 
 410      F22BA487 
 410      A9BA
ARM GAS  /tmp/ccxZg1j1.s 			page 32


 411 07a5 A4B5331D 		.ascii	"\244\2653\035\243\377.\326M\373\373J\2069X=\232\275"
 411      A3FF2ED6 
 411      4DFBFB4A 
 411      8639583D 
 411      9ABD
 412 07b7 4B27C521 		.ascii	"K'\305!\242\017uL\032-5m(\\\303 {;\013-\336\254\230"
 412      A20F754C 
 412      1A2D356D 
 412      285CC320 
 412      7B3B0B2D 
 413 07ce 3536     		.ascii	"56"
 414 07d0 725D2C2D 		.ascii	"r],-\373:'\216 '\031\320\332rc\270:\362\230I\311\031"
 414      FB3A278E 
 414      202719D0 
 414      DA7263B8 
 414      3AF29849 
 415 07e6 C9EBCB97 		.ascii	"\311\353\313\227\266?\320\276\204od\230\375\027\261"
 415      B63FD0BE 
 415      846F6498 
 415      FD17B1
 416 07f5 F9CDFA8D 		.ascii	"\371\315\372\215\233\277/j=\271\235\333\347\364\010"
 416      9BBF2F6A 
 416      3DB99DDB 
 416      E7F408
 417 0804 746EDF41 		.ascii	"tn\337Ag\365\327\350\371\203b\346\366n\301yn\327\302"
 417      67F5D7E8 
 417      F98362E6 
 417      F66EC179 
 417      6ED7C2
 418 0817 E36EF7A1 		.ascii	"\343n\367\241i7\031=\251v\035#A=7<\034\260M\246\256"
 418      6937193D 
 418      A9761D23 
 418      413D373C 
 418      1CB04DA6 
 419 082c 1FBF08C8 		.ascii	"\037\277\010\310\011}25g0\001me\203\334\251\327_8\035"
 419      097D3235 
 419      6730016D 
 419      6583DCA9 
 419      D75F381D 
 420 0840 331AB91C 		.ascii	"3\032\271\034\255\247c~k5\305$6\307\205\3116A\372\005"
 420      ADA7637E 
 420      6B35C524 
 420      36C785C9 
 420      3641FA05 
 421 0854 817F4088 		.ascii	"\201\177@\210\035ko_\332E\211i3\232\200\336/\347\346"
 421      1D6B6F5F 
 421      DA458969 
 421      339A80DE 
 421      2FE7E6
 422 0867 BE2F3B44 		.ascii	"\276/;D+\304\307\371\020#\363\355\023\353BASZd\277\350"
 422      2BC4C7F9 
 422      1023F3ED 
 422      13EB4241 
 422      535A64BF 
 423 087c 273DF68B 		.ascii	"'=\366\213h\315\313\000\317?\342t\370\362\254\256\303"
 423      68CDCB00 
 423      CF3FE274 
ARM GAS  /tmp/ccxZg1j1.s 			page 33


 423      F8F2ACAE 
 423      C3
 424 088d 65E8AFAA 		.ascii	"e\350\257\252\272\202\3201z\366YZ\355$Hq2\350LF\340"
 424      BA82D031 
 424      7AF6595A 
 424      ED244871 
 424      32E84C46 
 425 08a2 8DB4CD0D 		.ascii	"\215\264\315\015\263\3311\326\305\001\215 oI(\206\361"
 425      B3D931D6 
 425      C5018D20 
 425      6F492886 
 425      F1
 426 08b3 5141D04D 		.ascii	"QA\320M\317\215s5\245\336\350\251\345\0207b\315\342"
 426      CF8D7335 
 426      A5DEE8A9 
 426      E5103762 
 426      CDE2
 427 08c5 4A9F7C5A 		.ascii	"J\237|Z\202\350\236\253\263\257\235D\027\274dV\203\206"
 427      82E89EAB 
 427      B3AF9D44 
 427      17BC6456 
 427      8386
 428 08d7 CCFD1B27 		.ascii	"\314\375\033'9\213\034\306\237S\257\007\201\367\263"
 428      398B1CC6 
 428      9F53AF07 
 428      81F7B3
 429 08e6 2E226337 		.ascii	".\"c7\251\210Q\233\273\312yR\265\266\277\326\272@O\017"
 429      A988519B 
 429      BBCA7952 
 429      B5B6BFD6 
 429      BA404F0F 
 430 08fa CDBAC5CD 		.ascii	"\315\272\305\315]Z\343\334\017\225\257\347\355\322\001"
 430      5D5AE3DC 
 430      0F95AFE7 
 430      EDD201
 431 0909 056C916A 		.ascii	"\005l\221j9\223\352\310\316\213\362\245\242\251\265"
 431      3993EAC8 
 431      CE8BF2A5 
 431      A2A9B5
 432 0918 9AD61922 		.ascii	"\232\326\031\"\371\341\363L-\207\274\030\312\313\213"
 432      F9E1F34C 
 432      2D87BC18 
 432      CACB8B
 433 0927 E1129CF3 		.ascii	"\341\022\234\363\036\256\226\211\236\211\241\215f\026"
 433      1EAE9689 
 433      9E89A18D 
 433      6616
 434 0935 6F3B99B7 		.ascii	"o;\231\267\203\273\353\275\023c\2518\031\355+&1>\244"
 434      83BBEBBD 
 434      1363A938 
 434      19ED2B26 
 434      313EA4
 435 0948 5D760345 		.ascii	"]v\003E&F\036\335\2172rH\014#\205\211y\233\350\231\032"
 435      26461EDD 
 435      8F327248 
 435      0C238589 
 435      799BE899 
ARM GAS  /tmp/ccxZg1j1.s 			page 34


 436 095d 0F8A1EA3 		.ascii	"\017\212\036\243a)\251\361\220]<\262!\264\346\306f\246"
 436      6129A9F1 
 436      905D3CB2 
 436      21B4E6C6 
 436      66A6
 437 096f D6866FE7 		.ascii	"\326\206o\347\360\255\206\361\303^44p\001\275lv\303"
 437      F0AD86F1 
 437      C35E3434 
 437      7001BD6C 
 437      76C3
 438 0981 9F5ACD1F 		.ascii	"\237Z\315\037)\306|\0373\357\265\231\377\305j~)zZ\335"
 438      29C67C1F 
 438      33EFB599 
 438      FFC56A7E 
 438      297A5ADD 
 439 0995 730866E6 		.ascii	"s\010f\3466QU\207\206\207EcWz8h\016\267\207O\234d\311"
 439      36515587 
 439      86874563 
 439      577A3868 
 439      0EB7874F 
 440 09ac 6BDB8312 		.ascii	"k\333\203\022\310U&\244m\312$d\334e|T\254\344i\034\002"
 440      C85526A4 
 440      6DCA2464 
 440      DC657C54 
 440      ACE4691C 
 441 09c1 1AADD5AD 		.ascii	"\032\255\325\255\307\206\207'_\200\332\351\356\267\003"
 441      C7868727 
 441      5F80DAE9 
 441      EEB703
 442 09d0 303EC166 		.ascii	"0>\301f\036\267\231\013\204\013\250\035_\361\264W\305"
 442      1EB7990B 
 442      840BA81D 
 442      5FF1B457 
 442      C5
 443 09e1 30EE14B5 		.ascii	"0\356\024\265;\313\227\020Z\305\235\341c\242\266\340"
 443      3BCB9710 
 443      5AC59DE1 
 443      63A2B6E0 
 444 09f1 309749D6 		.ascii	"0\227I\3265\011\262\325#\037\233\202\306\\2\370D\225"
 444      3509B2D5 
 444      231F9B82 
 444      C65C32F8 
 444      4495
 445 0a03 2B1D0166 		.ascii	"+\035\001f'\254\033W\340\242\375\277\233\301Tz\272o"
 445      27AC1B57 
 445      E0A2FDBF 
 445      9BC1547A 
 445      BA6F
 446 0a15 AF17C64F 		.ascii	"\257\027\306O\215\300\373.W\357+,\336\033\365\340v\215"
 446      8DC0FB2E 
 446      57EF2B2C 
 446      DE1BF5E0 
 446      768D
 447 0a27 28E80397 		.ascii	"(\350\003\227\3715\331N\006\346h\213\357(\220lV\344"
 447      F935D94E 
 447      06E6688B 
 447      EF28906C 
ARM GAS  /tmp/ccxZg1j1.s 			page 35


 447      56E4
 448 0a39 1649F1DF 		.ascii	"\026I\361\337\370\353;k\352\320%\265\265\241\272X\274"
 448      F8EB3B6B 
 448      EAD025B5 
 448      B5A1BA58 
 448      BC
 449 0a4a 3E7EEB1D 		.ascii	">~\353\035\241t.\224UB\361T4\321\334 \207\242\261\244"
 449      A1742E94 
 449      5542F154 
 449      34D1DC20 
 449      87A2B1A4 
 450 0a5e D2521B43 		.ascii	"\322R\033C>j0N\211e\345HCN\372m\263\334,K\312\345\036"
 450      3E6A304E 
 450      8965E548 
 450      434EFA6D 
 450      B3DC2C4B 
 451 0a75 76B92539 		.ascii	"v\271%9eIF\316\201\361\370hL\262X^\352e\027\2155\200"
 451      654946CE 
 451      81F1F868 
 451      4CB2585E 
 451      EA65178D 
 452 0a8b 4DB96620 		.ascii	"M\271f )Af\354\317H)\271E\201K&+/\012(\231l<-)\263\362"
 452      294166EC 
 452      CF4829B9 
 452      45814B26 
 452      2B2F0A28 
 453 0aa6 B032E9AC 		.ascii	"\2602\351\254\222\013\315\277}a\335\302\226P4\235\314"
 453      920BCDBF 
 453      7D61DDC2 
 453      9650349D 
 453      CC
 454 0ab7 C4137236 		.ascii	"\304\023r6\027\272\261\256\016\340\015N\345\315\361"
 454      17BAB1AE 
 454      0EE00D4E 
 454      E5CDF1
 455 0ac6 943263BA 		.ascii	"\2242c\272\244\310\241X:)\207\022\221\346\254\234\212"
 455      A4C8A158 
 455      3A298712 
 455      91E6AC9C 
 455      8A
 456 0ad7 CAC46E2A 		.ascii	"\312\304n*\251Z\037O\205\000:\021\257\0175E\243\241"
 456      A95A1F4F 
 456      85003A11 
 456      AF0F3545 
 456      A3A1
 457 0ae9 48363935 		.ascii	"H695\225N\311S\345H}<4\263\366\332\332\231\344\337\354"
 457      954EC953 
 457      E5487D3C 
 457      34B3F6DA 
 457      DA99E4DF 
 458 0afe CFFA7FC3 		.ascii	"\317\372\177\303\235\234\322\000\315@s\224t<\035\210"
 458      9D9CD200 
 458      CD407394 
 458      743C1D88 
 459 0b0e A653A0A3 		.ascii	"\246S\240\243\362\263\002\244c\321tV\006\263J\362X\002"
 459      F2B302A4 
 459      63D17456 
ARM GAS  /tmp/ccxZg1j1.s 			page 36


 459      06B34AF2 
 459      5802
 460 0b20 88A8D2F2 		.ascii	"\210\250\322\362\363bl\244E\327&\211wY\271\011\030I"
 460      F3626CA4 
 460      45D72689 
 460      7759B909 
 460      1849
 461 0b32 8A909D29 		.ascii	"\212\220\235)d\257\021\262\263\204\354\265Bv\266\220"
 461      64AF11B2 
 461      B384ECB5 
 461      4276B690 
 462 0b42 9D2366A7 		.ascii	"\235#f\247]\015e\232\220\310\302e\206/#\001v\200H\273"
 462      5D0D659A 
 462      90C8C265 
 462      862F2301 
 462      768048BB 
 463 0b56 58CEC235 		.ascii	"X\316\3025\235h\220\263e\321X$K\364\216$\345r%\247D"
 463      9D6890B3 
 463      65D15824 
 463      4BF48E24 
 463      E57225A7 
 464 0b6b 14887680 		.ascii	"\024\210v\200H6\033\256\031\211>\011(\311t\203L\177"
 464      48361BAE 
 464      19893E09 
 464      28C97483 
 464      4C7F
 465 0b7d 3726224D 		.ascii	"7&\"M\271\200\222\225\033s\022\011\020\271\361%sM\360"
 465      B9809295 
 465      1B731209 
 465      10B9F125 
 465      734DF0
 466 0b90 4F5D667F 		.ascii	"O]f\177\266a\011<(\227[\342J\024\314\374\213\225t\375"
 466      B661093C 
 466      28975BE2 
 466      4A14CCFC 
 466      8B9574FD 
 467 0ba4 BD994A79 		.ascii	"\275\231Jy\221\234R\222\221\334}PE^Ln\304\214\324\\"
 467      919C5292 
 467      91DC7D50 
 467      455E4C6E 
 467      C48CD45C 
 468 0bb8 65A44B22 		.ascii	"e\244K\"\236S$e\034\227@\344I0#-\216\304\225x\252\251"
 468      9E532465 
 468      1C9740E4 
 468      4930232D 
 468      8EC49578 
 469 0bce 2223012A 		.ascii	"\"#\001*M*\037\275\205\007rFN\201\354MP\013\222\227"
 469      4D2A1FBD 
 469      85077246 
 469      4E81EC4D 
 469      500B9297 
 470 0be2 D4AF208C 		.ascii	"\324\257 \214\"\011\032\001x\230I\247\023\201\244\226"
 470      22091A01 
 470      789849A7 
 470      1381A496 
 471 0bf2 8A704D2F 		.ascii	"\212pM/N\311Y\177\222&\327\330\244\234Lg\227H19\222"
 471      4EC9597F 
ARM GAS  /tmp/ccxZg1j1.s 			page 37


 471      9226D7D8 
 471      A49C4C67 
 471      97483139 
 472 0c07 9114AF3C 		.ascii	"\221\024\257<%5H\2048\003\177.\376;\320\343\346\221"
 472      25354884 
 472      38037F2E 
 472      FE3BD0E3 
 472      E691
 473 0c19 67149737 		.ascii	"g\024\2277\015r#\300\217\001\370&YilNE%e\212W7\225\223"
 473      0D7223C0 
 473      8F01F826 
 473      59696C4E 
 473      4525658A 
 474 0c31 7ACE54C4 		.ascii	"z\316T\304 \325\322\213\342\020\306J\352\006\234\340"
 474      20D5D28B 
 474      E210C64A 
 474      EA069CE0 
 475 0c41 BE22A7DC 		.ascii	"\276\"\247\334\027I\304\233R\222Bs\177\326LI\361\321"
 475      1749C49B 
 475      52924273 
 475      7FD64C49 
 475      F1D1
 476 0c53 0765C4F1 		.ascii	"\007e\304\3612R\0257\227\021\027p\314\037\223\032\263"
 476      32521537 
 476      97111770 
 476      CC1F931A 
 476      B3
 477 0c64 B2EC8B11 		.ascii	"\262\354\213\021\005+45\342\251\2702)\217A.\0335\304"
 477      052B3435 
 477      E2A9B832 
 477      298F412E 
 477      1B35C4
 478 0c77 88A2CA68 		.ascii	"\210\242\312h\254\016H\314O$\322Q\350\364\013\340\351"
 478      AC0E48CC 
 478      4F24D251 
 478      E8F40BE0 
 478      E9
 479 0c88 ADF5F7CA 		.ascii	"\255\365\367\312Q\345&\260\365\221J\031\261\276\271"
 479      51E526B0 
 479      F5914A19 
 479      B1BEB9
 480 0c97 B152FB17 		.ascii	"\261R\373\027\255V\241\335\377\022Z\303\2311\332\217"
 480      AD56A1DD 
 480      FF125AC3 
 480      9931DA8F 
 481 0ca7 3B20BB9A 		.ascii	"; \273\232s>B%\003\241_\250\264\230(\225\364\367\235"
 481      733E4225 
 481      03A15FA8 
 481      B4982895 
 481      F4F79D
 482 0cba 2930BD2F 		.ascii	")0\275/H\357o\201\2731\240V\2449\241P\246\345\222D\365"
 482      48EF6F81 
 482      BB31A056 
 482      A439A150 
 482      A6E59244 
 483 0ccf 92C61A37 		.ascii	"\222\306\0327\265\263\246\315\230\315\377\272\346\232"
 483      B5B3A6CD 
ARM GAS  /tmp/ccxZg1j1.s 			page 38


 483      98CDFFBA 
 483      E69A
 484 0cdd FF037616 		.ascii	"\377\003v\026\266x"
 484      B678
 485              		.text
 486              		.section	.gnu.lto_.symtab.a4793cfbb9fd47c2,"",%progbits
 487 0000 5F686561 		.ascii	"_heap_init\000\000\000\000\000\000\000\000\000\000\000"
 487      705F696E 
 487      69740000 
 487      00000000 
 487      00000000 
 488 0015 00620100 		.ascii	"\000b\001\000\000chHeapObjectInit\000\000\000\000\000"
 488      00636848 
 488      6561704F 
 488      626A6563 
 488      74496E69 
 489 002f 00000000 		.ascii	"\000\000\000\000\000\000\000h\001\000\000chHeapAllo"
 489      00000068 
 489      01000063 
 489      68486561 
 489      70416C6C 
 490 0044 63000000 		.ascii	"c\000\000\000\000\000\000\000\000\000\000\000\000t\001"
 490      00000000 
 490      00000000 
 490      007401
 491 0053 00006368 		.ascii	"\000\000chHeapFree\000\000\000\000\000\000\000\000\000"
 491      48656170 
 491      46726565 
 491      00000000 
 491      00000000 
 492 0068 0000007C 		.ascii	"\000\000\000|\001\000\000chHeapStatus\000\000\000\000"
 492      01000063 
 492      68486561 
 492      70537461 
 492      74757300 
 493 007f 00000000 		.ascii	"\000\000\000\000\000\000\000\000\203\001\000\000chC"
 493      00000000 
 493      83010000 
 493      636843
 494 008e 6F726541 		.ascii	"oreAlloc\000\000\002\000\000\000\000\000\000\000\000"
 494      6C6C6F63 
 494      00000200 
 494      00000000 
 494      000000
 495 00a1 00660100 		.ascii	"\000f\001\000\000chMtxObjectInit\000\000\002\000\000"
 495      0063684D 
 495      74784F62 
 495      6A656374 
 495      496E6974 
 496 00ba 00000000 		.ascii	"\000\000\000\000\000\000\000\214\001\000\000chMtxUn"
 496      0000008C 
 496      01000063 
 496      684D7478 
 496      556E
 497 00cc 6C6F636B 		.ascii	"lock\000\000\002\000\000\000\000\000\000\000\000\000"
 497      00000200 
 497      00000000 
ARM GAS  /tmp/ccxZg1j1.s 			page 39


 497      00000000 
 498 00dc 90010000 		.ascii	"\220\001\000\000chMtxLock\000\000\002\000\000\000\000"
 498      63684D74 
 498      784C6F63 
 498      6B000002 
 498      00000000 
 499 00f0 00000000 		.ascii	"\000\000\000\000\000\222\001\000\000"
 499      00920100 
 499      00
 500              		.text
 501              		.section	.gnu.lto_.opts,"",%progbits
 502 0000 272D6444 		.ascii	"'-dD''-mcpu=cortex-m3''-mno-thumb-interwork''-mthum"
 502      27272D6D 
 502      6370753D 
 502      636F7274 
 502      65782D6D 
 503 0033 6227272D 		.ascii	"b''-ggdb''-g3''-O2''-fomit-frame-pointer''-falign-f"
 503      67676462 
 503      27272D67 
 503      3327272D 
 503      4F322727 
 504 0066 756E6374 		.ascii	"unctions=16''-ffunction-sections''-fdata-sections''"
 504      696F6E73 
 504      3D313627 
 504      272D6666 
 504      756E6374 
 505 0099 2D666E6F 		.ascii	"-fno-common''-flto'\000"
 505      2D636F6D 
 505      6D6F6E27 
 505      272D666C 
 505      746F2700 
 506              		.text
 507              		.cfi_sections	.debug_frame
 508              		.section	.text._heap_init,"ax",%progbits
 509              		.align	2
 510              		.p2align 4,,15
 511              		.global	_heap_init
 512              		.thumb
 513              		.thumb_func
 514              		.type	_heap_init, %function
 515              	_heap_init:
 516              	.LFB170:
 517              		.file 1 "../ChibiOS/os/rt/src/chheap.c"
 518              		.loc 1 85 0
 519              		.cfi_startproc
 520              		@ args = 0, pretend = 0, frame = 0
 521              		@ frame_needed = 0, uses_anonymous_args = 0
 522              		@ link register save eliminated.
 523              		.loc 1 86 0
 524 0000 40F20003 		movw	r3, #:lower16:.LANCHOR0
 525 0004 C0F20003 		movt	r3, #:upper16:.LANCHOR0
 526 0008 40F20001 		movw	r1, #:lower16:chCoreAlloc
 527              		.loc 1 87 0
 528 000c 0022     		movs	r2, #0
 529              		.loc 1 86 0
 530 000e C0F20001 		movt	r1, #:upper16:chCoreAlloc
 531              		.loc 1 90 0
ARM GAS  /tmp/ccxZg1j1.s 			page 40


 532 0012 03F11000 		add	r0, r3, #16
 533              		.loc 1 86 0
 534 0016 1960     		str	r1, [r3, #0]
 535              		.loc 1 87 0
 536 0018 9A60     		str	r2, [r3, #8]
 537              		.loc 1 88 0
 538 001a DA60     		str	r2, [r3, #12]
 539              		.loc 1 94 0
 540              		.loc 1 90 0
 541 001c FFF7FEBF 		b	chMtxObjectInit
 542              	.LVL0:
 543              		.cfi_endproc
 544              	.LFE170:
 545              		.size	_heap_init, .-_heap_init
 546              		.section	.text.chHeapObjectInit,"ax",%progbits
 547              		.align	2
 548              		.p2align 4,,15
 549              		.global	chHeapObjectInit
 550              		.thumb
 551              		.thumb_func
 552              		.type	chHeapObjectInit, %function
 553              	chHeapObjectInit:
 554              	.LFB171:
 555              		.loc 1 107 0
 556              		.cfi_startproc
 557              		@ args = 0, pretend = 0, frame = 0
 558              		@ frame_needed = 0, uses_anonymous_args = 0
 559              		@ link register save eliminated.
 560              	.LVL1:
 561              		.loc 1 112 0
 562 0000 0023     		movs	r3, #0
 563 0002 0360     		str	r3, [r0, #0]
 564              	.LVL2:
 565              		.loc 1 113 0
 566 0004 8160     		str	r1, [r0, #8]
 567              		.loc 1 114 0
 568 0006 C360     		str	r3, [r0, #12]
 569              		.loc 1 116 0
 570 0008 083A     		subs	r2, r2, #8
 571              	.LVL3:
 572              		.loc 1 118 0
 573 000a 1030     		adds	r0, r0, #16
 574              	.LVL4:
 575              		.loc 1 115 0
 576 000c 0B60     		str	r3, [r1, #0]
 577              		.loc 1 116 0
 578 000e 4A60     		str	r2, [r1, #4]
 579              		.loc 1 122 0
 580              		.loc 1 118 0
 581 0010 FFF7FEBF 		b	chMtxObjectInit
 582              	.LVL5:
 583              		.cfi_endproc
 584              	.LFE171:
 585              		.size	chHeapObjectInit, .-chHeapObjectInit
 586 0014 AFF30080 		.section	.text.chHeapAlloc,"ax",%progbits
 586      AFF30080 
 586      AFF30080 
ARM GAS  /tmp/ccxZg1j1.s 			page 41


 587              		.align	2
 588              		.p2align 4,,15
 589              		.global	chHeapAlloc
 590              		.thumb
 591              		.thumb_func
 592              		.type	chHeapAlloc, %function
 593              	chHeapAlloc:
 594              	.LFB172:
 595              		.loc 1 140 0
 596              		.cfi_startproc
 597              		@ args = 0, pretend = 0, frame = 0
 598              		@ frame_needed = 0, uses_anonymous_args = 0
 599              	.LVL6:
 600 0000 F8B5     		push	{r3, r4, r5, r6, r7, lr}
 601              	.LCFI0:
 602              		.cfi_def_cfa_offset 24
 603              		.cfi_offset 3, -24
 604              		.cfi_offset 4, -20
 605              		.cfi_offset 5, -16
 606              		.cfi_offset 6, -12
 607              		.cfi_offset 7, -8
 608              		.cfi_offset 14, -4
 609              		.loc 1 144 0
 610 0002 224E     		ldr	r6, .L20
 611              		.loc 1 146 0
 612 0004 0731     		adds	r1, r1, #7
 613              	.LVL7:
 614              		.loc 1 144 0
 615 0006 0028     		cmp	r0, #0
 616 0008 18BF     		it	ne
 617 000a 0646     		movne	r6, r0
 618              		.loc 1 148 0
 619 000c 06F11007 		add	r7, r6, #16
 620 0010 3846     		mov	r0, r7
 621              	.LVL8:
 622              		.loc 1 146 0
 623 0012 21F00705 		bic	r5, r1, #7
 624              	.LVL9:
 625              		.loc 1 147 0
 626 0016 06F10804 		add	r4, r6, #8
 627              	.LVL10:
 628              		.loc 1 148 0
 629 001a FFF7FEFF 		bl	chMtxLock
 630              	.LVL11:
 631              		.loc 1 150 0
 632 001e 00E0     		b	.L5
 633              	.LVL12:
 634              	.L13:
 635              		.loc 1 152 0
 636 0020 1C46     		mov	r4, r3
 637              	.LVL13:
 638              	.L5:
 639              		.loc 1 150 0 discriminator 1
 640 0022 2368     		ldr	r3, [r4, #0]
 641              	.LVL14:
 642 0024 03B3     		cbz	r3, .L18
 643              		.loc 1 152 0
ARM GAS  /tmp/ccxZg1j1.s 			page 42


 644 0026 5A68     		ldr	r2, [r3, #4]
 645 0028 9542     		cmp	r5, r2
 646 002a F9D8     		bhi	.L13
 647              		.loc 1 153 0
 648 002c 05F10801 		add	r1, r5, #8
 649 0030 9142     		cmp	r1, r2
 650 0032 16D8     		bhi	.L19
 651              		.loc 1 163 0
 652 0034 4FF6F87E 		movw	lr, #65528
 653 0038 CFF6FF7E 		movt	lr, 65535
 654 003c C5EB0E0C 		rsb	ip, r5, lr
 655 0040 0CEB020E 		add	lr, ip, r2
 656              		.loc 1 162 0
 657 0044 1A68     		ldr	r2, [r3, #0]
 658              		.loc 1 161 0
 659 0046 5818     		adds	r0, r3, r1
 660              	.LVL15:
 661              		.loc 1 162 0
 662 0048 5A50     		str	r2, [r3, r1]
 663              		.loc 1 163 0
 664 004a C0F804E0 		str	lr, [r0, #4]
 665              		.loc 1 164 0
 666 004e 2060     		str	r0, [r4, #0]
 667              		.loc 1 165 0
 668 0050 5D60     		str	r5, [r3, #4]
 669              	.LVL16:
 670              	.L7:
 671              		.loc 1 167 0
 672 0052 1C46     		mov	r4, r3
 673              	.LVL17:
 674 0054 44F8086B 		str	r6, [r4], #8
 675              		.loc 1 169 0
 676 0058 3846     		mov	r0, r7
 677 005a FFF7FEFF 		bl	chMtxUnlock
 678              	.LVL18:
 679              	.L8:
 680              		.loc 1 189 0
 681 005e 2046     		mov	r0, r4
 682 0060 F8BD     		pop	{r3, r4, r5, r6, r7, pc}
 683              	.LVL19:
 684              	.L19:
 685              		.loc 1 157 0
 686 0062 1968     		ldr	r1, [r3, #0]
 687 0064 2160     		str	r1, [r4, #0]
 688 0066 F4E7     		b	.L7
 689              	.L18:
 690              		.loc 1 175 0
 691 0068 3846     		mov	r0, r7
 692 006a FFF7FEFF 		bl	chMtxUnlock
 693              	.LVL20:
 694              		.loc 1 179 0
 695 006e 3268     		ldr	r2, [r6, #0]
 696 0070 4AB1     		cbz	r2, .L11
 697              		.loc 1 180 0
 698 0072 05F10800 		add	r0, r5, #8
 699 0076 9047     		blx	r2
 700              	.LVL21:
ARM GAS  /tmp/ccxZg1j1.s 			page 43


 701              		.loc 1 181 0
 702 0078 28B1     		cbz	r0, .L11
 703              		.loc 1 185 0
 704 007a 00F10804 		add	r4, r0, #8
 705              	.LVL22:
 706              		.loc 1 182 0
 707 007e 0660     		str	r6, [r0, #0]
 708              		.loc 1 183 0
 709 0080 4560     		str	r5, [r0, #4]
 710              	.LVL23:
 711              		.loc 1 189 0
 712 0082 2046     		mov	r0, r4
 713 0084 F8BD     		pop	{r3, r4, r5, r6, r7, pc}
 714              	.LVL24:
 715              	.L11:
 716              		.loc 1 188 0
 717 0086 0024     		movs	r4, #0
 718              	.LVL25:
 719 0088 E9E7     		b	.L8
 720              	.L21:
 721 008a 00BF     		.align	2
 722              	.L20:
 723 008c 00000000 		.word	.LANCHOR0
 724              		.cfi_endproc
 725              	.LFE172:
 726              		.size	chHeapAlloc, .-chHeapAlloc
 727              		.section	.text.chHeapFree,"ax",%progbits
 728              		.align	2
 729              		.p2align 4,,15
 730              		.global	chHeapFree
 731              		.thumb
 732              		.thumb_func
 733              		.type	chHeapFree, %function
 734              	chHeapFree:
 735              	.LFB173:
 736              		.loc 1 202 0
 737              		.cfi_startproc
 738              		@ args = 0, pretend = 0, frame = 0
 739              		@ frame_needed = 0, uses_anonymous_args = 0
 740              	.LVL26:
 741 0000 F8B5     		push	{r3, r4, r5, r6, r7, lr}
 742              	.LCFI1:
 743              		.cfi_def_cfa_offset 24
 744              		.cfi_offset 3, -24
 745              		.cfi_offset 4, -20
 746              		.cfi_offset 5, -16
 747              		.cfi_offset 6, -12
 748              		.cfi_offset 7, -8
 749              		.cfi_offset 14, -4
 750              		.loc 1 209 0
 751 0002 50F8085C 		ldr	r5, [r0, #-8]
 752              		.loc 1 202 0
 753 0006 0646     		mov	r6, r0
 754              		.loc 1 211 0
 755 0008 05F11007 		add	r7, r5, #16
 756              		.loc 1 208 0
 757 000c A0F10804 		sub	r4, r0, #8
ARM GAS  /tmp/ccxZg1j1.s 			page 44


 758              	.LVL27:
 759              		.loc 1 210 0
 760 0010 0835     		adds	r5, r5, #8
 761              	.LVL28:
 762              		.loc 1 211 0
 763 0012 3846     		mov	r0, r7
 764              	.LVL29:
 765 0014 FFF7FEFF 		bl	chMtxLock
 766              	.LVL30:
 767              		.loc 1 210 0
 768 0018 2B46     		mov	r3, r5
 769              	.LVL31:
 770              	.L29:
 771              		.loc 1 216 0
 772 001a AB42     		cmp	r3, r5
 773              		.loc 1 217 0
 774 001c 1A68     		ldr	r2, [r3, #0]
 775              		.loc 1 216 0
 776 001e 01D0     		beq	.L23
 777              		.loc 1 216 0 is_stmt 0 discriminator 2
 778 0020 A342     		cmp	r3, r4
 779 0022 02D2     		bcs	.L26
 780              	.L23:
 781              		.loc 1 216 0 discriminator 1
 782 0024 1AB1     		cbz	r2, .L25
 783              		.loc 1 217 0 is_stmt 1
 784 0026 9442     		cmp	r4, r2
 785 0028 01D3     		bcc	.L25
 786              	.L26:
 787              	.LVL32:
 788              		.loc 1 234 0
 789 002a 1346     		mov	r3, r2
 790              		.loc 1 235 0
 791 002c F5E7     		b	.L29
 792              	.LVL33:
 793              	.L25:
 794              		.loc 1 222 0
 795 002e 56F8041C 		ldr	r1, [r6, #-4]
 796              		.loc 1 219 0
 797 0032 46F8082C 		str	r2, [r6, #-8]
 798              		.loc 1 220 0
 799 0036 1C60     		str	r4, [r3, #0]
 800              		.loc 1 222 0
 801 0038 01F10802 		add	r2, r1, #8
 802 003c 56F8085C 		ldr	r5, [r6, #-8]
 803              	.LVL34:
 804 0040 A018     		adds	r0, r4, r2
 805 0042 A842     		cmp	r0, r5
 806 0044 0AD0     		beq	.L33
 807              		.loc 1 227 0
 808 0046 5A68     		ldr	r2, [r3, #4]
 809 0048 02F10800 		add	r0, r2, #8
 810 004c 1918     		adds	r1, r3, r0
 811 004e 8C42     		cmp	r4, r1
 812 0050 12D0     		beq	.L34
 813              	.L28:
 814              		.loc 1 237 0
ARM GAS  /tmp/ccxZg1j1.s 			page 45


 815 0052 3846     		mov	r0, r7
 816              		.loc 1 239 0
 817 0054 BDE8F840 		pop	{r3, r4, r5, r6, r7, lr}
 818              		.loc 1 237 0
 819 0058 FFF7FEBF 		b	chMtxUnlock
 820              	.LVL35:
 821              	.L33:
 822              		.loc 1 224 0
 823 005c 4068     		ldr	r0, [r0, #4]
 824              		.loc 1 225 0
 825 005e A258     		ldr	r2, [r4, r2]
 826              		.loc 1 224 0
 827 0060 0918     		adds	r1, r1, r0
 828 0062 0831     		adds	r1, r1, #8
 829 0064 46F8041C 		str	r1, [r6, #-4]
 830              		.loc 1 225 0
 831 0068 46F8082C 		str	r2, [r6, #-8]
 832              		.loc 1 227 0
 833 006c 5A68     		ldr	r2, [r3, #4]
 834 006e 02F10800 		add	r0, r2, #8
 835 0072 1918     		adds	r1, r3, r0
 836 0074 8C42     		cmp	r4, r1
 837 0076 ECD1     		bne	.L28
 838              	.L34:
 839              		.loc 1 229 0
 840 0078 56F8040C 		ldr	r0, [r6, #-4]
 841              		.loc 1 230 0
 842 007c 56F8081C 		ldr	r1, [r6, #-8]
 843              		.loc 1 229 0
 844 0080 1218     		adds	r2, r2, r0
 845 0082 0832     		adds	r2, r2, #8
 846              		.loc 1 230 0
 847 0084 83E80600 		stmia	r3, {r1, r2}
 848 0088 E3E7     		b	.L28
 849              		.cfi_endproc
 850              	.LFE173:
 851              		.size	chHeapFree, .-chHeapFree
 852 008a 00BFAFF3 		.section	.text.chHeapStatus,"ax",%progbits
 852      0080
 853              		.align	2
 854              		.p2align 4,,15
 855              		.global	chHeapStatus
 856              		.thumb
 857              		.thumb_func
 858              		.type	chHeapStatus, %function
 859              	chHeapStatus:
 860              	.LFB174:
 861              		.loc 1 254 0
 862              		.cfi_startproc
 863              		@ args = 0, pretend = 0, frame = 0
 864              		@ frame_needed = 0, uses_anonymous_args = 0
 865              	.LVL36:
 866 0000 F8B5     		push	{r3, r4, r5, r6, r7, lr}
 867              	.LCFI2:
 868              		.cfi_def_cfa_offset 24
 869              		.cfi_offset 3, -24
 870              		.cfi_offset 4, -20
ARM GAS  /tmp/ccxZg1j1.s 			page 46


 871              		.cfi_offset 5, -16
 872              		.cfi_offset 6, -12
 873              		.cfi_offset 7, -8
 874              		.cfi_offset 14, -4
 875              		.loc 1 259 0
 876 0002 0E4C     		ldr	r4, .L46
 877              		.loc 1 254 0
 878 0004 0F46     		mov	r7, r1
 879              		.loc 1 259 0
 880 0006 0028     		cmp	r0, #0
 881 0008 18BF     		it	ne
 882 000a 0446     		movne	r4, r0
 883              		.loc 1 261 0
 884 000c 04F11006 		add	r6, r4, #16
 885 0010 3046     		mov	r0, r6
 886              	.LVL37:
 887 0012 FFF7FEFF 		bl	chMtxLock
 888              	.LVL38:
 889              		.loc 1 264 0
 890 0016 A368     		ldr	r3, [r4, #8]
 891 0018 6BB1     		cbz	r3, .L41
 892 001a 0022     		movs	r2, #0
 893 001c 1446     		mov	r4, r2
 894              	.LVL39:
 895              	.L38:
 896              		.loc 1 264 0 is_stmt 0 discriminator 2
 897 001e 28CB     		ldmia	r3, {r3, r5}
 898 0020 0134     		adds	r4, r4, #1
 899              		.loc 1 265 0 is_stmt 1 discriminator 2
 900 0022 5219     		adds	r2, r2, r5
 901              	.LVL40:
 902              		.loc 1 264 0 discriminator 2
 903 0024 002B     		cmp	r3, #0
 904 0026 FAD1     		bne	.L38
 905              	.LVL41:
 906              	.L37:
 907              		.loc 1 266 0
 908 0028 07B1     		cbz	r7, .L39
 909              		.loc 1 267 0
 910 002a 3A60     		str	r2, [r7, #0]
 911              	.L39:
 912              		.loc 1 269 0
 913 002c 3046     		mov	r0, r6
 914 002e FFF7FEFF 		bl	chMtxUnlock
 915              	.LVL42:
 916              		.loc 1 271 0
 917 0032 2046     		mov	r0, r4
 918 0034 F8BD     		pop	{r3, r4, r5, r6, r7, pc}
 919              	.LVL43:
 920              	.L41:
 921              		.loc 1 263 0
 922 0036 1A46     		mov	r2, r3
 923              		.loc 1 264 0
 924 0038 1C46     		mov	r4, r3
 925 003a F5E7     		b	.L37
 926              	.L47:
 927              		.align	2
ARM GAS  /tmp/ccxZg1j1.s 			page 47


 928              	.L46:
 929 003c 00000000 		.word	.LANCHOR0
 930              		.cfi_endproc
 931              	.LFE174:
 932              		.size	chHeapStatus, .-chHeapStatus
 933              		.section	.bss.default_heap,"aw",%nobits
 934              		.align	3
 935              		.set	.LANCHOR0,. + 0
 936              		.type	default_heap, %object
 937              		.size	default_heap, 32
 938              	default_heap:
 939 0000 00000000 		.space	32
 939      00000000 
 939      00000000 
 939      00000000 
 939      00000000 
 940              		.text
 941              	.Letext0:
 942              		.file 2 "/home/laurence/ARM-GCC/bin/../lib/gcc/arm-none-eabi/4.7.4/include/stddef.h"
 943              		.file 3 "/home/laurence/ARM-GCC/bin/../lib/gcc/arm-none-eabi/4.7.4/../../../../arm-none-eabi/inclu
 944              		.file 4 "../ChibiOS/os/rt/ports/ARMCMx/compilers/GCC/chtypes.h"
 945              		.file 5 "../ChibiOS/os/rt/include/chsystypes.h"
 946              		.file 6 "../ChibiOS/os/rt/include/chschd.h"
 947              		.file 7 "../ChibiOS/os/rt/ports/ARMCMx/chcore.h"
 948              		.file 8 "../ChibiOS/os/rt/ports/ARMCMx/chcore_v7m.h"
 949              		.file 9 "../ChibiOS/os/rt/include/chtm.h"
 950              		.file 10 "../ChibiOS/os/rt/include/chmtx.h"
 951              		.file 11 "../ChibiOS/os/rt/include/chmemcore.h"
 952              		.file 12 "../ChibiOS/os/rt/include/chheap.h"
 953              		.file 13 "../ChibiOS/os/ext/CMSIS/include/core_cm3.h"