ARM GAS  /tmp/ccFAcAZy.s 			page 1


   1              		.syntax unified
   2              		.cpu cortex-m3
   3              		.fpu softvfp
   4              		.eabi_attribute 20, 1
   5              		.eabi_attribute 21, 1
   6              		.eabi_attribute 23, 3
   7              		.eabi_attribute 24, 1
   8              		.eabi_attribute 25, 1
   9              		.eabi_attribute 26, 1
  10              		.eabi_attribute 30, 2
  11              		.eabi_attribute 34, 1
  12              		.eabi_attribute 18, 4
  13              		.thumb
  14              		.file	"chmempools.c"
  15              		.text
  16              	.Ltext0:
  17              		.section	.gnu.lto_.jmpfuncs.e904452d61ce95e4,"",%progbits
  18 0000 789C6362 		.ascii	"x\234cb`d`g\300\016$\2404\033\003;#;\023##C=\003\003"
  18      60646067 
  18      C00E24A0 
  18      341B033B 
  18      233B1323 
  19 0019 33846261 		.ascii	"3\204bafef\000\000\023a\001N"
  19      66656600 
  19      00136101 
  19      4E
  20              		.text
  21              		.section	.gnu.lto_.inline.e904452d61ce95e4,"",%progbits
  22 0000 789C6362 		.ascii	"x\234cb`d\340e\300\016\212\2414\033\020\2612201\357"
  22      6064E065 
  22      C00E8AA1 
  22      341B10B1 
  22      32323031 
  23 0015 1067E0BC 		.ascii	"\020g\340\274a\306\004\322\362\022H0\011\366\337\343"
  23      61C604D2 
  23      F2124830 
  23      09F6DFE3 
  24 0025 62E09CDB 		.ascii	"b\340\234\333\303\304\304\300\304 \310\005\024\341\233"
  24      C3C4C4C0 
  24      C420C805 
  24      14E19B
  25 0034 E6CCC035 		.ascii	"\346\314\3005\303\200\211\201U\220\201\201q\202\037"
  25      C3808981 
  25      55908181 
  25      71821F
  26 0043 3383300F 		.ascii	"3\2030\017PXh[\022\2120\013\232\201\254\014\034\354"
  26      5058685B 
  26      128A300B 
  26      9A81AC0C 
  26      1CEC
  27 0055 403EFB0D 		.ascii	"@>\373\0153\010\237\001\000\325\025\020e"
  27      33089F01 
  27      00D51510 
  27      65
  28              		.text
  29              		.section	.gnu.lto_.pureconst.e904452d61ce95e4,"",%progbits
  30 0000 789C6362 		.ascii	"x\234cb`d`f``\340e\200\0006\006)F+&)f+\026)V+\000\007"
ARM GAS  /tmp/ccFAcAZy.s 			page 2


  30      60646066 
  30      6060E065 
  30      80003606 
  30      29462B26 
  31 001d EA0125   		.ascii	"\352\001%"
  32              		.text
  33              		.section	.gnu.lto_chPoolObjectInit.e904452d61ce95e4,"",%progbits
  34 0000 789C7591 		.ascii	"x\234u\2211K\003A\020\205\337\314^B\032\301\366\272"
  34      314B0341 
  34      1085DFCC 
  34      5E421AC1 
  34      F6BA
  35 0012 20114431 		.ascii	" \021D1\207\205`o#XH\024\301&\012\236\01390\\\270\023"
  35      8785606F 
  35      23584814 
  35      C1260A9E 
  35      0B39305C 
  36 0028 0B0B7346 		.ascii	"\013\013sF\177@\2602\227F\214XZX\246\321\302B\202\304"
  36      7F40B032 
  36      97468C58 
  36      5A58A6D1 
  36      C24282C4 
  37 003c C6D2C21F 		.ascii	"\306\322\302\037\"\350\354\235\221\203\230Y\2067\260"
  37      22E8EC9D 
  37      91839859 
  37      8637B0
  38 004b EF9B6176 		.ascii	"\357\233av\031$g<l\311\007\271X\026%\005\342\366\020"
  38      1924673C 
  38      6CC907B9 
  38      58162505 
  38      E2F610
  39 005e 382B3291 		.ascii	"8+2\221)\004i25\267Sr\320\355\275\321{\234\177\344\247"
  39      29046932 
  39      35B75372 
  39      D0EDBDD1 
  39      7B9C7FE4 
  40 0073 CFEF6609 		.ascii	"\317\357f\011\275(\272l\237Gk\232\300\230%\354\021>"
  40      BD28BA6C 
  40      9F476B9A 
  40      C09825EC 
  40      113E
  41 0085 3A7DB6A1 		.ascii	":}\266\241\211P\204Q\206% g\275\2121\227x\257\246\306"
  41      89508451 
  41      86252067 
  41      BD8A3197 
  41      78AFA6C6 
  42 0099 9D522864 		.ascii	"\235R(d\335\026c1q\277,\375\353\266$\201\002Q\225\256"
  42      DD166331 
  42      71BF2CFD 
  42      EBB62481 
  42      025195AE 
  43 00ad A90416BD 		.ascii	"\251\004\026\275\021U\242\267\242\0229\\D\3214yI\227"
  43      1155A2B7 
  43      A212395C 
  43      44D13479 
  43      4997
  44 00bf 242A46CD 		.ascii	"$*F\315z\233\322\307\024j\200\326\312W\347\264Jw\224"
ARM GAS  /tmp/ccFAcAZy.s 			page 3


  44      7A9BD2C7 
  44      146A80D6 
  44      CA57E7B4 
  44      4A7794
  45 00d2 C302E635 		.ascii	"\303\002\3465\345T\214\016i\312\263Kd'C\200\035\311"
  45      E5548C0E 
  45      69CAB34B 
  45      64274380 
  45      1DC9
  46 00e4 5DFA7B39 		.ascii	"]\372{9q\245\357\202\326\372s\334\247\014\256&\343\277"
  46      71A5EF82 
  46      D6FA73DC 
  46      A70CAE26 
  46      E3BF
  47 00f6 BC6B661B 		.ascii	"\274kf\033\3625\276\317\222\326d\222G\244\002\2060?"
  47      F235BECF 
  47      92D66492 
  47      47A40286 
  47      303F
  48 0108 9172A3A8 		.ascii	"\221r\243\250\230\336\262\216\361\315\224\313\316j\315"
  48      98DEB28E 
  48      F1CD94CB 
  48      CE6ACD
  49 0117 DBF736B6 		.ascii	"\333\3676\266\034?t\202#'\014\\\307\255\325u\275\341"
  49      1C3F7482 
  49      23270C5C 
  49      C7ADD575 
  49      BDE1
  50 0129 FB8761D9 		.ascii	"\373\207a\331\005\327\033V\350\235\350B#\360\217\275"
  50      05D71B56 
  50      E89DE842 
  50      23F08FBD 
  51 0139 031DFC00 		.ascii	"\003\035\374\000*\330aa"
  51      2AD86161 
  52              		.text
  53              		.section	.gnu.lto_chPoolLoadArray.e904452d61ce95e4,"",%progbits
  54 0000 789C9555 		.ascii	"x\234\225U_HSQ\030\377\276s\356\335f\016\262G\013l\210"
  54      5F485351 
  54      18FFBE73 
  54      EEDD660E 
  54      B2470B6C 
  55 0015 86A86CBE 		.ascii	"\206\250l\276\025DP\010\241\017#T\002\021n\242\267\033"
  55      15445008 
  55      A10F2354 
  55      02116EA2 
  55      B71B
  56 0027 5B383736 		.ascii	"[876\025{\3115}\220H\220(\260R\310,\351\217\022&\024"
  56      157BC935 
  56      7D904890 
  56      28B052C8 
  56      2CE98F12 
  57 003d 05599015 		.ascii	"\005Y\220\025,\263\207J|\210\020\014\202\350\251\227"
  57      2CB3874A 
  57      7C88100C 
  57      82E8A997 
  58 004d 4402FBCE 		.ascii	"D\002\373\316\271wssW[g\354~\347\236\363\375~\337w~"
  58      B9777373 
ARM GAS  /tmp/ccFAcAZy.s 			page 4


  58      575B67EC 
  58      7EE79EF3 
  58      FD7EDF77 
  59 0062 E79CEF32 		.ascii	"\347\234\3572@\372\345\266#\364?\354\004X&\213\016@"
  59      40FAE5B6 
  59      23F43FEC 
  59      0458268B 
  59      0E40
  60 0074 36BC0870 		.ascii	"6\274\010p\301\303P1;\334\354\214{\024\306/\275\005"
  60      C1C35031 
  60      3BDCEC8C 
  60      7B14C62F 
  60      BD05
  61 0086 8857A803 		.ascii	"\210W\250\003N\210\327\250\210b\2348\373\030WT\354;"
  61      4E88D7A8 
  61      88629C38 
  61      FB185754 
  61      EC3B
  62 0098 29D95929 		.ascii	")\331Y)\214\307\343\227\207_%\352\022+\033\033\373\015"
  62      8CC7E397 
  62      875F25EA 
  62      122B1B1B 
  62      FB0D
  63 00aa 31DA8A90 		.ascii	"1\332\212\220\374\260\352.\006\003\021< ,\003%;\217"
  63      FCB0EA2E 
  63      0603113C 
  63      202C0325 
  63      3B8F
  64 00bc 1C1C97B8 		.ascii	"\034\034\227\270\371\351G\270#na\364\027\3774\346x\301"
  64      F9E947B8 
  64      236E61F4 
  64      17FF34E6 
  64      78C1
  65 00ce 5EAE6CF4 		.ascii	"^\256l\364\225\301\204 \351\217\327\031\2500(GA\261"
  65      95C18420 
  65      E98FD719 
  65      A8302847 
  65      41B1
  66 00e0 30FA98E5 		.ascii	"0\372\230\345R\260L_\225A\205\364]+\264\011F\363\220"
  66      52B04C5F 
  66      954185F4 
  66      5D2BB409 
  66      46F390
  67 00f3 E9ED6050 		.ascii	"\351\355`P)\275Gv\333z;\350\257\300\036\004\015oc\031"
  67      29BD4776 
  67      DB7A3BE8 
  67      AFC01E04 
  67      0D6F6319 
  68 0107 30B29364 		.ascii	"0\262\223d9\232\357\012\232\357*\331[d\0354\177\023"
  68      399AEF0A 
  68      9AEF2AD9 
  68      5B641D34 
  68      7F13
  69 0119 4BC169F9 		.ascii	"K\301i\371\273,\1777\331q\032\247\246\302@<^\204A\031"
  69      BB2C7F37 
  69      D9711AA7 
  69      A6C2403C 
ARM GAS  /tmp/ccFAcAZy.s 			page 5


  69      5E844119 
  70 012d 55B60661 		.ascii	"U\266\006ai#\032(,Y\336Hz!\355\017\177\003\014\323j"
  70      69231A28 
  70      2C59DE48 
  70      7A21ED0F 
  70      7F030CD3 
  71 0142 52BA969A 		.ascii	"R\272\226\232\212\206\023\344J\360\300\216r\352\264"
  71      8A8613E4 
  71      4AF0C08E 
  71      72EAB4
  72 0151 56D88683 		.ascii	"V\330\206\203T\25263\370\007\005\232\024f\326L\303\373"
  72      54AA3633 
  72      F807059A 
  72      1466D64C 
  72      C3FB
  73 0163 B40A0DEF 		.ascii	"\264\012\015\357\311\347]\021 c\303mR\304\311\033\037"
  73      C9E75D11 
  73      2063C36D 
  73      52C4C91B 
  73      1F
  74 0174 BFD96C99 		.ascii	"\277\331l\231]\232\032NQ77U\015\037\230\\\377\225+d"
  74      5D9A1A4E 
  74      51373755 
  74      0D1F985C 
  74      FF952B64 
  75 0188 1B937C4B 		.ascii	"\033\223|K\313\211\345d\320,da\353C\277\367\355\030"
  75      CB89E564 
  75      D02C6461 
  75      EB43BFF7 
  75      ED18
  76 019a 4D0C3A69 		.ascii	"M\014:i\022\340\035$\360\307\225\253\253\207\266\006"
  76      12E01D24 
  76      F0C795AB 
  76      AB87B606 
  77 01aa 7C981550 		.ascii	"|\230\025P\\\331\247\264\263\264\307\362\001P\002I\034"
  77      5CD9A7B4 
  77      B3B4C7F2 
  77      01500249 
  77      1C
  78 01bb 8B8F1C35 		.ascii	"\213\217\0345\320\225E\230\236~oM\027H\002S\242\031"
  78      D0954598 
  78      9E7E6F4D 
  78      17480253 
  78      A219
  79 01cd 3B89D272 		.ascii	";\211\322r\263\344\332\035\236\257\332\266Ti\265Y~j"
  79      B3E4DA1D 
  79      9EAFDAB6 
  79      5469B559 
  79      7E6A
  80 01df 7F999AB3 		.ascii	"\177\231\232\263\004\307\034.\316\3403\346q\312\322"
  80      04C71C2E 
  80      CEE033E6 
  80      71CAD2
  81 01ee 8ACD6429 		.ascii	"\212\315d)\246\341\034q\312@IH\264\210\362\241\341s"
  81      A6E11C71 
  81      CA404948 
  81      B488F2A1 
ARM GAS  /tmp/ccFAcAZy.s 			page 6


  81      E173
  82 0200 72D1D15D 		.ascii	"r\321\321]\005\225\304\317\257\30354p\027\243U\025\313"
  82      0595C4CF 
  82      AFC33534 
  82      7017A355 
  82      15CB
  83 0212 9B0AB230 		.ascii	"\233\012\2620\236\332\254\216\204\254\037TM\\\026\250"
  83      9EDAAC8E 
  83      84AC1F54 
  83      4D5C16A8 
  84 0222 9040B21C 		.ascii	"\220@\262\034\3614\210\236\001\2714\267\211[\230>o\003"
  84      F134889E 
  84      01B934B7 
  84      895B983E 
  84      6F03
  85 0234 B48FD69C 		.ascii	"\264\217\326\234\307\011\234\311\347\004j8k^\356\365"
  85      C7099CC9 
  85      E7046A38 
  85      6B5EEEF5 
  86 0244 A1D9AFD5 		.ascii	"\241\331\257\325y\234A\330\366\014\222\\IyQ\337nw\022"
  86      799C41D8 
  86      F60C925C 
  86      497951DF 
  86      6E7712
  87 0257 357C429D 		.ascii	"5|B\235M\036\353\350i\370\014KR\362\265P\275/3/\273"
  87      4D1EEBE8 
  87      69F80C4B 
  87      52F2B550 
  87      BD2F332F 
  88 026c 8E0E2985 		.ascii	"\216\016)\205\303N\212\345\002\251\005\021\214\024X"
  88      C34E8AE5 
  88      02A90511 
  88      8C1458
  89 027b D8FE8BBC 		.ascii	"\330\376\213\2747\205t\222:\204\227\002Y\265\303\254"
  89      37857492 
  89      3A849702 
  89      59B5C3AC 
  90 028b 91BA884D 		.ascii	"\221\272\210M\276\203|~lo\312\333\245\243\254\032\016"
  90      BE837C7E 
  90      6C6FCADB 
  90      A5A3AC1A 
  90      0E
  91 029c A9702664 		.ascii	"\251p&dRB\\\346R\032)\262\370vY\24525\313Ru/\025\201"
  91      52425CE6 
  91      521A29B2 
  91      F87659A5 
  91      3235CB52 
  92 02b4 BAAF61E0 		.ascii	"\272\257a\340;\376\034=\223\212`\321o\266%\240\3748"
  92      3BFE1C3D 
  92      938A60D1 
  92      6FB625A0 
  92      FC38
  93 02c6 A38793FF 		.ascii	"\243\207\223\377\031-Y\002Z\234\"^]\"1\021K\225\345"
  93      192D5902 
  93      5A9C225E 
  93      5D223111 
  93      4B95E5
ARM GAS  /tmp/ccFAcAZy.s 			page 7


  94 02d9 7911903E 		.ascii	"y\021\220>R\031\325\017D\011G1'\304+\365z}\265\201`"
  94      5219D50F 
  94      44094731 
  94      27C42BF5 
  94      7A7DB581 
  95 02ee 7BF04493 		.ascii	"{\360D\223/\034\363E\273|\261\250\356\323\003!#\024"
  95      2F1CF345 
  95      BB7CB1A8 
  95      EED30321 
  95      2314
  96 0300 09873B62 		.ascii	"\011\207;b^\035X(\202\021\354T\302\355g#\007r\334\203"
  96      5E1D5828 
  96      8211EC54 
  96      C2ED6723 
  96      0772DC83 
  97 0314 9D7A47F7 		.ascii	"\235zG\367i#\023\022\000\265\247\255\243\333\250\312"
  97      69231312 
  97      00B5A7AD 
  97      A3DBA8CA 
  98 0324 718E84A3 		.ascii	"q\216\204\243]1\337\261F\177\255\277\227\020z8j\264"
  98      5D31DFB1 
  98      467FADBF 
  98      97107A38 
  98      6AB4
  99 0336 F61C0C11 		.ascii	"\366\034\014\021\302\233\355k\364v\371j\375M\365M\233"
  99      C29BED6B 
  99      F476F96A 
  99      FD4DF54D 
  99      9B
 100 0347 FCC2570F 		.ascii	"\374\302W\017\035\357\356\324\311\275\310\337\324\350"
 100      1DEFEED4 
 100      C9BDC8DF 
 100      D4E8
 101 0355 696F8B19 		.ascii	"io\213\031\221h\260\332S^\003,\012NJ \034=\007<\022"
 101      9168B0DA 
 101      535E032C 
 101      0A4E4A20 
 101      1C3D073C 
 102 036a 88FC05EF 		.ascii	"\210\374\005\357*\231\234"
 102      2A999C
 103              		.text
 104              		.section	.gnu.lto_chPoolAllocI.e904452d61ce95e4,"",%progbits
 105 0000 789C9552 		.ascii	"x\234\225R\317k\023Q\020\236\231\267\357mVQs\022<YB"
 105      CF6B1351 
 105      109E99B7 
 105      EF6D5651 
 105      73123C59 
 106 0015 05A992F5 		.ascii	"\005\251\222\365\037\350\311\213\342A\214x\021R\241"
 106      1FE8C98B 
 106      E2418C78 
 106      1152A1
 107 0024 CB4A520C 		.ascii	"\313JR\014\011\215\210x\311\032\373\007\024OUi\226Z"
 107      098D8878 
 107      C91AFB07 
 107      144F5569 
 107      965A
 108 0036 919C3CF7 		.ascii	"\221\234<\367\244\202?\016\245\364(\202\227\202\202"
ARM GAS  /tmp/ccFAcAZy.s 			page 8


 108      A4823F0E 
 108      A5F42882 
 108      978282
 109 0045 3D8897C6 		.ascii	"=\210\227\306\213T\342\274\331\274h4\025\273\313\356"
 109      8B54E2BC 
 109      D9BC6834 
 109      15BBCBEE 
 110 0055 F77676BE 		.ascii	"\367vv\276\357\2337\363\010\220\357\277\257\013\374"
 110      EF9B37F3 
 110      0890EFBF 
 110      AF0BFC
 111 0064 7C5000A7 		.ascii	"|P\000\247\031\321\007\244\305M\200\273\023Djy\032\222"
 111      19D107A4 
 111      C54D80BB 
 111      13446A79 
 111      1A92
 112 0076 93DE4E1E 		.ascii	"\223\336N\036\2223\012M\026\366H?\262a\363\315\206\265"
 112      92330A4D 
 112      16F6483F 
 112      B261F3CD 
 112      86B5
 113 0088 0B1B44BB 		.ascii	"\013\033D\273`\203\026)O\033l]\021/]\200\225$\271\277"
 113      60831629 
 113      4F1B6C5D 
 113      112F5D80 
 113      9524B9BF 
 114 009c F8AA7DAE 		.ascii	"\370\252}\256\275\325\357\037\217m\364\032\302\372\217"
 114      BDD5EF1F 
 114      8F6DF41A 
 114      C2FA8F
 115 00ab 8F478F41 		.ascii	"\217G\217A\214\010\023`\221\300\033\255j\017\336\266"
 115      8C081360 
 115      91C01BAD 
 115      6A0FDEB6 
 116 00bb BF3F9612 		.ascii	"\277?\226\022V/\275\263?\232'\264\335\364+\376\017\357"
 116      562FBDB3 
 116      3F9A27B4 
 116      DDF42BFE 
 116      0FEF
 117 00cd 5EE2789A 		.ascii	"^\342x\232\340\004\012\265s\375\237\314^\3479mt\315"
 117      E0040AB5 
 117      73FD9FCC 
 117      5EE7396D 
 117      74CD
 118 00df 0B7AB9D5 		.ascii	"\013z\271\325oM\302\352@&FC0%\012\275\3163\032#\301"
 118      6F4DC2EA 
 118      40264643 
 118      30250ABD 
 118      CE331A23 
 119 00f4 197004A1 		.ascii	"\031p\004\241\214O\260\000\204e|\212\223\240\006\337"
 119      8C4FB000 
 119      84657C8A 
 119      93A006DF 
 120 0104 9A7185D1 		.ascii	"\232q\205\3210>f\3141\2562\006\203\377v \260\220$y\312"
 120      303E66CC 
 120      31AE3206 
 120      83FF7620 
ARM GAS  /tmp/ccFAcAZy.s 			page 9


 120      B0902479 
 121 0119 BEABE224 		.ascii	"\276\253\342$\327%\213v\204%v\262\013\265\016\355\253"
 121      D7258B76 
 121      842576B2 
 121      0BB50EED 
 121      AB
 122 012a 9FD25B65 		.ascii	"\237\322[e\354\242\206\010\325)\230\342)\250\207\360"
 122      ECA28608 
 122      D52998E2 
 122      29A887F0 
 123 013a 0063F429 		.ascii	"\000c\364)B)\3170mI\363k\346\327\331z\013\364^e\274"
 123      4229CF30 
 123      6D49F36B 
 123      E6D7D97A 
 123      0BF45E65 
 124 014f CC27B273 		.ascii	"\314'\262sx\003\013\237\2612\224\263d=\322\223\222\315"
 124      78030B9F 
 124      B13294B3 
 124      643DD293 
 124      92CD
 125 0161 5A9E16E3 		.ascii	"Z\236\026\343/\351wt\251z\3049G\003\262\243\315\340"
 125      2FE97774 
 125      A97AC439 
 125      4703B2A3 
 125      CDE0
 126 0173 70C9CCF3 		.ascii	"p\311\314\363K:\343\355]\356\355\337\253\215\\\021%"
 126      4B3AE3ED 
 126      5DEEEDDF 
 126      AB8D5C11 
 126      25
 127 0184 3BF49DBC 		.ascii	";\364\235\274\270\363yq\346Ft\202q:\23199s\331\337\232"
 127      B8F37971 
 127      E6467482 
 127      713A9939 
 127      3973D9DF 
 128 0199 1A126D5A 		.ascii	"\032\022mZ\360\307\006\331+=$\026\366l\271\324\234x"
 128      F0C706D9 
 128      2B3D2416 
 128      F66CB9D4 
 128      9C78
 129 01ab 1C18E7B1 		.ascii	"\034\030\347\261\355\213\0117f\315\027\215\015\360\272"
 129      ED8B0937 
 129      66CD178D 
 129      0DF0BA
 130 01ba 438F20B2 		.ascii	"C\217 \262I,\020\343Ai;\214v=p\276&\033)g\360\276\335"
 130      492C10E3 
 130      41693B8C 
 130      763D70BE 
 130      261B2967 
 131 01d1 5F5E6E02 		.ascii	"_^n\002\276\356\036vr\322\223w\200\334`\305\223g\360"
 131      BEEE1E76 
 131      72D29377 
 131      80DC60C5 
 131      9367F0
 132 01e4 AC88DE4D 		.ascii	"\254\210\336M\347\354\001A\021\261\373-\024\213\341"
 132      E7EC0141 
 132      11B1FB2D 
ARM GAS  /tmp/ccFAcAZy.s 			page 10


 132      148BE1
 133 01f3 D94A75B6 		.ascii	"\331Ju\266z\361rXo\206\3637\303\346|\024F\225Z\\k\324"
 133      7AF17258 
 133      6F86F337 
 133      C3E67C14 
 133      46955A5C 
 134 0209 EB379AC5 		.ascii	"\3537\232\305\010\274\372\354\\\203j\215\237\0028\321"
 134      08BCFAEC 
 134      5C836A8D 
 134      9F0238D1 
 135 0219 52       		.ascii	"R"
 136              		.text
 137              		.section	.gnu.lto_chPoolAlloc.e904452d61ce95e4,"",%progbits
 138 0000 789C9554 		.ascii	"x\234\225TML\023Q\020\236y\373\003\245\255\351\301\013"
 138      4D4C1351 
 138      109E79FB 
 138      03A5ADE9 
 138      C10B
 139 0012 176C0826 		.ascii	"\027l\010&\006\264\313M/$\032\022#1\215\261\215\027"
 139      06B4CB4D 
 139      2F241A12 
 139      23318DB1 
 139      8D17
 140 0024 9395C0BA 		.ascii	"\223\225\300\272\006\010\245M\013\004\275\260V\256\032"
 140      0608A54D 
 140      0B04BDB0 
 140      56AE1A
 141 0033 62628292 		.ascii	"bb\202\222R\001E(\011&\376\305\350A\215?\007%\036\215"
 141      52014528 
 141      0926FEC5 
 141      E8418D3F 
 141      07251E8D 
 142 0047 272411E2 		.ascii	"'$\021\342\205xA/\206\210\363\336\356\266.\245\004^"
 142      8578412F 
 142      8688F3DE 
 142      EEB62EA5 
 142      045E
 143 0059 D39DEDBC 		.ascii	"\323\235\355\274\371\346\373\346\275\2312@\372\224\257"
 143      F9E6FBE6 
 143      BD993240 
 143      FA94AF
 144 0068 D3F44515 		.ascii	"\323\364E\025`\216\333*@6\372\031\340j\2301)\327\002"
 144      608EDB2A 
 144      4036FA19 
 144      E06A9831 
 144      29D702
 145 007b D621793D 		.ascii	"\326!y=\004V\263\204\252\355\226\2312\316\335\352o\356"
 145      0456B384 
 145      AAED9699 
 145      32CEDDEA 
 145      6FEE
 146 008d 565CB78A 		.ascii	"V\\\267\212\310_\210`\230I\262\242\342\3609\301%\327"
 146      C85F8860 
 146      9849B2A2 
 146      E2F039C1 
 146      25D7
 147 009f C3A465DD 		.ascii	"\303\244e\335\034\275f\235\312.on\0360\021\0300\204"
ARM GAS  /tmp/ccFAcAZy.s 			page 11


 147      1CBD669D 
 147      CA2E6F6E 
 147      1E301118 
 147      3084
 148 00b1 7684A589 		.ascii	"v\204\245\211\325@-\230\210\020\006n\031\310^a\016\364"
 148      D5402D98 
 148      8810066E 
 148      19C85E61 
 148      0EF4
 149 00c3 6DD6854A 		.ascii	"m\326\205J\300q\033\371\237\2707\234,p\277\362W\366"
 149      C0711BF9 
 149      9FB8379C 
 149      2C70BFF2 
 149      57F6
 150 00d5 0653046C 		.ascii	"\006S\004l-\377gg\272\265\271\027l\245\240\276b\257"
 150      2DFF6767 
 150      BAB5B917 
 150      6CA5A0BE 
 150      62AF
 151 00e7 9737871B 		.ascii	"\2277\207\033`\332)\327D\225A\243\250tm\256\300\266"
 151      60DA29D7 
 151      449541A3 
 151      A8746DAE 
 151      C0B6
 152 00f9 494111B0 		.ascii	"IA\021\260\037Q\307\373\330\000\325\240\343]\254\007"
 152      1F51C7FB 
 152      D800D5A0 
 152      E35DAC07 
 153 0109 1FD97B64 		.ascii	"\037\331{dk\310N\223\365\223\235\"\033p\366\203\216"
 153      6BC84E93 
 153      F5939D22 
 153      1B70F683 
 153      8E
 154 011a A5A5C088 		.ascii	"\245\245\300\210e\205\320\376\335\356\\\355Yn\371U\304"
 154      6585D0FE 
 154      DDEE5CED 
 154      596EF955 
 154      C4
 155 012b 8886BF48 		.ascii	"\210\206\277H\037\350\274\355P\007A\031\036\360\342"
 155      1FE8BCED 
 155      50074119 
 155      1EF0E2
 156 013a B6565EBA 		.ascii	"\266V^\272\243*\006G\204\362\205\227\337V\267\223^Z"
 156      A32A0647 
 156      84F28597 
 156      DF56B793 
 156      5E5A
 157 014c DC59459B 		.ascii	"\334YE\233\000\237 \213\177\257\337\372~\314CF\362\012"
 157      009F208B 
 157      7FAFDFFA 
 157      7ECC4346 
 157      F20A
 158 015e 244FC759 		.ascii	"$O\307Y\017%o\305\033t\241\244Q<\000\352 \2179k\354"
 158      0F256FC5 
 158      1B74A1A4 
 158      513C00EA 
 158      208F396B 
ARM GAS  /tmp/ccFAcAZy.s 			page 12


 159 0173 B889D59E 		.ascii	"\270\211\325\236\264\305\355)g\333'\022\360\252\266"
 159      B4C5ED29 
 159      67DB2712 
 159      F0AAB6
 160 0182 51AEEA38 		.ascii	"Q\256\3528C\"y{\345V\245\035\225\033\264\005\037!{~"
 160      4322797B 
 160      E556A51D 
 160      951BB405 
 160      1F217B7E 
 161 0196 253FE868 		.ascii	"%?\350h-oV\035'\355t\033\023\227v\314V\254\366\261\250"
 161      2D6F561D 
 161      27ED741B 
 161      139776CC 
 161      56ACF6B1 
 162 01ab D67BC006 		.ascii	"\326{\300\006V7A#u\224t\007n\243\2115\214\310kE\003"
 162      56374123 
 162      75947407 
 162      6EA38935 
 162      8CC86B45 
 163 01c0 8098C90B 		.ascii	"\200\230\311\013\374\261\222\237A\267\266\257\222\216"
 163      FCB1929F 
 163      41B7B6AF 
 163      928E
 164 01ce 4F28878E 		.ascii	"O(\207\216O)\237\301\317\344=\214\374\300.\333M\016"
 164      4F299FC1 
 164      CFE43D8C 
 164      FCC02EDB 
 164      4D0E
 165 01e0 0EF74A88 		.ascii	"\016\367J\210\361\001\311\265H\274&\336\265n\250\317"
 165      F101C9B5 
 165      48BC26DE 
 165      B56EA8CF 
 166 01f0 C3ED670E 		.ascii	"\303\355g\016X)r\027\363\020\262mL\261q\273\020<$J\363"
 166      58297217 
 166      F310B26D 
 166      4CB171BB 
 166      103C244A 
 167 0205 B9EC7422 		.ascii	"\271\354t\"\353!\301N\243\346\222\327\210<\201\312y"
 167      EB21C14E 
 167      A3E692D7 
 167      883C81CA 
 167      79
 168 0216 984B2EEA 		.ascii	"\230K.\352{.\025\201<,\260\245@\322\234\017\012\012"
 168      7B2E1581 
 168      3C2CB0A5 
 168      40D29C0F 
 168      0A0A
 169 0228 FE2FE086 		.ascii	"\376/\340\206\372\005G\2602\207\344fX\004y\266\310\020"
 169      FA0547B0 
 169      3287E466 
 169      580479B6 
 169      C810
 170 023a 20125E80 		.ascii	" \022^\200\337\304}\342\320\301{\346\001\227U-\015\222"
 170      DFC47DE2 
 170      D0C17BE6 
 170      0197552D 
 170      0D92
ARM GAS  /tmp/ccFAcAZy.s 			page 13


 171 024c 8ECFFE8B 		.ascii	"\216\317\376\213\010\012\330b\241\323\276\360\342dB"
 171      080AD862 
 171      A1D3BEF0 
 171      E26442
 172 025b F9CC5518 		.ascii	"\371\314U\030=\261\312\347O\307y\273\355\026\306\327"
 172      3DB1CAE7 
 172      4FC779BB 
 172      ED16C6D7 
 173 026b 7735807C 		.ascii	"w5\200|U\034\300w\242%\337T\032@\035\037\322K)\2173"
 173      551CC077 
 173      A225DF54 
 173      1A401D1F 
 173      D24B298F 
 174 0280 713A3EC2 		.ascii	"q:>\302:\341\370\014\2704\257\330\322E\321\000_ Hm$"
 174      3AE1F80C 
 174      B834AFD8 
 174      D245D100 
 174      5F20486D 
 175 0295 D1E89091 		.ascii	"\321\350\220\221\371a)\033\371\036\376\367\203\342\260"
 175      F961291B 
 175      F91EFEF7 
 175      83E2B0
 176 02a4 780639D9 		.ascii	"x\0069\331\331\223\252\217D\264\326\256\356\316\356"
 176      D993AA8F 
 176      44B4D6AE 
 176      EECEEE
 177 02b3 33712D99 		.ascii	"3q-\231\321\322\375Z&mhFW\302L\244\222\311\336L\304"
 177      D1D2FD5A 
 177      266D6846 
 177      57C24CA4 
 177      92C9DE4C 
 178 02c8 00964829 		.ascii	"\000\226H)\203\035\275\003fSYl*\231\356\317h'b\321\326"
 178      831DBD03 
 178      6653596C 
 178      2A99EECF 
 178      682762D1 
 179 02dd E810818C 		.ascii	"\350\020\201\214d\332l\037<\232\210tA\304\033k\016\365"
 179      64DA6C1F 
 179      3C9A8874 
 179      41C41B6B 
 179      0EF5
 180 02ef 6BADD178 		.ascii	"k\255\321x[\\\353\3563z\007.\232\232\2105\022'\007\372"
 180      5B5CEBEE 
 180      337A072E 
 180      9A9A8835 
 180      122707FA 
 181 0303 0C0A0F45 		.ascii	"\014\012\017E\343\261pgG\306L\245\273\017\207\0176\003"
 181      E3B17067 
 181      47C64CA5 
 181      BB0F870F 
 181      3603
 182 0315 4B431569 		.ascii	"KC\025iH\246/\303?\352)[\027"
 182      48A62FC3 
 182      3FEA295B 
 182      17
 183              		.text
 184              		.section	.gnu.lto_chPoolFreeI.e904452d61ce95e4,"",%progbits
ARM GAS  /tmp/ccFAcAZy.s 			page 14


 185 0000 789C7D91 		.ascii	"x\234}\221\277K\303@\024\307\337{\227\024A\004'!\223"
 185      BF4BC340 
 185      14C7DF7B 
 185      97144104 
 185      272193
 186 0013 A5E8E00F 		.ascii	"\245\350\340\017\032\377\007\027\235\244\212 B\024\032"
 186      1AFF0717 
 186      9DA48A20 
 186      42141A
 187 0022 02A95812 		.ascii	"\002\251X\022Zg\023\243\203cq\323\311R\252K\26389\251"
 187      5A6713A3 
 187      836371D3 
 187      C952AA4B 
 187      B33839A9 
 188 0036 A03814E9 		.ascii	"\2408\024\351\324\301\301\241\377I}w\211\332\320\342"
 188      D4C1C1A1 
 188      FF497D77 
 188      89DAD0E2 
 189 0046 3B8E77C9 		.ascii	";\216w\311}?\337w\367\216\000y\214\207\301s\206\000"
 189      7D3FDF77 
 189      F78E0079 
 189      8C87C173 
 189      8600
 190 0058 D638A300 		.ascii	"\3268\243\000\244F\017\340,O\210r\301H@\030\354*\222"
 190      A4460FE0 
 190      2C4F8872 
 190      C1484018 
 190      EC2A92
 191 006b 0AD00CC3 		.ascii	"\012\320\014\303\253\306k\264\021\015\206\303yG\376"
 191      ABC66BB4 
 191      110D86C3 
 191      7947FE
 192 007a 3D44E87E 		.ascii	"=D\350~\266\347\014p\020!\0172\023h\331\032)w\036\376"
 192      B6E70C70 
 192      10210F32 
 192      1368D91A 
 192      29771EFE 
 193 008e 72048B28 		.ascii	"r\004\213(\321\257\316\023\376\213\366;w\242\037\347"
 193      D1AFCE13 
 193      FE8BF63B 
 193      77A21FE7 
 194 009e 9EE96530 		.ascii	"\236\351e0\014\026\240\225\3728(\010\226\224\005+h\334"
 194      0C16A095 
 194      FA382808 
 194      9694052B 
 194      68DC
 195 00b0 0247B51A 		.ascii	"\002G\265\032\301\252\322>NO(\306\373<\005L!Z\330fP"
 195      C1AAD23E 
 195      4E4F28C6 
 195      FB3C054C 
 195      215AD866 
 196 00c5 706E71D6 		.ascii	"pnq\326\300\302[,H\215\016\027a8K\0266\371\273\242\274"
 196      C0C25B2C 
 196      488D0E17 
 196      61384B16 
 196      36F9BBA2 
 197 00da 54946496 		.ascii	"T\224d\226\215\332f7\271\020\357@\362R\026\336\243\016"
ARM GAS  /tmp/ccFAcAZy.s 			page 15


 197      8DDA6637 
 197      B910EF40 
 197      F25216DE 
 197      A30E
 198 00ec 89DEE68A 		.ascii	"\211\336\346\212\320\205h\377-~H7l\324V`\231\033!n\340"
 198      D08568FF 
 198      2D7E4837 
 198      6CD45660 
 198      991B216E 
 199 0101 1A1DD4C9 		.ascii	"\032\035\324\311Fa\250c$q\360\367VLn^\352\011\227\201"
 199      4661A863 
 199      2471F0F7 
 199      564C6E5E 
 199      EA099781 
 200 0115 720CA9EE 		.ascii	"r\014\251\356I\225\253\240\224b\373\204\373\210O'\200"
 200      4995ABA0 
 200      9462FB84 
 200      FB884F27 
 200      80
 201 0126 996A7BA3 		.ascii	"\231j{\243\325\324Q{\200\334\362\204\373\211\222\334"
 201      D5D4517B 
 201      80DCF284 
 201      FB8992DC 
 202 0136 E0FB917C 		.ascii	"\340\373\221|\316b\321\\w+\345\312\326\216\351\325\315"
 202      CE62D15C 
 202      772BE5CA 
 202      D68EE9D5 
 202      CD
 203 0147 DA8959AF 		.ascii	"\332\211Y\257\331\246\355V\235\252\357y\307\365\242"
 203      D9A6ED56 
 203      9DAAEF79 
 203      C7F5A2
 204 0156 0DC2777D 		.ascii	"\015\302w}\252\372\232W>\362\277\001\372bs\215"
 204      AAFA9A57 
 204      3EF2BF01 
 204      FA62738D 
 205              		.text
 206              		.section	.gnu.lto_chPoolFree.e904452d61ce95e4,"",%progbits
 207 0000 789C8D53 		.ascii	"x\234\215SMh\023A\024~o6i\024=\364$\344RC\261 V\263"
 207      4D681341 
 207      147E6F36 
 207      69143DF4 
 207      24E45243 
 208 0018 DEF4A804 		.ascii	"\336\364\250\004J{\010\322\204\202\010ci\326\201\215"
 208      4A7B08D2 
 208      84820863 
 208      69D6818D 
 209 0028 24DD6537 		.ascii	"$\335e7)\365b\326\350\301\213R\004\301\037D\233\032"
 209      29F562D6 
 209      E8C18B52 
 209      04C11F44 
 209      9B1A
 210 003a A9625AAD 		.ascii	"\251bZ\255\336D-X<D\351\331\203`A\274y\363\342E\343"
 210      DE442D58 
 210      3C44E9D9 
 210      836041BC 
 210      79F3E245 
ARM GAS  /tmp/ccFAcAZy.s 			page 16


 211 004f 9BC9D274 		.ascii	"\233\311\322t\233M\353,;o\230y\337\367\276\367\346\015"
 211      9B4DEB2C 
 211      3B6F9879 
 211      DFF7BEF7 
 211      E60D
 212 0061 03A4AF7B 		.ascii	"\003\244\257{\304\351\237\210\0004\310\242\006\310\346"
 212      C4E99F88 
 212      0034C8A2 
 212      06C8E6
 213 0070 D601AE24 		.ascii	"\326\001\256$\030\242\\\020\244\302\2602\241\2208\010"
 213      18A25C10 
 213      A4C2B032 
 213      A1903808 
 214 0080 F39E776B 		.ascii	"\363\236wk\356Cu\264\272\321j\035\024rw\022\241\371"
 214      EE4375B4 
 214      BAD16A1D 
 214      14727712 
 214      A1F9
 215 0092 A57E200E 		.ascii	"\245~ \016\002\021\022 -\203H0\306\332rM\373\271\334"
 215      02111220 
 215      2D834830 
 215      C6DA724D 
 215      FBB9DC
 216 00a5 F79EAD6E 		.ascii	"\367\236\255n\264*\207`A\222\\\365F\005j\014\206PR\220"
 216      B42A8760 
 216      41925CF5 
 216      46056A0C 
 216      86505290 
 217 00b9 07EBA6C0 		.ascii	"\007\353\246\300\255\276\021\006\207\225\357\342\276"
 217      ADBE1106 
 217      8795EFE2 
 217      BE
 218 00c6 9060744E 		.ascii	"\220`tN\277\006\373\0219\316\023\220\221] \033\003\216"
 218      BF06FB11 
 218      39CE1390 
 218      915D201B 
 218      038E
 219 00d8 8F48398D 		.ascii	"\217H9\215(\\\363\274~I\241\306\270\2642\311\014\221"
 219      285CF3BC 
 219      7E49A1C6 
 219      B8B432C9 
 219      0C91
 220 00ea C885F691 		.ascii	"\310\205\366\221P\276\223o8\326i\2473\374\012\220 \277"
 220      50BE936F 
 220      38D669A7 
 220      33FC0A90 
 220      20BF
 221 00fc 025106C7 		.ascii	"\002Q\006\307\224\252\2457\337~\204\244\020\2504\271"
 221      94AAA537 
 221      DF7E84A4 
 221      10A834B9 
 222 010c D321C027 		.ascii	"\323!\300'\250\342\337\033\267\277\237\014\004#\301"
 222      A8E2DF1B 
 222      B7BF9F0C 
 222      0423C1
 223 011b 8B2494E3 		.ascii	"\213$\224\343\223@Hym7)3\322\250&\200\001x\210\017\274"
 223      93404879 
ARM GAS  /tmp/ccFAcAZy.s 			page 17


 223      6D372933 
 223      D2A82680 
 223      0178880F 
 224 0130 3BA704F6 		.ascii	";\247\004\366\005h7\217k\376qL\021\310\254B\224k\034"
 224      0568378F 
 224      6BFE714C 
 224      11C8AC42 
 224      946B1C
 225 0143 6B2452DE 		.ascii	"k$R\336\337\357\272\266\243r\203\216z\321D8>n\323\300"
 225      DFEFBAB6 
 225      A372838E 
 225      7AD14438 
 225      3E6ED3C0 
 226 0157 2E1C4C71 		.ascii	".\034Lq|}\376\316\2571vq\221\376g\210\273s\265\361\214"
 226      7C7DFECE 
 226      AF317671 
 226      91FE6788 
 226      BB73B5F1 
 227 016c E38AAAD7 		.ascii	"\343\212\252\327K5\007/\212\343k\332UA\233P=\267\326"
 227      4B35072F 
 227      8AE36BDA 
 227      55419B50 
 227      3DB7D6
 228 017f 58A1F2BE 		.ascii	"X\241\362\276\"\027\003c\303p\204bi\367\340.\012\334"
 228      22170363 
 228      C3708462 
 228      69F7E02E 
 228      0ADC
 229 0191 C328BBB8 		.ascii	"\303(\273\270\352\035P\017\344|\347\225\020r\354z\264"
 229      EA1D500F 
 229      E47CE795 
 229      1072EC7A 
 229      B4
 230 01a2 8D0B80F6 		.ascii	"\215\013\200\366\022H]6l\202h6U\232\2616\356s\343r\010"
 230      12485D36 
 230      6C826836 
 230      559AB136 
 230      EE73E372 
 231 01b7 303CDAD9 		.ascii	"0<\332\331-\365\331\326\200=\372\260G3r|\332\276\213"
 231      2DF5D9D6 
 231      803DFAB0 
 231      4733727C 
 231      DABE8B
 232 01ca A5FBBFFE 		.ascii	"\245\373\277\376\253\033a\247n\\Uu}\333\253\03396h\321"
 232      AB1B61A7 
 232      6E5C5575 
 232      7DDBAB1B 
 232      393668D1 
 233 01de E1F1DB8F 		.ascii	"\341\361\333\217\343\013\034P\033\353\200\315?\"(}\\"
 233      E30B1C50 
 233      1BEB80CD 
 233      3F22287D 
 233      5C
 234 01ef 168ADE9A 		.ascii	"\026\212\336\232t\035L&\365\224\231\317\345\317du\313"
 234      741D4C26 
 234      F59499CF 
 234      E5CF6475 
ARM GAS  /tmp/ccFAcAZy.s 			page 18


 234      CB
 235 0200 D59D92EE 		.ascii	"\325\235\222\356:\206n\230EQ\264-\253\340&\015`E;b\345"
 235      3A866E98 
 235      4551B42D 
 235      ABE0260D 
 235      60453B62 
 236 0215 2EDAD199 		.ascii	".\332\321\231\251BY\014w\001l\313)\271\372\351L:\225"
 236      A942590C 
 236      77016CCB 
 236      29B9FAE9 
 236      4C3A95
 237 0228 9E25A461 		.ascii	"\236%\244a9br\346D1iB2\350+fKz*\235\035\313\352\371"
 237      396272E6 
 237      44316942 
 237      32E82B66 
 237      4B7A2A9D 
 238 0240 69A350BE 		.ascii	"i\243P\276 t\345k\024G\312\323\006\271\367\247\263\231"
 238      2074E56B 
 238      1447CAD3 
 238      06B9F7A7 
 238      B399
 239 0252 446ECA15 		.ascii	"Dn\312\025\266\223?\232\030:\016\314\201\030\011\261"
 239      B6933F9A 
 239      183A0ECC 
 239      811809B1 
 240 0262 9C4BA0D9 		.ascii	"\234K\240\331\246\375\017/r\000$"
 240      A6FD0F2F 
 240      720024
 241              		.text
 242              		.section	.gnu.lto_.cgraph.e904452d61ce95e4,"",%progbits
 243 0000 789C45C7 		.ascii	"x\234E\307\273\015\200\000\014\003Q\333\011\233\262"
 243      BB0D8000 
 243      0C0351DB 
 243      099BB2
 244 000f 875B4A24 		.ascii	"\207[J$z\006\340\273\005%\223\320\261\000\024\210\\"
 244      7A06E0BB 
 244      052593D0 
 244      B1001488 
 244      5C
 245 0020 737A0211 		.ascii	"sz\002\021\000Z|i\242\201\376\204=v\324L\263\264\320"
 245      005A7C69 
 245      A281FE84 
 245      3D76D44C 
 245      B3B4D0
 246 0033 2AAD7494 		.ascii	"*\255t\2246:K;\335\374Ja8.e\340~\207\007\222u!\236"
 246      363A4B3B 
 246      DDFC4A61 
 246      382E65E0 
 246      7E870792 
 247              		.text
 248              		.section	.gnu.lto_.vars.e904452d61ce95e4,"",%progbits
 249 0000 789C6362 		.ascii	"x\234cb`d`f`\000\222P\000\000\000r\000\010"
 249      60646066 
 249      60009250 
 249      00000072 
 249      0008
 250              		.text
ARM GAS  /tmp/ccFAcAZy.s 			page 19


 251              		.section	.gnu.lto_.refs.e904452d61ce95e4,"",%progbits
 252 0000 789C6362 		.ascii	"x\234cb`d`f```b\200\001\000\000\204\000\011"
 252      60646066 
 252      60606062 
 252      80010000 
 252      840009
 253              		.text
 254              		.section	.gnu.lto_.statics.e904452d61ce95e4,"",%progbits
 255 0000 789C6362 		.ascii	"x\234cb`d`b\300\016@\342\214\020&\000\000\375\000\011"
 255      60646062 
 255      C00E40E2 
 255      8C102600 
 255      00FD0009 
 256              		.text
 257              		.section	.gnu.lto_.decls.e904452d61ce95e4,"",%progbits
 258 0000 789C9D58 		.ascii	"x\234\235Xml\024E\030\236\331\273\366z\334\365ZH$\305"
 258      6D6C1445 
 258      189ED9BB 
 258      F67ADCF5 
 258      5A4824C5 
 259 0014 105B8990 		.ascii	"\020[\211\220H\244\033\004E\177\320H\232\010\370\005"
 259      48A41B04 
 259      457FD048 
 259      9A08F805 
 260 0024 41FD63B2 		.ascii	"A\375c\2629\257{\013w\246\275\273\\\257\006\374\265"
 260      39AF7B0B 
 260      77A6BDBB 
 260      5CAF06FC 
 260      B5
 261 0035 A9111112 		.ascii	"\251\021\021\022<\215\206\222\030r\204\242-\324\020"
 261      3C8D8692 
 261      187284A2 
 261      2DD410
 262 0044 20B1C508 		.ascii	" \261\305\010\251\201`k*A\005%\251\206\032\015)\011"
 262      A981606B 
 262      2A410525 
 262      A9861A0D 
 262      2909
 263 0056 840F3120 		.ascii	"\204\0171  \347;\2733s\373q\263mo\322\367vvo\336\367"
 263      20E73BBB 
 263      3373FB71 
 263      B36D6FD2 
 263      F776766F 
 264 006c 799F67DE 		.ascii	"y\237g\336\231\235\253\2040\"-#!T\204vc6B\253\241\037"
 264      999DAB84 
 264      30222D23 
 264      21548476 
 264      633642AB 
 265 0082 80672B51 		.ascii	"\200g+Q\251U\203\025\300F\301\316\203\215\203]\004\233"
 265      A9558315 
 265      C046C1CE 
 265      838D835D 
 265      049B
 266 0094 44EE46C6 		.ascii	"D\356F\306\021\377}`\021\2600\330Q\260!\260\203`\275"
 266      11FF7D60 
 266      11B030D8 
 266      51B021B0 
ARM GAS  /tmp/ccFAcAZy.s 			page 20


 266      8360BD
 267 00a7 603EB003 		.ascii	"`>\260\003`G\300\006\3010\365#\327\253\216x\2434F\225"
 267      6047C006 
 267      C130F523 
 267      D7AB8E78 
 267      A3344695 
 268 00bb 25DE411A 		.ascii	"%\336A\032\277\205\306\276\015v\027\354>\215?`\3018"
 268      BF85C6BE 
 268      0D7617EC 
 268      3E8D3F60 
 268      C138
 269 00cd 44717C34 		.ascii	"Dq|4\326\003\2327\301\362a;\326yK|\206u\234b\267PL\026"
 269      D6039A37 
 269      C1F2613B 
 269      D6794B7C 
 269      86759C62 
 270 00e5 7F88621F 		.ascii	"\177\210b\037\003\363[\260\006)\036\246\361\310\265"
 270      03F35BB0 
 270      06291EA6 
 270      F1C8B5
 271 00f4 C68143F4 		.ascii	"\306\201C\364\253\2431\031N\025\305b\334\312q\232\016"
 271      ABA33119 
 271      4E15C562 
 271      DCCA719A 
 271      0E
 272 0105 E6387237 		.ascii	"\3468r72W\001\007/\246\037\213-Y\342a\352C\256\265\216"
 272      32570107 
 272      2FA61F8B 
 272      2D59E261 
 272      EA43AEB5 
 273 011a DC8976B3 		.ascii	"\334\211v\263\004\261\312\345\354\214[\256f\032\321"
 273      04B1CAE5 
 273      EC8C5BAE 
 273      661AD1
 274 0129 1EBD3091 		.ascii	"\036\2750\221\177W_s\247X\014\314E\237\352\320\012["
 274      7F575F73 
 274      A7580CCC 
 274      459FEAD0 
 274      0A5B
 275 013b 751DE714 		.ascii	"u\035\347\024\274\362!4\017)8\022D\250\311\350\205\203"
 275      BCF22134 
 275      0F293812 
 275      44A8C9E8 
 275      8583
 276 014d 267B04FD 		.ascii	"&{\004\375\275x\256\321\363\0318(\204\266\353z7q]3\022"
 276      BD78AED1 
 276      F3193828 
 276      84B6EB7A 
 276      37715D33 
 277 0162 99833E22 		.ascii	"\231\203>\"q\232F M\026\341M\036\201\344\275\020\365"
 277      719A4620 
 277      4D16E14D 
 277      1E81E4BD 
 277      10F5
 278 0174 EA7A1EC6 		.ascii	"\352z\036\306`\005\367\3429\020C\302h1\352\327\215F"
 278      6005F7E2 
 278      391043C2 
ARM GAS  /tmp/ccFAcAZy.s 			page 21


 278      6831EAD7 
 278      8D46
 279 0186 89D34B3D 		.ascii	"\211\323K=:q\371\360|\263?ud\222[\037DT\360\027x\261"
 279      3A71F9F0 
 279      7CB33F75 
 279      64925B1F 
 279      4454F017 
 280 019c 89A39B38 		.ascii	"\211\243\2338\344)\242\317O\365l,\243\206\357QT\000"
 280      E429A2CF 
 280      4FF56C2C 
 280      A386EF51 
 280      5400
 281 01ae 16448EEA 		.ascii	"\026D\216\352r\204\012\325V\\\273&\022j\301p;P\026z"
 281      72840AD5 
 281      565CBB26 
 281      126AC170 
 281      3B50167A 
 282 01c2 C00ABDAB 		.ascii	"\300\012\275\253\272\0144\266@+\370 \016A\300\027X\300"
 282      BA0C34B6 
 282      402BF820 
 282      0E41C017 
 282      58C0
 283 01d4 B15F23E5 		.ascii	"\261_#\345AY\337ll\214\275\211\247\220\240\320&\241"
 283      4159DF6C 
 283      6C8CBD89 
 283      A790A0D0 
 283      26A1
 284 01e6 0D980A37 		.ascii	"\015\230\0127\326P\001\226%\373 \332V\022N\004o\235"
 284      D6500196 
 284      25FB20DA 
 284      56124E04 
 284      6F9D
 285 01f8 FFA33808 		.ascii	"\377\2438\010\370o`\252\317\347;\307\317\310\210\246"
 285      F86F60AA 
 285      CFE73BC7 
 285      CFC888A6 
 286 0208 5865A363 		.ascii	"Xe\243c\334\233\243\314\300\346\327\254G6\322:\302\345"
 286      DC9BA3CC 
 286      C0E6D7AC 
 286      4736D23A 
 286      C2E5
 287 021a 4BCCC89C 		.ascii	"K\314\310\234\350?<\346\233\011\237&\027\037[!8VHK\310"
 287      E83F3CE6 
 287      9B099F26 
 287      171F5B21 
 287      3856484B 
 288 022f 43DE63F6 		.ascii	"C\336c\366\025b\022\005\276\257\371<g\306*\315\220Q"
 288      15621205 
 288      BEAFF93C 
 288      67C62ACD 
 288      9051
 289 0241 07DF60A6 		.ascii	"\007\337`\246\315\245\317~\377A2\235mi\231`\342T\216"
 289      CDA5CF7E 
 289      FF41329D 
 289      6D699960 
 289      E2548E
 290 0254 431CA69B 		.ascii	"C\034\246\233\275\271\276\223\320\265\222z\243S\252"
ARM GAS  /tmp/ccFAcAZy.s 			page 22


 290      BDB9BE93 
 290      D0B5927A 
 290      A353AA
 291 0263 57E35179 		.ascii	"W\343Qy6\230\322\232Tp?^\210|\012>\000E\257\340#\306"
 291      3698D29A 
 291      54703F5E 
 291      887C0A3E 
 291      0045AFE0 
 292 0279 E7207C4E 		.ascii	"\347 |NY\260\373J\005\353\263\251j\021y\310\030cQYB"
 292      59B0FB4A 
 292      05EBB3A9 
 292      6A1179C8 
 292      18635159 
 293 028e F7B87E37 		.ascii	"\367\270~7{\007O\323\325\367\030\332\247\353\037\223"
 293      7B074FD3 
 293      D5F718DA 
 293      A7EB1F93 
 294 029e 1936E34A 		.ascii	"\0316\343J\350\220D\206\025p#\232\014\012\326\270\325"
 294      E8904486 
 294      1570239A 
 294      0C0AD6B8 
 294      D5
 295 02af C92CDB23 		.ascii	"\311,\333#\334\251\247V\2208M\321\352k\316\353 \367"
 295      DCA9A756 
 295      90384DD1 
 295      EA6BCEEB 
 295      20F7
 296 02c1 1D592AF4 		.ascii	"\035Y*\3645\370P\352\213\320~R}\303\335\015\306\346"
 296      35F850EA 
 296      8BD07E52 
 296      7DC3DD0D 
 296      C6E6
 297 02d3 8CA877C2 		.ascii	"\214\250w\302&\364\267X\262*_\371\016\377\275\263~I"
 297      26F4B758 
 297      B22A5FF9 
 297      0EFFBDB3 
 297      7E49
 298 02e5 0E25DD5B 		.ascii	"\016%\335[B\310Q\333\016\331\207%&\373\330\374\362\232"
 298      42C851DB 
 298      0ED98725 
 298      26FBD8FC 
 298      F29A
 299 02f7 2BF82424 		.ascii	"+\370$$\253\340Q qa:\232\267\020\331\316\032q\211\317"
 299      ABE05120 
 299      71613A9A 
 299      B710D9CE 
 299      1A7189CF 
 300 030b 9D905036 		.ascii	"\235\220P6\222\235{\266~\342\256=u\336\263%V|\324\245"
 300      929D7BB6 
 300      7EE2AE3D 
 300      75DEB325 
 300      567CD4A5 
 301 031f F819B7E2 		.ascii	"\370\031\267\342\023\327\251\342\357\327\317d\313\370"
 301      13D7A9E2 
 301      EFD7CF64 
 301      CBF8
 302 032d A59CE4D8 		.ascii	"\245\234\344\330\246\3529\256\352\255=\217x\313z\036"
ARM GAS  /tmp/ccFAcAZy.s 			page 23


 302      A6EA39AE 
 302      EAAD3D8F 
 302      78CB7A1E 
 303 033d 321D12C8 		.ascii	"2\035\022\310j#\330\235?\331\275\206\316\250\351\266"
 303      6A23D89D 
 303      3FD9BD86 
 303      CEA8E9B6 
 304 034d 5994A331 		.ascii	"Y\224\2431\342\202W\211\231,$\364\007O\364\312\343\336"
 304      E2825789 
 304      992C24F4 
 304      074FF4CA 
 304      E3DE
 305 035f 798E0360 		.ascii	"y\216\003`\337\314\363\034\2372\317\337f21\236ka\242"
 305      DFCCF31C 
 305      9F32CFDF 
 305      6632319E 
 305      6B61A2
 306 0372 DCC448F6 		.ascii	"\334\304H\366\265`\233\246\253\234\375\271\201\207\275"
 306      B5609BA6 
 306      AB9CFDB9 
 306      8187BD
 307 0381 E95F24E5 		.ascii	"\351_$\345(\240\217]\325\377\257\021\230\370\014yW\277"
 307      28A08F5D 
 307      D5FFAF11 
 307      98F80C79 
 307      57BF
 308 0393 B8822FBA 		.ascii	"\270\202/\272*\370OO\241L\372\022z\3009\235\222\275"
 308      2AF84F4F 
 308      A14CFA12 
 308      7AC0399D 
 308      92BD
 309 03a5 294D02C2 		.ascii	")M\002\302\266iRR\360%\356\323W)\245I\027\245\313vJ"
 309      B6695252 
 309      F025EED3 
 309      5729A549 
 309      17A5CB76 
 310 03ba 0BD05EFD 		.ascii	"\013\320^\375\354\331\274\336\335\320=Q,6\316Fy\343"
 310      ECD9BCDE 
 310      DDD03D51 
 310      2C36CE46 
 310      79E3
 311 03cc 1CD913A1 		.ascii	"\034\331\023\241\307\225\211\375\303\015=\226\343J\015"
 311      C79589FD 
 311      C30D3D96 
 311      E34A0D
 312 03db C727A7D0 		.ascii	"\307'\247\320\322Y\216\017\327\033\032D\243\025|\035"
 312      D2598E0F 
 312      D71B1A44 
 312      A3157C1D 
 313 03eb 5E700ABE 		.ascii	"^p\012\276\201\315W\342\274R\237w\213\230T\311\007\306"
 313      81CD57E2 
 313      BC529F77 
 313      8B9854C9 
 313      07C6
 314 03fd EF20C739 		.ascii	"\357 \3079\237\022\230\312\233ao\303\034|\266\341P\342"
 314      9F1298CA 
 314      9B616FC3 
ARM GAS  /tmp/ccFAcAZy.s 			page 24


 314      1C7CB6E1 
 314      50E2
 315 040f 668E160E 		.ascii	"f\216\026\016T\360\337\330\354\031\254t~\230\010\007"
 315      54F0DFD8 
 315      EC19AC74 
 315      7E980807 
 316 041f 3D96C22D 		.ascii	"=\226\302-K^\341\240\265Wo\313\237\215\003\232;}\354"
 316      4B5EE1A0 
 316      B5576FCB 
 316      9F8D039A 
 316      3B7DEC
 317 0432 45776577 		.ascii	"EwewD\230\216\204v\321\237\205\012\236\205iR39H\336"
 317      44988E84 
 317      76D19F85 
 317      0A9E8569 
 317      52333948 
 318 0447 36F6F8FD 		.ascii	"6\366\370\375>V\245w\277\372\3614?I\006\034'\311\200"
 318      3E56A577 
 318      BFFAF134 
 318      3F49061C 
 318      27C980
 319 045a FD2419E0 		.ascii	"\375$\031\340L\002\245\223$U\262\360\234S\312z\236\203"
 319      4C02A593 
 319      2455B2F0 
 319      9C53CA7A 
 319      9E83
 320 046c 44C3DDAD 		.ascii	"D\303\335\255@\311{B%YE\210\246\362\031>2@c\335\257"
 320      40C97B42 
 320      25594588 
 320      A6F2193E 
 320      324063DD 
 321 0481 00FF3F21 		.ascii	"\000\377?!>\373\205B6\202a\276\021\344\375l'\370\304"
 321      3EFB8542 
 321      368261BE 
 321      11E4FD6C 
 321      27F8C4
 322 0494 CF343EB1 		.ascii	"\3174>\261\373\347\277\350B\023m\006\017\310\333]\260"
 322      FBE7BFE8 
 322      42136D06 
 322      0FC8DB5D 
 322      B0
 323 04a5 B0459B01 		.ascii	"\260E\233\001\361\271#>Pyo\006\304y\244\3126\333\305"
 323      F1B9233E 
 323      50796F06 
 323      C479A4CA 
 323      36DBC5
 324 04b8 69EE060A 		.ascii	"i\356\006\012\276f\221Y\307\216\332\026\315\207k\240"
 324      BE669159 
 324      C78EDA16 
 324      CD876BA0 
 325 04c8 82DF9366 		.ascii	"\202\337\223f>![%\321\204\324\331\330\260q\320\375\207"
 325      3E215B25 
 325      D184D4D9 
 325      D8B071D0 
 325      FD87
 326 04da 1FA06EF6 		.ascii	"\037\240n\366\356\372\316'LHB{\374\326\3055M\005\022"
 326      EEFACE27 
ARM GAS  /tmp/ccFAcAZy.s 			page 25


 326      4C48427B 
 326      FCD6C535 
 326      4D0512
 327 04ed 3C4CADA7 		.ascii	"<L\255\247\000\316q\012\336^\001\377\035B\376a\033\377"
 327      00CE710A 
 327      DE5E01FF 
 327      1D42FE61 
 327      1BFF
 328 04ff 1D4EFEE4 		.ascii	"\035N\376\344\310r\256Q\224\214\204\006*\341\356\374"
 328      C872AE51 
 328      948C8406 
 328      2AE1EEFC 
 329 050f BF8288BB 		.ascii	"\277\202\210\273\373\377\017\037V\300=/\344\316\177"
 329      FBFF0F1F 
 329      56C03D2F 
 329      E4CE7F
 330 051e F3D8C671 		.ascii	"\363\330\306q\356\344m~\353\011Q2\022\372\332\306\035"
 330      EEE46D7E 
 330      EB095132 
 330      12FADAC6 
 330      1D
 331 052f D576681D 		.ascii	"\325vh\035\351\354\226h&\235n\217\346\252W\277\362z"
 331      E9EC9668 
 331      269D6E8F 
 331      E6AA57BF 
 331      F27A
 332 0541 532B5AD4 		.ascii	"S+Z\324\334,\267&\222m\311u\257\312\351N9\233\223\223"
 332      DC2CB726 
 332      926DC975 
 332      AFCAE94E 
 332      399B9393 
 333 0555 29B5BD2B 		.ascii	")\265\275+\256\311j\002\306\223\261\235\315\011\024"
 333      AEC96A02 
 333      C693B19D 
 333      CD0914
 334 0564 329C125A 		.ascii	"2\234\022Z,\256e\003\231D4\245m\316\005:2\306\265\272"
 334      2CAE6503 
 334      994434A5 
 334      6DCE053A 
 334      32C6B5BA 
 335 0578 33F98E16 		.ascii	"3\371\216\026\315\275('\322\035\232\334\036\353\312"
 335      CDBD2827 
 335      D21D9ADC 
 335      1EEBCA
 336 0587 6A295593 		.ascii	"j)U\223Wmxy\311\352\326V\271-\231\222\001\244=\331&"
 336      576D7879 
 336      C9EAD656 
 336      B92D9992 
 336      01A43DD9 
 337 059c 6F525539 		.ascii	"oRU9\226\355X\222J\247\264%Z\254-)/o^\321\274\234Cv"
 337      96ED5892 
 337      4AA7B425 
 337      5AAC2D29 
 337      2F6F5ED1 
 338 05b4 E6E2716D 		.ascii	"\346\342qm#\300E t\272\355-M\315EI\3600d\262I\313m\354"
 338      23C04520 
 338      74BAED2D 
ARM GAS  /tmp/ccFAcAZy.s 			page 26


 338      4DCD4549 
 338      F03064B2 
 339 05cc 4AA9D1DC 		.ascii	"J\251\321\334B\357\214\325tV#\011C\204L6\375v\022\022"
 339      42EF8CD5 
 339      74562309 
 339      43844C36 
 339      FD761212 
 340 05e0 AE5713EB 		.ascii	"\256W\023\353!\375uF\300\265\251dn\201+DgV\265\022V"
 340      21FD7546 
 340      C0B5A964 
 340      6E812B44 
 340      6756B512 
 341 05f5 91D491F1 		.ascii	"\221\324\221\361\023\350\032\026\244\316\014\362R:\026"
 341      13E81A16 
 341      A4CE0CF2 
 341      523A16
 342 0604 5F95CDC6 		.ascii	"_\225\315\306\266\340\014N\205\315g\253\332\333\323"
 342      B6E00C4E 
 342      85CD67AB 
 342      DADBD3
 343 0613 EADA90E5 		.ascii	"\352\332\220\345\206\366\237\317j\332Z?\020\311\314"
 343      86F69FCF 
 343      6ADA5A3F 
 343      10C9CC
 344 0622 2A3DF0AB 		.ascii	"*=\360\253\211X\266&\0325\330DkY\247\371\351\245\313"
 344      8958B626 
 344      1A35D844 
 344      6B59A7F9 
 344      E9A5CB
 345 0635 96D57425 		.ascii	"\226\325t%S\271eOFsZ\345b\302\327\374\317\376\275Ef"
 345      53B9654F 
 345      46735AE5 
 345      62C2D7FC 
 345      CFFEBD45 
 346 064a 80019182 		.ascii	"\200\001\221\2024\345x\334\226\306\263\326\273\345+"
 346      34E578DC 
 346      96C6B3D6 
 346      BBE52B
 347 0659 AC774FAD 		.ascii	"\254wO\255\370\037\240l\374\220"
 347      F81FA06C 
 347      FC90
 348              		.text
 349              		.section	.gnu.lto_.symtab.e904452d61ce95e4,"",%progbits
 350 0000 6368506F 		.ascii	"chPoolObjectInit\000\000\000\000\000\000\000\000\000"
 350      6F6C4F62 
 350      6A656374 
 350      496E6974 
 350      00000000 
 351 0019 000000A0 		.ascii	"\000\000\000\240\000\000\000chPoolLoadArray\000\000"
 351      00000063 
 351      68506F6F 
 351      6C4C6F61 
 351      64417272 
 352 0031 00000000 		.ascii	"\000\000\000\000\000\000\000\000\000\000\311\000\000"
 352      00000000 
 352      0000C900 
 352      00
ARM GAS  /tmp/ccFAcAZy.s 			page 27


 353 003e 00636850 		.ascii	"\000chPoolAllocI\000\000\000\000\000\000\000\000\000"
 353      6F6F6C41 
 353      6C6C6F63 
 353      49000000 
 353      00000000 
 354 0054 000000D5 		.ascii	"\000\000\000\325\000\000\000chPoolAlloc\000\000\000"
 354      00000063 
 354      68506F6F 
 354      6C416C6C 
 354      6F630000 
 355 0069 00000000 		.ascii	"\000\000\000\000\000\000\000\000\000\333\000\000\000"
 355      00000000 
 355      00DB0000 
 355      00
 356 0076 6368506F 		.ascii	"chPoolFreeI\000\000\000\000\000\000\000\000\000\000"
 356      6F6C4672 
 356      65654900 
 356      00000000 
 356      00000000 
 357 008b 0000DF00 		.ascii	"\000\000\337\000\000\000chPoolFree\000\000\000\000\000"
 357      00006368 
 357      506F6F6C 
 357      46726565 
 357      00000000 
 358 00a0 00000000 		.ascii	"\000\000\000\000\000\000\000\350\000\000\000"
 358      000000E8 
 358      000000
 359              		.text
 360              		.section	.gnu.lto_.opts,"",%progbits
 361 0000 272D6444 		.ascii	"'-dD''-mcpu=cortex-m3''-mno-thumb-interwork''-mthum"
 361      27272D6D 
 361      6370753D 
 361      636F7274 
 361      65782D6D 
 362 0033 6227272D 		.ascii	"b''-ggdb''-g3''-O2''-fomit-frame-pointer''-falign-f"
 362      67676462 
 362      27272D67 
 362      3327272D 
 362      4F322727 
 363 0066 756E6374 		.ascii	"unctions=16''-ffunction-sections''-fdata-sections''"
 363      696F6E73 
 363      3D313627 
 363      272D6666 
 363      756E6374 
 364 0099 2D666E6F 		.ascii	"-fno-common''-flto'\000"
 364      2D636F6D 
 364      6D6F6E27 
 364      272D666C 
 364      746F2700 
 365              		.text
 366              		.cfi_sections	.debug_frame
 367              		.section	.text.chPoolObjectInit,"ax",%progbits
 368              		.align	2
 369              		.p2align 4,,15
 370              		.global	chPoolObjectInit
 371              		.thumb
 372              		.thumb_func
ARM GAS  /tmp/ccFAcAZy.s 			page 28


 373              		.type	chPoolObjectInit, %function
 374              	chPoolObjectInit:
 375              	.LFB170:
 376              		.file 1 "../ChibiOS/os/rt/src/chmempools.c"
 377              		.loc 1 75 0
 378              		.cfi_startproc
 379              		@ args = 0, pretend = 0, frame = 0
 380              		@ frame_needed = 0, uses_anonymous_args = 0
 381              		@ link register save eliminated.
 382              	.LVL0:
 383              		.loc 1 79 0
 384 0000 0023     		movs	r3, #0
 385 0002 0360     		str	r3, [r0, #0]
 386              		.loc 1 80 0
 387 0004 4160     		str	r1, [r0, #4]
 388              		.loc 1 81 0
 389 0006 8260     		str	r2, [r0, #8]
 390 0008 7047     		bx	lr
 391              		.cfi_endproc
 392              	.LFE170:
 393              		.size	chPoolObjectInit, .-chPoolObjectInit
 394 000a 00BFAFF3 		.section	.text.chPoolLoadArray,"ax",%progbits
 394      0080
 395              		.align	2
 396              		.p2align 4,,15
 397              		.global	chPoolLoadArray
 398              		.thumb
 399              		.thumb_func
 400              		.type	chPoolLoadArray, %function
 401              	chPoolLoadArray:
 402              	.LFB171:
 403              		.loc 1 97 0
 404              		.cfi_startproc
 405              		@ args = 0, pretend = 0, frame = 0
 406              		@ frame_needed = 0, uses_anonymous_args = 0
 407              		@ link register save eliminated.
 408              	.LVL1:
 409 0000 F0B4     		push	{r4, r5, r6, r7}
 410              	.LCFI0:
 411              		.cfi_def_cfa_offset 16
 412              		.cfi_offset 4, -16
 413              		.cfi_offset 5, -12
 414              		.cfi_offset 6, -8
 415              		.cfi_offset 7, -4
 416              		.loc 1 101 0
 417 0002 002A     		cmp	r2, #0
 418 0004 2FD0     		beq	.L2
 419 0006 531E     		subs	r3, r2, #1
 420              	.LBB65:
 421              	.LBB66:
 422              	.LBB67:
 423              	.LBB68:
 424              	.LBB69:
 425              	.LBB70:
 426              		.file 2 "../ChibiOS/os/ext/CMSIS/include/core_cmFunc.h"
 427              		.loc 2 546 0
 428 0008 2026     		movs	r6, #32
ARM GAS  /tmp/ccFAcAZy.s 			page 29


 429              	.LBE70:
 430              	.LBE69:
 431              	.LBE68:
 432              	.LBE67:
 433              	.LBB83:
 434              	.LBB84:
 435              	.LBB85:
 436              	.LBB86:
 437              	.LBB87:
 438 000a 0025     		movs	r5, #0
 439 000c 03F00104 		and	r4, r3, #1
 440              	.LVL2:
 441              	.LBE87:
 442              	.LBE86:
 443              	.LBE85:
 444              	.LBE84:
 445              	.LBE83:
 446              	.LBB104:
 447              	.LBB79:
 448              	.LBB75:
 449              	.LBB71:
 450              	@ 546 "../ChibiOS/os/ext/CMSIS/include/core_cmFunc.h" 1
 451 0010 86F31188 		MSR basepri, r6
 452              	@ 0 "" 2
 453              	.LVL3:
 454              		.thumb
 455              	.LBE71:
 456              	.LBE75:
 457              	.LBE79:
 458              	.LBE104:
 459              	.LBB105:
 460              	.LBB106:
 461              		.loc 1 168 0
 462 0014 0268     		ldr	r2, [r0, #0]
 463              	.LVL4:
 464 0016 0A60     		str	r2, [r1, #0]
 465              		.loc 1 169 0
 466 0018 0160     		str	r1, [r0, #0]
 467              	.LVL5:
 468              	.LBE106:
 469              	.LBE105:
 470              	.LBB110:
 471              	.LBB100:
 472              	.LBB96:
 473              	.LBB92:
 474              	.LBB88:
 475              		.loc 2 546 0
 476              	@ 546 "../ChibiOS/os/ext/CMSIS/include/core_cmFunc.h" 1
 477 001a 85F31188 		MSR basepri, r5
 478              	@ 0 "" 2
 479              		.thumb
 480              	.LBE88:
 481              	.LBE92:
 482              	.LBE96:
 483              	.LBE100:
 484              	.LBE110:
 485              	.LBE66:
ARM GAS  /tmp/ccFAcAZy.s 			page 30


 486              	.LBE65:
 487              		.loc 1 103 0
 488 001e 4268     		ldr	r2, [r0, #4]
 489 0020 8918     		adds	r1, r1, r2
 490              	.LVL6:
 491              		.loc 1 101 0
 492 0022 03B3     		cbz	r3, .L2
 493 0024 54B1     		cbz	r4, .L6
 494              	.LVL7:
 495              	.LBB123:
 496              	.LBB120:
 497              	.LBB111:
 498              	.LBB80:
 499              	.LBB76:
 500              	.LBB72:
 501              		.loc 2 546 0
 502              	@ 546 "../ChibiOS/os/ext/CMSIS/include/core_cmFunc.h" 1
 503 0026 86F31188 		MSR basepri, r6
 504              	@ 0 "" 2
 505              	.LVL8:
 506              		.thumb
 507              	.LBE72:
 508              	.LBE76:
 509              	.LBE80:
 510              	.LBE111:
 511              	.LBB112:
 512              	.LBB107:
 513              		.loc 1 168 0
 514 002a 0268     		ldr	r2, [r0, #0]
 515 002c 0A60     		str	r2, [r1, #0]
 516              		.loc 1 169 0
 517 002e 0160     		str	r1, [r0, #0]
 518              	.LBE107:
 519              	.LBE112:
 520              	.LBB113:
 521              	.LBB101:
 522              	.LBB97:
 523              	.LBB93:
 524              	.LBB89:
 525              		.loc 2 546 0
 526              	@ 546 "../ChibiOS/os/ext/CMSIS/include/core_cmFunc.h" 1
 527 0030 85F31188 		MSR basepri, r5
 528              	@ 0 "" 2
 529              		.thumb
 530              	.LBE89:
 531              	.LBE93:
 532              	.LBE97:
 533              	.LBE101:
 534              	.LBE113:
 535              	.LBE120:
 536              	.LBE123:
 537              		.loc 1 103 0
 538 0034 4268     		ldr	r2, [r0, #4]
 539              		.loc 1 101 0
 540 0036 013B     		subs	r3, r3, #1
 541              	.LVL9:
 542              		.loc 1 103 0
ARM GAS  /tmp/ccFAcAZy.s 			page 31


 543 0038 1144     		add	r1, r1, r2
 544              	.LVL10:
 545              		.loc 1 101 0
 546 003a 14D0     		beq	.L2
 547              	.L6:
 548              	.LBB124:
 549              	.LBB121:
 550              	.LBB114:
 551              	.LBB81:
 552              	.LBB77:
 553              	.LBB73:
 554              		.loc 2 546 0
 555              	@ 546 "../ChibiOS/os/ext/CMSIS/include/core_cmFunc.h" 1
 556 003c 86F31188 		MSR basepri, r6
 557              	@ 0 "" 2
 558              		.thumb
 559              	.LBE73:
 560              	.LBE77:
 561              	.LBE81:
 562              	.LBE114:
 563              	.LBB115:
 564              	.LBB108:
 565              		.loc 1 168 0
 566 0040 0468     		ldr	r4, [r0, #0]
 567 0042 0C60     		str	r4, [r1, #0]
 568              		.loc 1 169 0
 569 0044 0160     		str	r1, [r0, #0]
 570              	.LBE108:
 571              	.LBE115:
 572              	.LBB116:
 573              	.LBB102:
 574              	.LBB98:
 575              	.LBB94:
 576              	.LBB90:
 577              		.loc 2 546 0
 578              	@ 546 "../ChibiOS/os/ext/CMSIS/include/core_cmFunc.h" 1
 579 0046 85F31188 		MSR basepri, r5
 580              	@ 0 "" 2
 581              		.thumb
 582              	.LBE90:
 583              	.LBE94:
 584              	.LBE98:
 585              	.LBE102:
 586              	.LBE116:
 587              	.LBE121:
 588              	.LBE124:
 589              		.loc 1 103 0
 590 004a 4468     		ldr	r4, [r0, #4]
 591              		.loc 1 104 0
 592 004c 013B     		subs	r3, r3, #1
 593              		.loc 1 103 0
 594 004e 0A19     		adds	r2, r1, r4
 595              	.LBB125:
 596              	.LBB122:
 597              	.LBB117:
 598              	.LBB82:
 599              	.LBB78:
ARM GAS  /tmp/ccFAcAZy.s 			page 32


 600              	.LBB74:
 601              		.loc 2 546 0
 602              	@ 546 "../ChibiOS/os/ext/CMSIS/include/core_cmFunc.h" 1
 603 0050 86F31188 		MSR basepri, r6
 604              	@ 0 "" 2
 605              		.thumb
 606              	.LBE74:
 607              	.LBE78:
 608              	.LBE82:
 609              	.LBE117:
 610              	.LBB118:
 611              	.LBB109:
 612              		.loc 1 168 0
 613 0054 0768     		ldr	r7, [r0, #0]
 614 0056 0F51     		str	r7, [r1, r4]
 615              		.loc 1 169 0
 616 0058 0260     		str	r2, [r0, #0]
 617              	.LBE109:
 618              	.LBE118:
 619              	.LBB119:
 620              	.LBB103:
 621              	.LBB99:
 622              	.LBB95:
 623              	.LBB91:
 624              		.loc 2 546 0
 625              	@ 546 "../ChibiOS/os/ext/CMSIS/include/core_cmFunc.h" 1
 626 005a 85F31188 		MSR basepri, r5
 627              	@ 0 "" 2
 628              		.thumb
 629              	.LBE91:
 630              	.LBE95:
 631              	.LBE99:
 632              	.LBE103:
 633              	.LBE119:
 634              	.LBE122:
 635              	.LBE125:
 636              		.loc 1 103 0
 637 005e 4168     		ldr	r1, [r0, #4]
 638              		.loc 1 101 0
 639 0060 013B     		subs	r3, r3, #1
 640              		.loc 1 103 0
 641 0062 1144     		add	r1, r2, r1
 642              		.loc 1 101 0
 643 0064 EAD1     		bne	.L6
 644              	.LVL11:
 645              	.L2:
 646              		.loc 1 106 0
 647 0066 F0BC     		pop	{r4, r5, r6, r7}
 648 0068 7047     		bx	lr
 649              		.cfi_endproc
 650              	.LFE171:
 651              		.size	chPoolLoadArray, .-chPoolLoadArray
 652 006a 00BFAFF3 		.section	.text.chPoolAllocI,"ax",%progbits
 652      0080
 653              		.align	2
 654              		.p2align 4,,15
 655              		.global	chPoolAllocI
ARM GAS  /tmp/ccFAcAZy.s 			page 33


 656              		.thumb
 657              		.thumb_func
 658              		.type	chPoolAllocI, %function
 659              	chPoolAllocI:
 660              	.LFB172:
 661              		.loc 1 118 0
 662              		.cfi_startproc
 663              		@ args = 0, pretend = 0, frame = 0
 664              		@ frame_needed = 0, uses_anonymous_args = 0
 665              	.LVL12:
 666 0000 08B5     		push	{r3, lr}
 667              	.LCFI1:
 668              		.cfi_def_cfa_offset 8
 669              		.cfi_offset 3, -8
 670              		.cfi_offset 14, -4
 671              		.loc 1 118 0
 672 0002 0346     		mov	r3, r0
 673              		.loc 1 124 0
 674 0004 0068     		ldr	r0, [r0, #0]
 675              	.LVL13:
 676 0006 10B1     		cbz	r0, .L16
 677              		.loc 1 125 0
 678 0008 0168     		ldr	r1, [r0, #0]
 679 000a 1960     		str	r1, [r3, #0]
 680 000c 08BD     		pop	{r3, pc}
 681              	.L16:
 682              		.loc 1 126 0
 683 000e 9A68     		ldr	r2, [r3, #8]
 684 0010 0AB1     		cbz	r2, .L17
 685              		.loc 1 127 0
 686 0012 5868     		ldr	r0, [r3, #4]
 687              	.LVL14:
 688 0014 9047     		blx	r2
 689              	.LVL15:
 690              	.L17:
 691              		.loc 1 129 0
 692 0016 08BD     		pop	{r3, pc}
 693              		.cfi_endproc
 694              	.LFE172:
 695              		.size	chPoolAllocI, .-chPoolAllocI
 696 0018 AFF30080 		.section	.text.chPoolAlloc,"ax",%progbits
 696      AFF30080 
 697              		.align	2
 698              		.p2align 4,,15
 699              		.global	chPoolAlloc
 700              		.thumb
 701              		.thumb_func
 702              		.type	chPoolAlloc, %function
 703              	chPoolAlloc:
 704              	.LFB173:
 705              		.loc 1 141 0
 706              		.cfi_startproc
 707              		@ args = 0, pretend = 0, frame = 0
 708              		@ frame_needed = 0, uses_anonymous_args = 0
 709              	.LVL16:
 710 0000 08B5     		push	{r3, lr}
 711              	.LCFI2:
ARM GAS  /tmp/ccFAcAZy.s 			page 34


 712              		.cfi_def_cfa_offset 8
 713              		.cfi_offset 3, -8
 714              		.cfi_offset 14, -4
 715              	.LBB126:
 716              	.LBB127:
 717              	.LBB128:
 718              	.LBB129:
 719              		.loc 2 546 0
 720 0002 2022     		movs	r2, #32
 721              	.LBE129:
 722              	.LBE128:
 723              	.LBE127:
 724              	.LBE126:
 725              		.loc 1 141 0
 726 0004 0346     		mov	r3, r0
 727              	.LBB133:
 728              	.LBB132:
 729              	.LBB131:
 730              	.LBB130:
 731              		.loc 2 546 0
 732              	@ 546 "../ChibiOS/os/ext/CMSIS/include/core_cmFunc.h" 1
 733 0006 82F31188 		MSR basepri, r2
 734              	@ 0 "" 2
 735              	.LVL17:
 736              		.thumb
 737              	.LBE130:
 738              	.LBE131:
 739              	.LBE132:
 740              	.LBE133:
 741              	.LBB134:
 742              	.LBB135:
 743              		.loc 1 124 0
 744 000a 0068     		ldr	r0, [r0, #0]
 745              	.LVL18:
 746 000c 28B1     		cbz	r0, .L22
 747              		.loc 1 125 0
 748 000e 0268     		ldr	r2, [r0, #0]
 749 0010 1A60     		str	r2, [r3, #0]
 750              	.LVL19:
 751              	.L23:
 752              	.LBE135:
 753              	.LBE134:
 754              	.LBB137:
 755              	.LBB138:
 756              	.LBB139:
 757              	.LBB140:
 758              	.LBB141:
 759              		.loc 2 546 0
 760 0012 0023     		movs	r3, #0
 761              	@ 546 "../ChibiOS/os/ext/CMSIS/include/core_cmFunc.h" 1
 762 0014 83F31188 		MSR basepri, r3
 763              	@ 0 "" 2
 764              		.thumb
 765              	.LBE141:
 766              	.LBE140:
 767              	.LBE139:
 768              	.LBE138:
ARM GAS  /tmp/ccFAcAZy.s 			page 35


 769              	.LBE137:
 770              		.loc 1 148 0
 771 0018 08BD     		pop	{r3, pc}
 772              	.LVL20:
 773              	.L22:
 774              	.LBB142:
 775              	.LBB136:
 776              		.loc 1 126 0
 777 001a 9968     		ldr	r1, [r3, #8]
 778 001c 0029     		cmp	r1, #0
 779 001e F8D0     		beq	.L23
 780              		.loc 1 127 0
 781 0020 5868     		ldr	r0, [r3, #4]
 782              	.LVL21:
 783 0022 8847     		blx	r1
 784              	.LVL22:
 785 0024 F5E7     		b	.L23
 786              	.LBE136:
 787              	.LBE142:
 788              		.cfi_endproc
 789              	.LFE173:
 790              		.size	chPoolAlloc, .-chPoolAlloc
 791 0026 00BFAFF3 		.section	.text.chPoolFreeI,"ax",%progbits
 791      0080AFF3 
 791      0080
 792              		.align	2
 793              		.p2align 4,,15
 794              		.global	chPoolFreeI
 795              		.thumb
 796              		.thumb_func
 797              		.type	chPoolFreeI, %function
 798              	chPoolFreeI:
 799              	.LFB174:
 800              		.loc 1 162 0
 801              		.cfi_startproc
 802              		@ args = 0, pretend = 0, frame = 0
 803              		@ frame_needed = 0, uses_anonymous_args = 0
 804              		@ link register save eliminated.
 805              	.LVL23:
 806              		.loc 1 168 0
 807 0000 0368     		ldr	r3, [r0, #0]
 808              	.LVL24:
 809 0002 0B60     		str	r3, [r1, #0]
 810              		.loc 1 169 0
 811 0004 0160     		str	r1, [r0, #0]
 812 0006 7047     		bx	lr
 813              		.cfi_endproc
 814              	.LFE174:
 815              		.size	chPoolFreeI, .-chPoolFreeI
 816 0008 AFF30080 		.section	.text.chPoolFree,"ax",%progbits
 816      AFF30080 
 817              		.align	2
 818              		.p2align 4,,15
 819              		.global	chPoolFree
 820              		.thumb
 821              		.thumb_func
 822              		.type	chPoolFree, %function
ARM GAS  /tmp/ccFAcAZy.s 			page 36


 823              	chPoolFree:
 824              	.LFB175:
 825              		.loc 1 184 0
 826              		.cfi_startproc
 827              		@ args = 0, pretend = 0, frame = 0
 828              		@ frame_needed = 0, uses_anonymous_args = 0
 829              		@ link register save eliminated.
 830              	.LVL25:
 831              	.LBB143:
 832              	.LBB144:
 833              	.LBB145:
 834              	.LBB146:
 835              		.loc 2 546 0
 836 0000 2023     		movs	r3, #32
 837              	@ 546 "../ChibiOS/os/ext/CMSIS/include/core_cmFunc.h" 1
 838 0002 83F31188 		MSR basepri, r3
 839              	@ 0 "" 2
 840              	.LVL26:
 841              		.thumb
 842              	.LBE146:
 843              	.LBE145:
 844              	.LBE144:
 845              	.LBE143:
 846              	.LBB147:
 847              	.LBB148:
 848              		.loc 1 168 0
 849 0006 0268     		ldr	r2, [r0, #0]
 850 0008 0A60     		str	r2, [r1, #0]
 851              		.loc 1 169 0
 852 000a 0160     		str	r1, [r0, #0]
 853              	.LVL27:
 854              	.LBE148:
 855              	.LBE147:
 856              	.LBB149:
 857              	.LBB150:
 858              	.LBB151:
 859              	.LBB152:
 860              	.LBB153:
 861              		.loc 2 546 0
 862 000c 0020     		movs	r0, #0
 863              	.LVL28:
 864              	@ 546 "../ChibiOS/os/ext/CMSIS/include/core_cmFunc.h" 1
 865 000e 80F31188 		MSR basepri, r0
 866              	@ 0 "" 2
 867              		.thumb
 868 0012 7047     		bx	lr
 869              	.LBE153:
 870              	.LBE152:
 871              	.LBE151:
 872              	.LBE150:
 873              	.LBE149:
 874              		.cfi_endproc
 875              	.LFE175:
 876              		.size	chPoolFree, .-chPoolFree
 877 0014 AFF30080 		.text
 877      AFF30080 
 877      AFF30080 
ARM GAS  /tmp/ccFAcAZy.s 			page 37


 878              	.Letext0:
 879              		.file 3 "/home/laurence/ARM-GCC/bin/../lib/gcc/arm-none-eabi/4.7.4/include/stddef.h"
 880              		.file 4 "/home/laurence/ARM-GCC/bin/../lib/gcc/arm-none-eabi/4.7.4/../../../../arm-none-eabi/inclu
 881              		.file 5 "../ChibiOS/os/rt/ports/ARMCMx/compilers/GCC/chtypes.h"
 882              		.file 6 "../ChibiOS/os/rt/include/chsystypes.h"
 883              		.file 7 "../ChibiOS/os/rt/include/chschd.h"
 884              		.file 8 "../ChibiOS/os/rt/ports/ARMCMx/chcore.h"
 885              		.file 9 "../ChibiOS/os/rt/ports/ARMCMx/chcore_v7m.h"
 886              		.file 10 "../ChibiOS/os/rt/include/chtm.h"
 887              		.file 11 "../ChibiOS/os/rt/include/chmtx.h"
 888              		.file 12 "../ChibiOS/os/rt/include/chmemcore.h"
 889              		.file 13 "../ChibiOS/os/rt/include/chmempools.h"
 890              		.file 14 "../ChibiOS/os/rt/include/chsys.h"
 891              		.file 15 "../ChibiOS/os/ext/CMSIS/include/core_cm3.h"