ARM GAS  /tmp/ccG8xVis.s 			page 1


   1              		.syntax unified
   2              		.cpu cortex-m3
   3              		.fpu softvfp
   4              		.eabi_attribute 20, 1
   5              		.eabi_attribute 21, 1
   6              		.eabi_attribute 23, 3
   7              		.eabi_attribute 24, 1
   8              		.eabi_attribute 25, 1
   9              		.eabi_attribute 26, 1
  10              		.eabi_attribute 30, 2
  11              		.eabi_attribute 34, 1
  12              		.eabi_attribute 18, 4
  13              		.thumb
  14              		.file	"chmemcore.c"
  15              		.text
  16              	.Ltext0:
  17              		.section	.gnu.lto_.jmpfuncs.690fd21e93f0e043,"",%progbits
  18 0000 789C6362 		.ascii	"x\234cb`d`g\300\016\270\2404\013\003\003##\023#3\003"
  18      60646067 
  18      C00EB8A0 
  18      340B0303 
  18      23231323 
  19 0016 030002DC 		.ascii	"\003\000\002\334\000!"
  19      0021
  20              		.text
  21              		.section	.gnu.lto_.inline.690fd21e93f0e043,"",%progbits
  22 0000 789C6362 		.ascii	"x\234cb`d\340e\300\016B\2414\013\003\003\007;#\003\023"
  22      6064E065 
  22      C00E42A1 
  22      340B0303 
  22      073B2303 
  23 0015 CB027906 		.ascii	"\313\002y\006\266\005\362L@-|\274\214\214@\212\201Y"
  23      B605F24C 
  23      402D7CBC 
  23      8C8C408A 
  23      8159
  24 0027 E8402723 		.ascii	"\350@'#D\020(\313\302\300\304\300\303\015\225\341[\220"
  24      441028CB 
  24      C2C0C4C0 
  24      C30D95E1 
  24      5B90
  25 0039 8524C1CC 		.ascii	"\205$\301\314\300\306\0124\202\355\203\036D\220\001"
  25      C0C60A34 
  25      82ED831E 
  25      449001
  26 0048 00971709 		.ascii	"\000\227\027\011\323"
  26      D3
  27              		.text
  28              		.section	.gnu.lto_.pureconst.690fd21e93f0e043,"",%progbits
  29 0000 789C6362 		.ascii	"x\234cb`d`f``\340d\200\000\026\006\011F+&\011f\026\000"
  29      60646066 
  29      6060E064 
  29      80001606 
  29      09462B26 
  30 0018 03880088 		.ascii	"\003\210\000\210"
  31              		.text
  32              		.section	.gnu.lto__core_init.690fd21e93f0e043,"",%progbits
ARM GAS  /tmp/ccG8xVis.s 			page 2


  33 0000 789CBD93 		.ascii	"x\234\275\223=O\033A\020\206\337\331\365\235\023\010"
  33      3D4F1B41 
  33      1086DFD9 
  33      F59D1308 
  34 0010 222D6962 		.ascii	"\"-ib\370\001w\030\245I\225\"M\250\020\211R\244\260"
  34      F8017718 
  34      A5499522 
  34      4DA81089 
  34      52A4B0
  35 0023 4E70AC62 		.ascii	"Np\254b\027|\310\246\210\322\370\342\344\007XT\3404"
  35      177CC8A6 
  35      88D2F8E2 
  35      E4075854 
  35      E034
  36 0035 E4431121 		.ascii	"\344C\021!\212R!\341\006\"A\201PDMAa!\032$\312\024\241"
  36      8A5221E1 
  36      06224181 
  36      50444D41 
  36      61211A24 
  37 004c 3A66D63E 		.ascii	":f\326>\333\310\016]\262\247\323\273w3\357\316s{\263"
  37      DBC80E5D 
  37      B2A7D3BB 
  37      7733EFCE 
  37      737BB3
  38 005f 0AC457EF 		.ascii	"\012\304W\357\030\341\273\256\201\022+i\220\252\036"
  38      18E1BBAE 
  38      81122B69 
  38      90AA1E
  39 006e 016F328A 		.ascii	"\001o2\212H&l)+*?\267\316\364\030>D\321Ju\257\362\244"
  39      48266C29 
  39      2B2A3FB7 
  39      CEF4183E 
  39      44D14A75 
  40 0085 D288E3FB 		.ascii	"\322\210\343\373\206\240\240\010\001a\263\276\265\257"
  40      86A0A008 
  40      0161B3BE 
  40      B5AF
  41 0093 47608890 		.ascii	"G`\210\220\201\250B\352z\235^/\304\210\177gZILZ\341"
  41      81A842EA 
  41      7A9D5E2F 
  41      C4887F67 
  41      5A494C5A 
  42 00a8 81A53CEE 		.ascii	"\201\245<\356\203X\240\233\312)<\262\316\263\332\016"
  42      8358A09B 
  42      CA293CB2 
  42      CEB3DA0E 
  43 00b8 FD1FD229 		.ascii	"\375\037\322)[\357\240/i\007\365\367\332\016\235\274"
  43      5BEFA02F 
  43      6907F5F7 
  43      DA0E9DBC 
  44 00c8 7777D5CF 		.ascii	"ww\325\317F\\\006\006\0119Z\2471\346\315\321GV\315\372"
  44      465C0606 
  44      09395AA7 
  44      31E6CDD1 
  44      4756CDFA 
  45 00dc 8935C5FA 		.ascii	"\2115\305\372\231\325a\375\302\352\262n\260\246Y\277"
  45      99D561FD 
ARM GAS  /tmp/ccG8xVis.s 			page 3


  45      C2EAB26E 
  45      B0A659BF 
  46 00ec B2F270F0 		.ascii	"\262\362p\360.\212\356*aiT\253\321\372j\246\005\223"
  46      2E8AEE2A 
  46      616954AB 
  46      D1FA6AA6 
  46      0593
  47 00fe 52786161 		.ascii	"Rxaa\366k\233\355\3129\372\3168]\374=\236\227\326\363"
  47      F66B9BED 
  47      CA39FACE 
  47      385DFC3D 
  47      9E97D6F3 
  48 0112 EB5EC7F1 		.ascii	"\353^\307\361\243\343\010Z\013M\213J\203=\225\030O\364"
  48      A3E3085A 
  48      0B4D8B4A 
  48      833D9518 
  48      4FF4
  49 0124 212A17FA 		.ascii	"!*\027\372\244vJ9\372F\016B\242\327\270\214n\031r\250"
  49      A4764A39 
  49      FA460E42 
  49      A2D7B88C 
  49      6E1972A8 
  50 0138 90F80FF1 		.ascii	"\220\370\017\361\266\214$\2568E6\207\373\262\031\252"
  50      B68C24AE 
  50      38453687 
  50      FBB219AA 
  51 0148 EB764C73 		.ascii	"\353vLs\270\031\373\023\307\361\260\215W\316\365\261"
  51      B819FB13 
  51      C7F1B08D 
  51      57CEF5B1 
  52 0158 4E12529C 		.ascii	"N\022R\234c_Nn\267\336\325\260F\362\003ZU]\256j\317"
  52      635F4E6E 
  52      B7DED5B0 
  52      46F2035A 
  52      555DAE6A 
  53 016d 8B2CE3DA 		.ascii	"\213,\343\332\203\000\361Y\323\205\226~H\326r\272@u"
  53      8300F159 
  53      D385967E 
  53      48D672BA 
  53      4075
  54 017f 1BB48BC6 		.ascii	"\033\264\213\306\345\234>4\007m\232t(%\204f\343\357"
  54      E59C3E34 
  54      076D9A74 
  54      28258466 
  54      E3EF
  55 0191 34D44BC3 		.ascii	"4\324K\303\037~\004\351\203\246)\031\323\222\312{*\273"
  55      1F7E04E9 
  55      83A62919 
  55      D392CA7B 
  55      2ABB
  56 01a3 361C0479 		.ascii	"6\034\004y3\263\024\314\316\224L\020x\017G=\317\177"
  56      33B314CC 
  56      CE944C10 
  56      780F473D 
  56      CF7F
  57 01b5 9C2FCC16 		.ascii	"\234/\314\026\246\236\371\213%\277\270\354\227\212\241"
  57      A69EF98B 
ARM GAS  /tmp/ccG8xVis.s 			page 4


  57      25BFB8EC 
  57      978AA1
  58 01c4 1FE6E7CD 		.ascii	"\037\346\347\315|\270X4^\210\201\005\363j\231\037\275"
  58      7CB85834 
  58      5E888105 
  58      F36A991F 
  58      BD
  59 01d5 EC786236 		.ascii	"\354xb6\013s\354\315fo\363\304F&\206\256-{\247;\357"
  59      0B73ECCD 
  59      666FF3C4 
  59      462686AE 
  59      2D7BA73B 
  60 01ea 0A79A8EF 		.ascii	"\012y\250\357\012"
  60      0A
  61              		.text
  62              		.section	.gnu.lto_chCoreAlloc.690fd21e93f0e043,"",%progbits
  63 0000 789C9D54 		.ascii	"x\234\235T]HSa\030~\337s6\267\371\267ycxcK,\002eG(\321"
  63      5D485361 
  63      187EDF73 
  63      36B7F9B7 
  63      79637863 
  64 001b BB0A21F4 		.ascii	"\273\012!\364bD\033]\036D\217'\\\270)\233\212y\343i"
  64      62441B5D 
  64      1E448F27 
  64      5CB8299B 
  64      8A79E369 
  65 002f 76118520 		.ascii	"v\021\205 RP\301*\265\237S\204\375\330EQY\340OQ\346"
  65      5250C12A 
  65      B59F5384 
  65      FDD84551 
  65      59E04F51 
  66 0044 85175D94 		.ascii	"\205\027]\224\224\240A\205\227A\006\302z\277\357\234"
  66      94A04185 
  66      974106C2 
  66      7ABFEF9C 
  67 0054 331D539B 		.ascii	"3\035S\233\235\261=\337\336\357}\236\367\347{\277#\000"
  67      9DB13DDF 
  67      DEEF7D9E 
  67      F7E77BBF 
  67      2300
  68 0066 D227F339 		.ascii	"\322'\3639@\33779\000\037\010\321\016(\014\316\001\234"
  68      40DF3739 
  68      001F08D1 
  68      0E280CCE 
  68      019C
  69 0078 F10A82ED 		.ascii	"\361\012\202\355\273\003\264\375\242>\003\240U\211h"
  69      BB03B4FD 
  69      A23E03A0 
  69      558968
  70 0087 33EC3644 		.ascii	"3\3546D\266 \251>A\264a\337\011\256\351*\203aM\033\032"
  70      B620A93E 
  70      41B461DF 
  70      09AEE92A 
  70      83614D1B 
  71 009c ECD7EAE3 		.ascii	"\354\327\352\343\213\311\344n\025A\000\001\241\021a"
  71      8BC9E46E 
  71      15410001 
ARM GAS  /tmp/ccG8xVis.s 			page 5


  71      A11161
  72 00ab FED3527E 		.ascii	"\376\323R~\011\250\210\340\005\206\002\330\322\023\310"
  72      09A888E0 
  72      058602D8 
  72      D213C8
  73 00ba A08A02EC 		.ascii	"\240\212\002\354\343\324\331Di6\314\311!\213i\023\240"
  73      E3D4D944 
  73      6936CCC9 
  73      218B6913 
  73      A0
  74 00cb 8233D7F4 		.ascii	"\2023\327\364H&3\204\231\324\270E\265\003\343-\353Y"
  74      48263384 
  74      99D4B845 
  74      B503E32D 
  74      EB59
  75 00dd 441CDC40 		.ascii	"D\034\334@\313\341\264U\373\016Y\002T\363<a\307\274"
  75      CBE1B455 
  75      FB0E5902 
  75      54F33C61 
  75      C7BC
  76 00ef 43D9F236 		.ascii	"C\331\3626\026G}\251\377\037\236\321\224\005\375\324"
  76      16477DA9 
  76      FF1F9ED1 
  76      9405FDD4 
  77 00ff B6B4D9C4 		.ascii	"\266\264\331\304\2100u-\347\225\360z1\331W\016\243\346"
  77      8830752D 
  77      E795F07A 
  77      31D9570E 
  77      A3E6
  78 0111 69D241CA 		.ascii	"i\322A\3128J\356\374$\177\342&\032\344\002\273\020e"
  78      384AEEFC 
  78      247FE226 
  78      1AE402BB 
  78      1065
  79 0123 7C80E5E0 		.ascii	"|\200\345\340\004\031\307\260\014\\\204#\204\271\204"
  79      0419C7B0 
  79      0C5C8423 
  79      84B984
  80 0132 F709F308 		.ascii	"\367\011\363\010\357\021\346\023\336 , \324\011\013"
  80      EF11E613 
  80      DE202C20 
  80      D4090B
  81 0141 09EF10BA 		.ascii	"\011\357\020\272\011o\023z\010o\022\026\231~\364\330"
  81      096F137A 
  81      086F1216 
  81      997EF4D8 
  82 0151 E1ACA679 		.ascii	"\341\254\246y\320\370\337h\036\377q\206l\206\003\224"
  82      D0F8DF68 
  82      1EFF7186 
  82      6C860394 
  83 0161 065B8833 		.ascii	"\006[\21034\252\206\253\311 \205\207\254\370\255g\324"
  83      34AA86AB 
  83      C9208587 
  83      ACF8AD67 
  83      D4
  84 0172 21301D92 		.ascii	"!0\035\222\234\030\370\375\271r\333\3660\243\2036\001"
  84      9C18F8FD 
ARM GAS  /tmp/ccG8xVis.s 			page 6


  84      B972DBF6 
  84      30A38336 
  84      01
  85 0183 DE431CC7 		.ascii	"\336C\034\307.^Z\252M\013F\351\215Sz2>J\013\311n\353"
  85      2E5E5AAA 
  85      4D0B46E9 
  85      8D537A32 
  85      3E4A0BC9 
  86 0199 63EA0FE5 		.ascii	"c\352\017\345\310\177\000Ja\022\023\332\345\303*:\323"
  86      C87F004A 
  86      611213DA 
  86      E5C32A3A 
  86      D3
  87 01aa 6453DB33 		.ascii	"dS\3333\346\266\213\013\260\252\300\354\245B\351\301"
  87      E6B68B0B 
  87      B0AAC0EC 
  87      A542E9C1 
  88 01ba 3BE8EF9B 		.ascii	";\350\357\233\277p\253\300\014\233yee\0346\216k\355"
  88      BF70ABC0 
  88      0C9B7965 
  88      651C368E 
  88      6BED
  89 01cc FAC96D4B 		.ascii	"\372\311mKJ%>\302\023O\357\225\202N\012W\302\017\327"
  89      4A253EC2 
  89      134FEF95 
  89      824E0A57 
  89      C20FD7
  90 01df 013CEC33 		.ascii	"\001<\3543qAo\226\361\005\371)\350\"\007cw5\231L\272"
  90      71416F96 
  90      F105F929 
  90      E8220763 
  90      7735994C 
  91 01f4 8D4CC1D8 		.ascii	"\215L\301\330\265\262u1Z\274aY\237@\213\226{\025\256"
  91      B5B27531 
  91      5ABC6159 
  91      9F408B96 
  91      7B15AE
  92 0207 201BE55E 		.ascii	" \033\345^\370\2439U\314\305\020\262\252x\206\271\274"
  92      F8A33955 
  92      CCC510B2 
  92      AA7886B9 
  92      BC
  93 0218 61C0A3C5 		.ascii	"a\300\243\305\177\210`\221\362\024\266\305\244R\246"
  93      7F886091 
  93      F214B6C5 
  93      A452A6
  94 0227 FC4D74E0 		.ascii	"\374Mt\340_:\005\304\343\225\234[\267\025r\371\002\356"
  94      5F3A05C4 
  94      E3959C5B 
  94      B71572F9 
  94      02EE
  95 0239 BA22F658 		.ascii	"\272\"\366Xf7\355\000L\303\3247l\335P\262{\275A\001"
  95      6637ED00 
  95      4CC3D437 
  95      6CDD50B2 
  95      7BBD4101 
  96 024d 2A1DE8B5 		.ascii	"*\035\350\265\312\346\356\227^lU\376\222Wn\2049/\322"
ARM GAS  /tmp/ccG8xVis.s 			page 7


  96      CAE6EE97 
  96      5E6C55FE 
  96      92576E84 
  96      392FD2
  97 0260 1BCC627B 		.ascii	"\033\314b{\310\232j\211\031>\233\"\210i\005\264\245"
  97      C89A6A89 
  97      193E9B22 
  97      886905B4 
  97      A5
  98 0271 067D2551 		.ascii	"\006}%Ql\034X\352\222@\346\370oq\013\266\270\0122>1"
  98      6C1C58EA 
  98      9240E6F8 
  98      6F710BB6 
  98      B80A323E 
  99 0286 C6666260 		.ascii	"\306fb`\374K6w\001\266\273\013o\371HMou\027d|J\213u"
  99      FC4B3677 
  99      01B6BB0B 
  99      6FF9484D 
  99      6F751764 
 100 029e 1D73F865 		.ascii	"\035s\370e|\216\245\3340\0078\377U4RW\260\210\231>B"
 100      7C8EA5DC 
 100      300738FF 
 100      55345257 
 100      B088993E 
 101 02b3 1123B0A5 		.ascii	"\021#\260\245\260\242\027S;\305\251\273\205\354M\200"
 101      B0A21753 
 101      3BC5A9BB 
 101      85EC4D80 
 102 02c3 BC2F4C01 		.ascii	"\274/L\001;\366\370|R]k\2509t,(\265\307\244h\247\024"
 102      3BF6F87C 
 102      525D6BA8 
 102      39742C28 
 102      B5C7A468 
 103 02d9 8B2A92D2 		.ascii	"\213*\222\322\032V\303J{T\365)`\213\205zUWD\355\351"
 103      1A56C34A 
 103      7B54F529 
 103      608B857A 
 103      555744ED 
 104 02ee 249BAF36 		.ascii	"$\233\2576\265\252q\252\221\026\266\250\266\026\007"
 104      B5AA71AA 
 104      9116B6A8 
 104      B61607
 105 02fd EDDD4D6D 		.ascii	"\355\335Mm]jE\206dG{\2643&\035\011\370\353\374=\244"
 105      5D6A4586 
 105      64477BB4 
 105      33261D09 
 105      F8EBFC3D 
 106 0312 CD841BBB 		.ascii	"\315\204\033\273k\302\276V\360\245\373\222\264T\347"
 106      6BC2BE56 
 106      F0A5FB92 
 106      B454E7
 107 0321 0F3604A5 		.ascii	"\0176\004\245PDi\353jQ%\356\253\204\217vE\024r\367\370"
 107      504469EB 
 107      6A5125EE 
 107      AB848F76 
 107      451472F7 
 108 0336 83016F73 		.ascii	"\203\001osSL\355\210\206*\275{\253@\210\202\203B\267"
ARM GAS  /tmp/ccG8xVis.s 			page 8


 108      534CED88 
 108      862ABD7B 
 108      AB408882 
 108      8342B7
 109 0349 474FC35F 		.ascii	"GO\303_?3\226s"
 109      3F339673 
 110              		.text
 111              		.section	.gnu.lto_chCoreAllocI.690fd21e93f0e043,"",%progbits
 112 0000 789C9D54 		.ascii	"x\234\235T?h\023Q\030\377}\357\275\313%\005\243 \024"
 112      3F681351 
 112      18FF7DEF 
 112      BDCB2505 
 112      A32014
 113 0013 3A594B06 		.ascii	":YK\006\027\023A\255\216\202\213\272\210\365\317 \204"
 113      171341AD 
 113      8E828BBA 
 113      88F5CF20 
 113      84
 114 0024 82E7494E 		.ascii	"\202\347INh*I\207\320%\327\324\241\350\022\272)B,\245"
 114      682A4987 
 114      D025D7D4 
 114      A1E812BA 
 114      29422CA5 
 115 0038 7A51441C 		.ascii	"zQD\034]T\260v\010\322\321\311\241C\007\205\342\224"
 115      5D54B076 
 115      08D2D1C9 
 115      A1430785 
 115      E294
 116 004a 414138BF 		.ascii	"AA8\277\367.\027SSl\332;\216\337\367\347\375\276?\357"
 116      F72E1753 
 116      536CDA3B 
 116      8EDFF7E7 
 116      FDBE3FEF 
 117 005e FB1201E2 		.ascii	"\373\022\001\342\267\3779\311\337\023\005\334d$\013"
 117      B7FF39C9 
 117      DF1305DC 
 117      64240B
 118 006d 24EAEBC0 		.ascii	"$\352\353\300\334\250\020\352\233\015\377\230\014\326"
 118      DCA810EA 
 118      9B0DFF98 
 118      0CD6
 119 007b 00FF8424 		.ascii	"\000\377\204$\025\331\025\221\0268TUHE\325\353&fj\014"
 119      15D91591 
 119      16385455 
 119      4845D5EB 
 119      26666A0C 
 120 008f 4BBEBF58 		.ascii	"K\276\277X\377X\273P\333\010\303#\256\266N\022Z\017"
 120      FF58BB50 
 120      DB08C323 
 120      AEB64E12 
 120      5A0F
 121 00a1 570E8CC0 		.ascii	"W\016\214\300%\302(4\012\250\355\331\373xR C\232\272"
 121      25C22834 
 121      0AA8EDD9 
 121      FB785220 
 121      439ABA
 122 00b4 19BCA3DD 		.ascii	"\031\274\243\335\251\365\036\252\0228n\250\330s\312"
ARM GAS  /tmp/ccG8xVis.s 			page 9


 122      A9F51EAA 
 122      12386EA8 
 122      D873CA
 123 00c3 F14179FF 		.ascii	"\361Ay\377\344;\267/\036\366Qdt\237\225\201H\213=\235"
 123      E43BB72F 
 123      1EF65164 
 123      749F9581 
 123      488B3D9D 
 124 00d7 5D3215FE 		.ascii	"]2\025\376\016\212\375L\217\372\250\363~L\265\004\256"
 124      0E8AFD4C 
 124      8FFAA8F3 
 124      7E4CB504 
 124      AE
 125 00e8 45D4C69D 		.ascii	"E\324\306\235\377&m7\236\211\317\315\304{\361a#\254"
 125      FF266D37 
 125      9E89CFCD 
 125      C47BF161 
 125      23AC
 126 00fa 66B0DC09 		.ascii	"f\260\334\011\343RB\340\206\211\320n\374\330i\222|\002"
 126      E35242E0 
 126      8689D06E 
 126      FCD86992 
 126      7C02
 127 010c 8709797A 		.ascii	"\207\011yzEc\020\224\247\327\224\201d\375)\353\012\221"
 127      45631094 
 127      A7D79481 
 127      64FD29EB 
 127      0A91
 128 011e 6E312EB1 		.ascii	"n1.\261\236`\\f\264\031W\030\223\214\317\031S\214M\306"
 128      9E605C66 
 128      B4195718 
 128      938CCF19 
 128      538C4DC6 
 129 0132 21C6178C 		.ascii	"!\306\027\214i\306\227\214\374X\270\357\373\207(\212"
 129      69C6978C 
 129      FC58B8EF 
 129      FB87288A 
 130 0142 3FD9E9F5 		.ascii	"?\331\351\365\212F\275\300\023\\\206\026d\013\363\325"
 130      8A46BDC0 
 130      135C8616 
 130      640BF3D5 
 131 0152 AFC1DD3C 		.ascii	"\257\301\335<\275\341\355wH:$FLm6\237d\347[\271 c\247"
 131      BDE1ED77 
 131      483A2446 
 131      4C6D369F 
 131      64E75BB9 
 132 0169 627FE4FC 		.ascii	"b\177\344\374\031\206\341A>\260\006\201\310\033\325"
 132      1986E141 
 132      3EB00681 
 132      C81BD5
 133 0178 EBE8E9B6 		.ascii	"\353\350\351\266P\273\250\3277\246Y\217\361\210\364"
 133      50BBA8D7 
 133      37A6598F 
 133      F188F4
 134 0187 3466F1CB 		.ascii	"4f\361\313O\272d\223G\244\013\321\261l\363c\202IV\373"
 134      4FBA6493 
 134      47A40BD1 
ARM GAS  /tmp/ccG8xVis.s 			page 10


 134      B16CF363 
 134      824956FB 
 135 019b 2E119312 		.ascii	".\021\223\022\314\213BuM\366\016q\260[\234\244\243]"
 135      CC8B4275 
 135      4DF60E71 
 135      B05B9CA4 
 135      A35D
 136 01ad DCC8C25F 		.ascii	"\334\310\302_[\312\204O\232\243[\262\022\233\207\330"
 136      5BCA844F 
 136      9AA35BB2 
 136      129B87D8 
 137 01bd 037CC2EA 		.ascii	"\003|\302\352&\025zl=\003\237 \011\360?\202\344\276"
 137      26157A6C 
 137      3D039F20 
 137      09F03F82 
 137      E4BE
 138 01cf DBC170DC 		.ascii	"\333\301p\334\271\276\3418\315\003\311\313\026\263\323"
 138      B9BEE138 
 138      CD03C9CB 
 138      16B3D3
 139 01de 6CED5E49 		.ascii	"l\355^I'\375 M03N\250\2421\255\203\272\367i\332\374"
 139      27FD204D 
 139      30334EA8 
 139      A231AD83 
 139      BAF769DA 
 140 01f3 02B3547C 		.ascii	"\002\263T|G\020[\3010'\222\253\315\264\2360\031\006"
 140      47105BC1 
 140      302792AB 
 140      CDB49E30 
 140      1906
 141 0205 8F1747B3 		.ascii	"\217\027G\263\331\334\371\202w\313\273|57]\316\225f"
 141      D9DCF982 
 141      77CBBB7C 
 141      35375DCE 
 141      9566
 142 0217 72E59293 		.ascii	"r\345\222\223s\012S\356\2243]r\263\016\222n\3616k\331"
 142      730A53EE 
 142      94335D72 
 142      B30E926E 
 142      F1366BD9 
 143 022b 53B1703A 		.ascii	"S\261p:Ut+3Z\032\357Jg\272\322Y\272\247\312\336\254"
 143      55742B33 
 143      5A1AEF4A 
 143      67BAD259 
 143      BAA7CADE 
 144 0240 FB078F05 		.ascii	"\373\007\217\005\014*"
 144      0C2A
 145              		.text
 146              		.section	.gnu.lto_chCoreGetStatusX.690fd21e93f0e043,"",%progbits
 147 0000 789C9D92 		.ascii	"x\234\235\222\273J\003Q\020\206\3779{1v\266\251\214"
 147      BB4A0351 
 147      1086FF39 
 147      7B3176B6 
 147      A98C
 148 0012 C1D65D2F 		.ascii	"\301\326]/ \226\202\215\251D\3052\010\256\007\222\""
 148      2096828D 
 148      A944C532 
ARM GAS  /tmp/ccG8xVis.s 			page 11


 148      08AE0792 
 148      22
 149 0023 092429C4 		.ascii	"\011$)\304&k\264\260\014\202\205V\006\021u\361\035\024"
 149      266BB4B0 
 149      0C828556 
 149      061175F1 
 149      1D14
 150 0035 EC52A4F2 		.ascii	"\354R\244\362\001Rh\241\344\005l\2143'$\306\013D\235"
 150      015268A1 
 150      E4056C8C 
 150      332724C6 
 150      0B449D
 151 0048 65F96687 		.ascii	"e\371f\207\363\315\354\331\263\012\304\327\367\210\363"
 151      F3CDECD9 
 151      B30AC4D7 
 151      F788F3
 152 0057 7DAC8014 		.ascii	"}\254\200\024\223,\220\2525\201\275\204\"\222\204\225"
 152      932C90AA 
 152      3581BD84 
 152      22928495 
 153 0067 8AA2CA86 		.ascii	"\212\242\312\2061\335$\352axZ\273\257.W[\235\316\270"
 153      31DD24EA 
 153      61785ABB 
 153      AF2E575B 
 153      9DCEB8
 154 007a 96EA26A1 		.ascii	"\226\352&\241q\363Dqh\"$ T\260?\3170\336\321\200g)L"
 154      71F34471 
 154      68222420 
 154      54B03FCF 
 154      30DED180 
 155 0091 92A85723 		.ascii	"\222\250W#\303\305\332\200h+L\031\021\177\0368\377["
 155      C3C5DA80 
 155      682B4C19 
 155      117F1E38 
 155      FF5B
 156 00a3 EFCBBCC5 		.ascii	"\357\313\274\305\177y\030.=Do\324\216\334[u\327\352"
 156      7F79182E 
 156      3D446FD4 
 156      8EDC5B75 
 156      D7EA
 157 00b5 54801821 		.ascii	"T\200\030!MuJB1\317\231\026\363\202i3/\231\016\363\232"
 157      4D754A42 
 157      31CF9916 
 157      F3826933 
 157      2F990EF3 
 158 00ca E932CF98 		.ascii	"\3512\317\230\034\016\016\302p\314\214\222X\025\312"
 158      1C0E0EC2 
 158      70CC8C92 
 158      5815CA
 159 00d9 B1ADF134 		.ascii	"\261\255\3614I\254\006\252\251\307\350\205\322\024\221"
 159      49AC06AA 
 159      A9C7E885 
 159      D21491
 160 00e8 8380E814 		.ascii	"\203\200\350\024'$\237c\027\257aL\223C\331\356o!o\350"
 160      27249F63 
 160      17AF614C 
 160      9343D9EE 
ARM GAS  /tmp/ccG8xVis.s 			page 12


 160      6F216FE8 
 161 00fc 98F39660 		.ascii	"\230\363\226`\355Y\306w%\305\236\251\245\372%\353\207"
 161      ED59C677 
 161      25C59EA9 
 161      A5FA25EB 
 161      87
 162 010d 3E34AC8F 		.ascii	">4\254\217\315\236\324\366\017?j\216io\233\245mk\241"
 162      CD9ED4F6 
 162      0F3F6A8E 
 162      696F9BA5 
 162      6D6BA1
 163 0120 577603E9 		.ascii	"Wv\003\351\322\004\365\027\272\275-\222\331\031\357"
 163      D204F517 
 163      BABD2D92 
 163      D919EF
 164 012f 0F139EE7 		.ascii	"\017\023\236\347/e\262[\331\225u\277P\362\213e\277T"
 164      2F65B25B 
 164      D99575BF 
 164      50F28B65 
 164      BF54
 165 0141 0CFC2093 		.ascii	"\014\374 \223\323\271\240P\324^\200\230\316o\363\223"
 165      D3B9A050 
 165      D45E8098 
 165      CE6FF393 
 166 0151 37DD4B66 		.ascii	"7\335KfF\363z\247,\331l?\233{\007\353\364\227\377"
 166      46F37AA7 
 166      2CD96C3F 
 166      9B7B07EB 
 166      F497FF
 167              		.text
 168              		.section	.gnu.lto_.cgraph.690fd21e93f0e043,"",%progbits
 169 0000 789C6362 		.ascii	"x\234cb`d`f``\260b\200\002\2465\214\365\014\014\023"
 169      60646066 
 169      6060B062 
 169      8002A635 
 169      8CF50C0C 
 170 0015 CE31D4D7 		.ascii	"\3161\324\327\317\353`dZ\313X\317\210\340\255c\254g"
 170      CFEB6064 
 170      5ACB58CF 
 170      88E0AD63 
 170      AC67
 171 0027 42F0D633 		.ascii	"B\360\3263\3263\303y\014\000.\\\023\021"
 171      D633C379 
 171      0C002E5C 
 171      1311
 172              		.text
 173              		.section	.gnu.lto_.vars.690fd21e93f0e043,"",%progbits
 174 0000 789C6362 		.ascii	"x\234cb`d`f``\220d\200\000\226\215\214\014\014\365\014"
 174      60646066 
 174      60609064 
 174      8000968D 
 174      8C0C0CF5 
 175 0015 AB181959 		.ascii	"\253\030\031Y\352\231712\001\331\253\031\231\201l\000"
 175      EA993731 
 175      3201D9AB 
 175      1999816C 
 175      00
ARM GAS  /tmp/ccG8xVis.s 			page 13


 176 0026 444204F0 		.ascii	"DB\004\360"
 177              		.text
 178              		.section	.gnu.lto_.refs.690fd21e93f0e043,"",%progbits
 179 0000 789C25C5 		.ascii	"x\234%\305\201\015\000 \020\203@Zt\021\367\037\322\350"
 179      810D0020 
 179      1083405A 
 179      7411F71F 
 179      D2E8
 180 0012 13922B41 		.ascii	"\023\222+A\3400-6fWM\376v\254O\270\014\002\000k"
 180      E0302D36 
 180      66574DFE 
 180      76AC4FB8 
 180      0C02006B 
 181              		.text
 182              		.section	.gnu.lto_.statics.690fd21e93f0e043,"",%progbits
 183 0000 789C6362 		.ascii	"x\234cb`d`b\300\016@\342\214\020&\000\000\375\000\011"
 183      60646062 
 183      C00E40E2 
 183      8C102600 
 183      00FD0009 
 184              		.text
 185              		.section	.gnu.lto_.decls.690fd21e93f0e043,"",%progbits
 186 0000 789C9D54 		.ascii	"x\234\235TKh\023Q\024\275o\232f\032\023k](u\325*\352"
 186      4B681351 
 186      14BD6F9A 
 186      661A136B 
 186      5D2875D5 
 187 0016 426806B4 		.ascii	"Bh\006\264\250\013\025%\213VD\005?\340&\014\311t4\003"
 187      A80B1525 
 187      8B564405 
 187      3FE0260C 
 187      C9743403 
 188 002a E9449229 		.ascii	"\351D\222)\210\270xT\360\267\012\202\370A$~\252U\221"
 188      88B87854 
 188      F0B70A82 
 188      F841247E 
 188      AA5591
 189 003d 4A6BB1E2 		.ascii	"Jk\261\342\257V-\266\370\307\215\270\311\326\235\013"
 189      AF562DB6 
 189      F8C78DB8 
 189      C9D69D0B 
 190 004d 15179578 		.ascii	"\025\027\225x\337\314\233\257\235\370\271\344&/\357"
 190      DFCC9BAF 
 190      9DF8B9E4 
 190      262FEF
 191 005c DD7BCE79 		.ascii	"\335{\316ywN\"\000\001\026\207\360\243\206qZ\004H\343"
 191      774E2200 
 191      011687F0 
 191      A386715A 
 191      0448E3
 192 006f BA11F7D6 		.ascii	"\272\021\367\326\203\033\021\314\012\346\000\346\020"
 192      831B11CC 
 192      0AE600E6 
 192      10
 193 007c E608DFBB 		.ascii	"\346\010\337\273\213\371\020s\034s\002\374\301\352\021"
 193      8BF91073 
 193      1C7302FC 
ARM GAS  /tmp/ccG8xVis.s 			page 14


 193      C1EA11
 194 008b CEC46AC6 		.ascii	"\316\304j\306L`>\302\034\303|\206\371\234\327\021^\033"
 194      4C603EC2 
 194      1CC37C86 
 194      F99CD711 
 194      5E1B
 195 009d E158131C 		.ascii	"\341X\023\034w<\200\307\270\343\230\033<x\203\034\263"
 195      773C80C7 
 195      B8E3981B 
 195      3C78831C 
 195      B3
 196 00ae 91F74F62 		.ascii	"\221\367ObNa\276\016\340\263^\301\203\357\015v\237\246"
 196      4E61BE0E 
 196      E0B35EC1 
 196      83EF0D76 
 196      9FA6
 197 00c0 59744638 		.ascii	"YtF8\327`\000k\250\016\026\233K\224\367\004\261\274"
 197      D760006B 
 197      A80E169B 
 197      4B94F704 
 197      B1BC
 198 00d2 18231C63 		.ascii	"\030#\034c\202\343x\243\015.\320J\265|\230v\377\250"
 198      82E378A3 
 198      0D2ED04A 
 198      B57C9876 
 198      FFA8
 199 00e4 D5C48570 		.ascii	"\325\304\205p\212bT\216PJ\2144Y\277\000\026\341\023"
 199      8A62548E 
 199      504A8C34 
 199      59BF0016 
 199      E113
 200 00f6 6A8E01B4 		.ascii	"j\216\001\264\233\253D\314Bg\317\355\"Y\310W\273\032"
 200      9BAB44CC 
 200      4267CFED 
 200      2259C857 
 200      BB1A
 201 0108 2C2C0104 		.ascii	",,\001\004\002+\340:5\203\270\0020\346\302\360\347\221"
 201      022BE03A 
 201      3583B802 
 201      30E6C2F0 
 201      E791
 202 011a 4E9B7539 		.ascii	"N\233u9\014\260\222\361\376V\223\204\201TH\233OX\232"
 202      0CB092F1 
 202      FE569384 
 202      8154489B 
 202      4F589A
 203 012d 5C22C25F 		.ascii	"\\\"\302_+\335\020\257\243\364*W\332`N\001bp\214\322"
 203      2BDD10AF 
 203      A3F42A57 
 203      DA604E01 
 203      62708CD2 
 204 0141 7ED6DAFD 		.ascii	"~\326\332\375\002\3076{\3372\270Bi\231]#M\006I\014;"
 204      02C7367B 
 204      DF32B842 
 204      69995D23 
 204      4D06490C 
 205 0156 57133CBE 		.ascii	"W\023<\276LV\300\367O\337f\004[dc\314/\032\277[U\026"
ARM GAS  /tmp/ccG8xVis.s 			page 15


 205      4C56C0F7 
 205      4FDF6604 
 205      5B6463CC 
 205      2F1ABF5B 
 206 016c B0756CAF 		.ascii	"\260ul\257\230\351\347\341H\334\221!\356qb\003\017\237"
 206      98E9E7E1 
 206      48DC9121 
 206      EE716203 
 206      0F9F
 207 017e BDBFCEDA 		.ascii	"\275\277\316\332]\012\227)=\311\356j\263\2372\253\006"
 207      5D0A9729 
 207      3DC9EE6A 
 207      B39F32AB 
 207      06
 208 018f 70488362 		.ascii	"pH\203b\310M\255Rk\266\375\345\247\375\335\346X\200"
 208      C84DAD52 
 208      6BB6FDE5 
 208      A7FDDDE6 
 208      5880
 209 01a1 B71D089B 		.ascii	"\267\035\010\233\217Yq\363\367YW\277\360Y\037m\261F"
 209      8F5971F3 
 209      F75957BF 
 209      F0591F6D 
 209      B146
 210 01b3 28C03947 		.ascii	"(\3009G\352\327\266\331\205\246\311-DJ\223!d\034\373"
 210      EAD7B6D9 
 210      85A6C92D 
 210      444A9321 
 210      641CFB
 211 01c6 77A1437F 		.ascii	"w\241C\177\024z\273\216)\216R*\004|\301\210\302\215"
 211      147ABB8E 
 211      298E522A 
 211      047CC188 
 211      C28D
 212 01d8 7167160B 		.ascii	"qg\026\013_s\356\370\341F\326\347W.\325\324\216%#\314"
 212      5F73EEF8 
 212      E146D6E7 
 212      572ED5D4 
 212      8E2523CC 
 213 01ec B075B58E 		.ascii	"\260u\265\216\372\265.\201\213\264Z.\323J+\255\326j"
 213      FAB52E81 
 213      8BB45A2E 
 213      D34A2BAD 
 213      D66A
 214 01fe 6DF381D9 		.ascii	"m\363\201\331\213\266\237i\346\206\254\016\320\3263"
 214      8BB69F69 
 214      E686AC0E 
 214      D0D633
 215 020d 1E433639 		.ascii	"\036C69\230$`\310{\246%\306\034\245\227\316\217\376"
 215      982460C8 
 215      7BA625C6 
 215      1CA597CE 
 215      8FFE
 216 021f 741C4902 		.ascii	"t\034I\002\216$~G\022\307\221lU#\336\32212\337\333+"
 216      8E247E47 
 216      12C7916C 
 216      5523DED2 
ARM GAS  /tmp/ccG8xVis.s 			page 16


 216      3132DFDB 
 217 0234 C055819D 		.ascii	"\300U\201\235\017\037\037\375 \270U\017\334k\261+\321"
 217      0F1F1FFD 
 217      20B8550F 
 217      DC6BB12B 
 217      D1
 218 0245 F76CFCE6 		.ascii	"\367l\374\346\225\342p\302\375eY2\303\207\377\210\304"
 218      95E270C2 
 218      FD655932 
 218      C387FF88 
 218      C4
 219 0256 5DA23B82 		.ascii	"]\242;\202\343\254\273s\302{\036\373\251=\323\264\304"
 219      E3ACBB73 
 219      C27B1EFB 
 219      A93DD3B4 
 219      C4
 220 0267 0BF0C054 		.ascii	"\013\360\300T\374\362\334\015\342\012~\022*\330R!\300"
 220      FCF2DC0D 
 220      E20A7E12 
 220      2AD85221 
 220      C0
 221 0278 94433F53 		.ascii	"\224C?S\217\376\251\013\024\270*#\017\357{\346^5\320"
 221      8FFEA90B 
 221      14B82A23 
 221      0FEF7BE6 
 221      5E35D0
 222 028b C7E8C3FB 		.ascii	"\307\350\303\373\236\273}\377\374\2475iz\344\255\340"
 222      9EBB7DFF 
 222      FCA73569 
 222      7AE4ADE0 
 223 029b 7AE4DDA4 		.ascii	"z\344\335\244dOD\014xD\364{Dt<\"\272\377Z\334\257\225"
 223      644F440C 
 223      7844F47B 
 223      44743C22 
 223      BAFF5ADC 
 224 02b1 8D3EC3B6 		.ascii	"\215>\303\266\326\365+\265\264L\233Z>\232\217\206\300"
 224      D6F52BB5 
 224      B44C9B5A 
 224      3E9A8F86 
 224      C0
 225 02c2 EF6155D8 		.ascii	"\357aU\330\234\323\256E\247m\217\332\034-\016\207\300"
 225      9CD3AE45 
 225      A76D8FDA 
 225      1C2D0E87 
 225      C0
 226 02d3 3BA7B867 		.ascii	";\247\270gMM\324\031l\242\236\365^y\330\0221\357\312"
 226      4D4DD419 
 226      6CA29EF5 
 226      5E79D812 
 226      31EFCA
 227 02e6 56E7FE38 		.ascii	"V\347\3768-\0216\326Z\247R\344X\257\377\203\377M(\177"
 227      2D1136D6 
 227      5AA752E4 
 227      58AFFF83 
 227      FF4D287F 
 228 02fa D41EC91C 		.ascii	"\324\036\311\034Y)\024UY\3235#\332\265mw{\012\026'\223"
 228      59291455 
ARM GAS  /tmp/ccG8xVis.s 			page 17


 228      59D33523 
 228      DAB56D77 
 228      7B0A1627 
 229 030f 522AA765 		.ascii	"R*\247e\265\355;\245BI*\032R\251\250HJ\256W\355e\245"
 229      B5ED3BA5 
 229      42492A1A 
 229      52A9A848 
 229      4AAE57ED 
 230 0325 4905A225 		.ascii	"I\005\242%\355\240*\033[\244\\\241W\225\362\231\276"
 230      EDA02A1B 
 230      5BA45CA1 
 230      5795F299 
 230      BE
 231 0336 A2AA2BAA 		.ascii	"\242\252+\252\264i\307\326\216\256TJ\312j\272\204\030"
 231      B469C7D6 
 231      8EAE544A 
 231      CA6ABA84 
 231      18
 232 0347 792D2BED 		.ascii	"y-+\355S\024)S\354\355\320\013\272\332\241f\262\232"
 232      53142953 
 232      ECEDD00B 
 232      BADAA166 
 232      B29A
 233 0359 D4995C93 		.ascii	"\324\231\\\223\354\2244]\311\367\365\250R\311\350\351"
 233      EC94345D 
 233      C9F7F5A8 
 233      52C9E8E9 
 234 0369 51F72673 		.ascii	"Q\367&s\020Wr)\004\337\224\317\027\224\010\203Ox66\267"
 234      10577229 
 234      04DF94CF 
 234      17940883 
 234      4F783636 
 235 037e 585FBA54 		.ascii	"X_\272Tc\247\2211\372J{\304>M7\326\312\206\372\377\022"
 235      63A79131 
 235      FA4A7BC4 
 235      3E4D37D6 
 235      CA86FAFF 
 236 0393 F0D879F9 		.ascii	"\360\330y\371\317=\342\220\005\305\315\225\345\234\232"
 236      CF3DE290 
 236      05C5CD95 
 236      E59C9A
 237 03a2 D92F6733 		.ascii	"\331/g3%U\226E]=`\3400\022|W\325{d9\212\357\270\327"
 237      25559645 
 237      5D3D60E0 
 237      30127C57 
 237      D57B6439 
 238 03ba C474AD5A 		.ascii	"\304t\255Z)\033\021%\227)\376\002\360\207\351\002"
 238      291B1125 
 238      9729FE02 
 238      F087E902 
 239              		.text
 240              		.section	.gnu.lto_.symtab.690fd21e93f0e043,"",%progbits
 241 0000 5F636F72 		.ascii	"_core_init\000\000\000\000\000\000\000\000\000\000\000"
 241      655F696E 
 241      69740000 
 241      00000000 
 241      00000000 
ARM GAS  /tmp/ccG8xVis.s 			page 18


 242 0015 00A00000 		.ascii	"\000\240\000\000\000chCoreAlloc\000\000\000\000\000"
 242      00636843 
 242      6F726541 
 242      6C6C6F63 
 242      00000000 
 243 002a 00000000 		.ascii	"\000\000\000\000\000\000\000\245\000\000\000chCoreA"
 243      000000A5 
 243      00000063 
 243      68436F72 
 243      6541
 244 003c 6C6C6F63 		.ascii	"llocI\000\000\000\000\000\000\000\000\000\000\000\000"
 244      49000000 
 244      00000000 
 244      00000000 
 244      00
 245 004d AF000000 		.ascii	"\257\000\000\000chCoreGetStatusX\000\000\000\000\000"
 245      6368436F 
 245      72654765 
 245      74537461 
 245      74757358 
 246 0066 00000000 		.ascii	"\000\000\000\000\000\000\000\263\000\000\000__heap_"
 246      000000B3 
 246      0000005F 
 246      5F686561 
 246      705F
 247 0078 62617365 		.ascii	"base__\000\000\002\000\000\000\000\000\000\000\000\000"
 247      5F5F0000 
 247      02000000 
 247      00000000 
 247      0000
 248 008a B7000000 		.ascii	"\267\000\000\000__heap_end__\000\000\002\000\000\000"
 248      5F5F6865 
 248      61705F65 
 248      6E645F5F 
 248      00000200 
 249 00a0 00000000 		.ascii	"\000\000\000\000\000\000\300\000\000\000"
 249      0000C000 
 249      0000
 250              		.text
 251              		.section	.gnu.lto_.opts,"",%progbits
 252 0000 272D6444 		.ascii	"'-dD''-mcpu=cortex-m3''-mno-thumb-interwork''-mthum"
 252      27272D6D 
 252      6370753D 
 252      636F7274 
 252      65782D6D 
 253 0033 6227272D 		.ascii	"b''-ggdb''-g3''-O2''-fomit-frame-pointer''-falign-f"
 253      67676462 
 253      27272D67 
 253      3327272D 
 253      4F322727 
 254 0066 756E6374 		.ascii	"unctions=16''-ffunction-sections''-fdata-sections''"
 254      696F6E73 
 254      3D313627 
 254      272D6666 
 254      756E6374 
 255 0099 2D666E6F 		.ascii	"-fno-common''-flto'\000"
 255      2D636F6D 
ARM GAS  /tmp/ccG8xVis.s 			page 19


 255      6D6F6E27 
 255      272D666C 
 255      746F2700 
 256              		.text
 257              		.cfi_sections	.debug_frame
 258              		.section	.text._core_init,"ax",%progbits
 259              		.align	2
 260              		.p2align 4,,15
 261              		.global	_core_init
 262              		.thumb
 263              		.thumb_func
 264              		.type	_core_init, %function
 265              	_core_init:
 266              	.LFB170:
 267              		.file 1 "../ChibiOS/os/rt/src/chmemcore.c"
 268              		.loc 1 78 0
 269              		.cfi_startproc
 270              		@ args = 0, pretend = 0, frame = 0
 271              		@ frame_needed = 0, uses_anonymous_args = 0
 272              		@ link register save eliminated.
 273              		.loc 1 84 0
 274 0000 40F20001 		movw	r1, #:lower16:__heap_end__
 275              		.loc 1 83 0
 276 0004 0848     		ldr	r0, .L2
 277 0006 40F20002 		movw	r2, #:lower16:.LANCHOR0
 278              		.loc 1 84 0
 279 000a 40F20003 		movw	r3, #:lower16:.LANCHOR1
 280 000e C0F20001 		movt	r1, #:upper16:__heap_end__
 281              		.loc 1 83 0
 282 0012 C0F20002 		movt	r2, #:upper16:.LANCHOR0
 283 0016 20F00700 		bic	r0, r0, #7
 284              		.loc 1 84 0
 285 001a C0F20003 		movt	r3, #:upper16:.LANCHOR1
 286 001e 21F00701 		bic	r1, r1, #7
 287              		.loc 1 83 0
 288 0022 1060     		str	r0, [r2, #0]
 289              		.loc 1 84 0
 290 0024 1960     		str	r1, [r3, #0]
 291 0026 7047     		bx	lr
 292              	.L3:
 293              		.align	2
 294              	.L2:
 295 0028 07000000 		.word	__heap_base__+7
 296              		.cfi_endproc
 297              	.LFE170:
 298              		.size	_core_init, .-_core_init
 299 002c AFF30080 		.section	.text.chCoreAlloc,"ax",%progbits
 300              		.align	2
 301              		.p2align 4,,15
 302              		.global	chCoreAlloc
 303              		.thumb
 304              		.thumb_func
 305              		.type	chCoreAlloc, %function
 306              	chCoreAlloc:
 307              	.LFB171:
 308              		.loc 1 105 0
 309              		.cfi_startproc
ARM GAS  /tmp/ccG8xVis.s 			page 20


 310              		@ args = 0, pretend = 0, frame = 0
 311              		@ frame_needed = 0, uses_anonymous_args = 0
 312              		@ link register save eliminated.
 313              	.LVL0:
 314              	.LBB26:
 315              	.LBB27:
 316              	.LBB28:
 317              	.LBB29:
 318              		.file 2 "../ChibiOS/os/ext/CMSIS/include/core_cmFunc.h"
 319              		.loc 2 546 0
 320 0000 2023     		movs	r3, #32
 321              	@ 546 "../ChibiOS/os/ext/CMSIS/include/core_cmFunc.h" 1
 322 0002 83F31188 		MSR basepri, r3
 323              	@ 0 "" 2
 324              	.LVL1:
 325              		.thumb
 326              	.LBE29:
 327              	.LBE28:
 328              	.LBE27:
 329              	.LBE26:
 330              	.LBB30:
 331              	.LBB31:
 332              		.loc 1 132 0
 333 0006 094A     		ldr	r2, .L7
 334 0008 0949     		ldr	r1, .L7+4
 335 000a 1368     		ldr	r3, [r2, #0]
 336 000c 0968     		ldr	r1, [r1, #0]
 337              		.loc 1 131 0
 338 000e 0730     		adds	r0, r0, #7
 339              	.LVL2:
 340 0010 20F00700 		bic	r0, r0, #7
 341              	.LVL3:
 342              		.loc 1 132 0
 343 0014 C91A     		subs	r1, r1, r3
 344 0016 8842     		cmp	r0, r1
 345              	.LVL4:
 346              		.loc 1 135 0
 347 0018 9ABF     		itte	ls
 348 001a 1818     		addls	r0, r3, r0
 349              	.LVL5:
 350 001c 1060     		strls	r0, [r2, #0]
 351              		.loc 1 133 0
 352 001e 0023     		movhi	r3, #0
 353              	.LVL6:
 354              	.LBE31:
 355              	.LBE30:
 356              	.LBB32:
 357              	.LBB33:
 358              	.LBB34:
 359              	.LBB35:
 360              	.LBB36:
 361              		.loc 2 546 0
 362 0020 0022     		movs	r2, #0
 363              	@ 546 "../ChibiOS/os/ext/CMSIS/include/core_cmFunc.h" 1
 364 0022 82F31188 		MSR basepri, r2
 365              	@ 0 "" 2
 366              		.thumb
ARM GAS  /tmp/ccG8xVis.s 			page 21


 367              	.LBE36:
 368              	.LBE35:
 369              	.LBE34:
 370              	.LBE33:
 371              	.LBE32:
 372              		.loc 1 112 0
 373 0026 1846     		mov	r0, r3
 374 0028 7047     		bx	lr
 375              	.L8:
 376 002a 00BF     		.align	2
 377              	.L7:
 378 002c 00000000 		.word	.LANCHOR0
 379 0030 00000000 		.word	.LANCHOR1
 380              		.cfi_endproc
 381              	.LFE171:
 382              		.size	chCoreAlloc, .-chCoreAlloc
 383 0034 AFF30080 		.section	.text.chCoreAllocI,"ax",%progbits
 383      AFF30080 
 383      AFF30080 
 384              		.align	2
 385              		.p2align 4,,15
 386              		.global	chCoreAllocI
 387              		.thumb
 388              		.thumb_func
 389              		.type	chCoreAllocI, %function
 390              	chCoreAllocI:
 391              	.LFB172:
 392              		.loc 1 126 0
 393              		.cfi_startproc
 394              		@ args = 0, pretend = 0, frame = 0
 395              		@ frame_needed = 0, uses_anonymous_args = 0
 396              		@ link register save eliminated.
 397              	.LVL7:
 398              		.loc 1 132 0
 399 0000 074A     		ldr	r2, .L12
 400 0002 0849     		ldr	r1, .L12+4
 401 0004 1368     		ldr	r3, [r2, #0]
 402 0006 0968     		ldr	r1, [r1, #0]
 403              		.loc 1 131 0
 404 0008 0730     		adds	r0, r0, #7
 405              	.LVL8:
 406 000a 20F00700 		bic	r0, r0, #7
 407              	.LVL9:
 408              		.loc 1 132 0
 409 000e C91A     		subs	r1, r1, r3
 410 0010 8842     		cmp	r0, r1
 411              	.LVL10:
 412              		.loc 1 135 0
 413 0012 9ABF     		itte	ls
 414 0014 1818     		addls	r0, r3, r0
 415              	.LVL11:
 416 0016 1060     		strls	r0, [r2, #0]
 417              		.loc 1 133 0
 418 0018 0023     		movhi	r3, #0
 419              	.LVL12:
 420              		.loc 1 137 0
 421 001a 1846     		mov	r0, r3
ARM GAS  /tmp/ccG8xVis.s 			page 22


 422 001c 7047     		bx	lr
 423              	.L13:
 424 001e 00BF     		.align	2
 425              	.L12:
 426 0020 00000000 		.word	.LANCHOR0
 427 0024 00000000 		.word	.LANCHOR1
 428              		.cfi_endproc
 429              	.LFE172:
 430              		.size	chCoreAllocI, .-chCoreAllocI
 431 0028 AFF30080 		.section	.text.chCoreGetStatusX,"ax",%progbits
 431      AFF30080 
 432              		.align	2
 433              		.p2align 4,,15
 434              		.global	chCoreGetStatusX
 435              		.thumb
 436              		.thumb_func
 437              		.type	chCoreGetStatusX, %function
 438              	chCoreGetStatusX:
 439              	.LFB173:
 440              		.loc 1 146 0
 441              		.cfi_startproc
 442              		@ args = 0, pretend = 0, frame = 0
 443              		@ frame_needed = 0, uses_anonymous_args = 0
 444              		@ link register save eliminated.
 445              		.loc 1 148 0
 446 0000 40F20002 		movw	r2, #:lower16:.LANCHOR1
 447 0004 40F20003 		movw	r3, #:lower16:.LANCHOR0
 448 0008 C0F20002 		movt	r2, #:upper16:.LANCHOR1
 449 000c C0F20003 		movt	r3, #:upper16:.LANCHOR0
 450 0010 1068     		ldr	r0, [r2, #0]
 451 0012 1968     		ldr	r1, [r3, #0]
 452              		.loc 1 149 0
 453 0014 401A     		subs	r0, r0, r1
 454 0016 7047     		bx	lr
 455              		.cfi_endproc
 456              	.LFE173:
 457              		.size	chCoreGetStatusX, .-chCoreGetStatusX
 458 0018 AFF30080 		.section	.bss.endmem,"aw",%nobits
 458      AFF30080 
 459              		.align	2
 460              		.set	.LANCHOR1,. + 0
 461              		.type	endmem, %object
 462              		.size	endmem, 4
 463              	endmem:
 464 0000 00000000 		.space	4
 465              		.section	.bss.nextmem,"aw",%nobits
 466              		.align	2
 467              		.set	.LANCHOR0,. + 0
 468              		.type	nextmem, %object
 469              		.size	nextmem, 4
 470              	nextmem:
 471 0000 00000000 		.space	4
 472              		.text
 473              	.Letext0:
 474              		.file 3 "/home/laurence/ARM-GCC/bin/../lib/gcc/arm-none-eabi/4.7.4/include/stddef.h"
 475              		.file 4 "/home/laurence/ARM-GCC/bin/../lib/gcc/arm-none-eabi/4.7.4/../../../../arm-none-eabi/inclu
 476              		.file 5 "../ChibiOS/os/rt/ports/ARMCMx/compilers/GCC/chtypes.h"
ARM GAS  /tmp/ccG8xVis.s 			page 23


 477              		.file 6 "../ChibiOS/os/rt/include/chsystypes.h"
 478              		.file 7 "../ChibiOS/os/rt/include/chschd.h"
 479              		.file 8 "../ChibiOS/os/rt/ports/ARMCMx/chcore.h"
 480              		.file 9 "../ChibiOS/os/rt/ports/ARMCMx/chcore_v7m.h"
 481              		.file 10 "../ChibiOS/os/rt/include/chtm.h"
 482              		.file 11 "../ChibiOS/os/rt/include/chmtx.h"
 483              		.file 12 "../ChibiOS/os/rt/include/chsys.h"
 484              		.file 13 "../ChibiOS/os/ext/CMSIS/include/core_cm3.h"