ARM GAS  /tmp/ccMwRLwd.s 			page 1


   1              		.syntax unified
   2              		.cpu cortex-m3
   3              		.fpu softvfp
   4              		.eabi_attribute 20, 1
   5              		.eabi_attribute 21, 1
   6              		.eabi_attribute 23, 3
   7              		.eabi_attribute 24, 1
   8              		.eabi_attribute 25, 1
   9              		.eabi_attribute 26, 1
  10              		.eabi_attribute 30, 2
  11              		.eabi_attribute 34, 1
  12              		.eabi_attribute 18, 4
  13              		.thumb
  14              		.file	"chmsg.c"
  15              		.text
  16              	.Ltext0:
  17              		.section	.gnu.lto_.jmpfuncs.112490da35c7531c,"",%progbits
  18 0000 789C6362 		.ascii	"x\234cb`d`g\300\016T\24143\0033#\223$C*#\003\003\017"
  18      60646067 
  18      C00E54A1 
  18      34330333 
  18      23932443 
  19 0019 50391042 		.ascii	"P9\020By|\014L\314L\014,\014\014\214%\014\000%\200\001"
  19      797C0C4C 
  19      CC4C0C2C 
  19      0C0C8C25 
  19      0C002580 
  20 002e D6       		.ascii	"\326"
  21              		.text
  22              		.section	.gnu.lto_.inline.112490da35c7531c,"",%progbits
  23 0000 789C6362 		.ascii	"x\234cb`d\340e\300\016\"\24143\003\203\230\034##P%\003"
  23      6064E065 
  23      C00E22A1 
  23      34330383 
  23      981C2323 
  24 0017 B3E48AC3 		.ascii	"\263\344\212\303\214\014\2347\314\230\030\230.\360\263"
  24      8C0C9C37 
  24      CC981898 
  24      2EF0B3
  25 0026 30307133 		.ascii	"00q3\000\205\301\344\004?F\006aA G\346\301-F\006\266"
  25      0085C1E4 
  25      043F4606 
  25      61412047 
  25      E6C12D46 
  26 003c 05F24C30 		.ascii	"\005\362L0Y\006\016\001 \311\262@\036\"\312\314\303"
  26      59060E01 
  26      20C9B240 
  26      1E22CACC 
  26      C3
  27 004d C0C034C1 		.ascii	"\300\3004\301o\202\037\003\000\375U\013l"
  27      6F821F03 
  27      00FD550B 
  27      6C
  28              		.text
  29              		.section	.gnu.lto_.pureconst.112490da35c7531c,"",%progbits
  30 0000 789C6362 		.ascii	"x\234cb`d`f```g\200\000f\006+F+&+\000\003#\000\302"
  30      60646066 
ARM GAS  /tmp/ccMwRLwd.s 			page 2


  30      60606067 
  30      80006606 
  30      2B462B26 
  31              		.text
  32              		.section	.gnu.lto_chMsgSend.112490da35c7531c,"",%progbits
  33 0000 789C8D54 		.ascii	"x\234\215T]hSI\024>g\346\336$\335\255m\255\253Xpc(*"
  33      5D685349 
  33      143E67E6 
  33      DE24DDAD 
  33      6DADAB58 
  34 0018 62DD447C 		.ascii	"b\335D|\321'Q\012\256\272T\261E\220\302m\261\327\273"
  34      D127510A 
  34      AEBA54B1 
  34      4590C26D 
  34      B1D7BB
  35 002b 9B80B131 		.ascii	"\233\200\2611IK\365\245\327\270\017\"\010AvA\333\212"
  35      494BF5A5 
  35      D7B80F22 
  35      08417641 
  35      DB8A
  36 003d DAFA832F 		.ascii	"\332\372\203/\376T\224\274h\375\251A\322\352\223\260"
  36      FE5494BC 
  36      68FDA941 
  36      D2EA93B0 
  37 004d C515110A 		.ascii	"\305\025\021\012\342\223\370 \210 t\317\314\334\033"
  37      E293F820 
  37      882074CF 
  37      CCDC1B
  38 005c 734DD2ED 		.ascii	"sM\322\355\204\336\231\316\234\357|g\276s\3460@\372"
  38      84DE99CE 
  38      9CEF7C67 
  38      BE73E630 
  38      40FA
  39 006e 958F8DF4 		.ascii	"\225\217\215\364\227\363\003\274\240\031u@\226\245\325"
  39      97F303BC 
  39      A0197540 
  39      96A5D5
  40 007d F110633C 		.ascii	"\361\020c<_\017\366Z\255\260\005\354\015\0345\265\255"
  40      5F0FF65A 
  40      ADB005EC 
  40      0D1C35B5 
  40      AD
  41 008e 2166A525 		.ascii	"!f\245%\0142\256\341\340>\351Rk\206K\266}&\373$\263"
  41      0C32AEE1 
  41      E03EE952 
  41      6B864BB6 
  41      7D26FB24 
  42 00a3 23F3766E 		.ascii	"#\363vnn\245%v\273\021\012\017f\2275\201\205\010!\020"
  42      6EA52576 
  42      BB110A0F 
  42      66973581 
  42      85082110 
  43 00b7 3303CD4B 		.ascii	"3\003\315K\256p\037\037g\226;8.q\223#\277+X\300\201"
  43      AE701F1F 
  43      67963B38 
  43      2E719323 
  43      BF2B58C0 
ARM GAS  /tmp/ccMwRLwd.s 			page 3


  44 00cc 612558F6 		.ascii	"a%X\366\204\355\322i\014B(\221\303\375\013 ,\011T\223"
  44      84EDD269 
  44      0C422891 
  44      C3FD0B20 
  44      2C095493 
  45 00e0 84E34313 		.ascii	"\204\343C\023\371\226y\201\205\233c\277|\032\361M\260"
  45      F9967981 
  45      859B63BF 
  45      7C1AF14D 
  45      B0
  46 00f1 876FE706 		.ascii	"\207o\347\006W\301\230\303/\251\177\225\324_\207>`\271"
  46      57C198C3 
  46      2FA97F95 
  46      D45F873E 
  46      60B9
  47 0103 0B94B659 		.ascii	"\013\224\266Ye\2533\330%mgj*\220\3219\210\200\232\020"
  47      65AB33D8 
  47      256D676A 
  47      2A90D139 
  47      88809A10 
  48 0117 0C1CC566 		.ascii	"\014\034\305f`h\3405r\300i\276B\263F\373\027i\337G\363"
  48      6068E035 
  48      72C069BE 
  48      42B346FB 
  48      1769DF47 
  49 012c 259AFDA0 		.ascii	"%\232\375\240\316\033i\276L\377\323\320\341O\333n`\012"
  49      CE1B69BE 
  49      4CFFD3D0 
  49      E14FDB6E 
  49      600A
  50 013e 1F935C72 		.ascii	"\037\223\\r\354\025\263\310\\;\261\211\005/@\246\223"
  50      EC15B3C8 
  50      5C3BB189 
  50      052F40A6 
  50      93
  51 014f D432F03A 		.ascii	"\3242\360:\321\232\210-\260\216\310\271\234||\010\316"
  51      D19A882D 
  51      B08EC8B9 
  51      9C7C7C08 
  51      CE
  52 0160 A1857E76 		.ascii	"\241\205~v\014\276\330\001\013\003\030C\024.D\270\001"
  52      0CBED801 
  52      0B031843 
  52      142E44B8 
  52      01
  53 0171 997F802E 		.ascii	"\231\177\200.\361\311\351rULP\036\330\014WNU\020\246"
  53      F1C9E972 
  53      554C501E 
  53      D80C574E 
  53      5510A6
  54 0184 38A35D54 		.ascii	"8\243]T\2419\021\2022\231'\2455\014v\313\370\307O\177"
  54      A1391182 
  54      329927A5 
  54      350C76CB 
  54      F8C74F7F 
  55 0198 FE77FDBC 		.ascii	"\376w\375\274\271\021\2335t\0100\005\031\034\375\353"
  55      B9119B35 
ARM GAS  /tmp/ccMwRLwd.s 			page 4


  55      74083005 
  55      191CFDEB 
  56 01a8 EFD9CD1E 		.ascii	"\357\331\315\0362\222\357\026Eb\340\015\017\245x\017"
  56      3292EF16 
  56      4562E00D 
  56      0FA5780F 
  57 01b8 37A9E248 		.ascii	"7\251\342H\020\371\001\010\302C<o\237\335j\341\017\036"
  57      10F90108 
  57      C2433C6F 
  57      9FDD6AE1 
  57      0F1E
  58 01ca B7C5E327 		.ascii	"\267\305\343'\316\361\217\252& \363[\341\376X\275\272"
  58      CEF18FAA 
  58      2620F35B 
  58      E1FE58BD 
  58      BA
  59 01db 8B544E77 		.ascii	"\213TNw\224\253et\357&\231N\200\250\224\210)VS,\010"
  59      94AB6574 
  59      EF26994E 
  59      80A89488 
  59      2956532C 
  60 01f0 F9857F1A 		.ascii	"\371\205\177\032\276\207\256\374\33218J\257FeaQ\211"
  60      BE87AEFC 
  60      DA31384A 
  60      AF466561 
  60      5189
  61 0202 13EE3A39 		.ascii	"\023\356:9\351\227^\270\3622\243\273\021\354\314\351"
  61      E9975EB8 
  61      F232A3BB 
  61      11ECCCE9 
  62 0212 25FC752A 		.ascii	"%\374u*\201\365\325\303p\264\353\022R\344\270\014H\223"
  62      81F5D5C3 
  62      70B4EB12 
  62      52E4B80C 
  62      4893
  63 0224 09FA3A5C 		.ascii	"\011\372:\\\247\034\225\277.\003\257R\324\262\306\203"
  63      A71C95BF 
  63      2E03AF52 
  63      D4B2C683 
  64 0234 F366C24D 		.ascii	"\363f\302Mvu_\244\344\024\342\302|iJ\342\361S\023\371"
  64      76755FA4 
  64      E414E2C2 
  64      7C694AE2 
  64      F15313F9 
  65 0248 A027A154 		.ascii	"\240'\241T\337\217eB\037\311\257\267\222\234B\256 \200"
  65      DF8F6542 
  65      1FC9AFB7 
  65      929C42AE 
  65      2080
  66 025a 2A5A1FC0 		.ascii	"*Z\037\300\376\022\367\235\323\027f\227\0328)\323\320"
  66      FE12F79D 
  66      D3176697 
  66      1A3829D3 
  66      D0
  67 026b E8012F72 		.ascii	"\350\001/r\365\007X\353\200\375\305~@\312\277\347\012"
  67      F50758EB 
  67      80FDC57E 
ARM GAS  /tmp/ccMwRLwd.s 			page 5


  67      40CABFE7 
  67      0A
  68 027c F77F8C01 		.ascii	"\367\177\214\001\227\261Q]\350\345\205\2615\025\220"
  68      97B1515D 
  68      E8E585B1 
  68      351590
  69 028b 95E9446F 		.ascii	"\225\351DoV\272JJ\275\012ec\331%gx\011\260\263\360l"
  69      56BA4A4A 
  69      BD0A6563 
  69      D9256778 
  69      09B0B3F0 
  70 02a0 B6D62D36 		.ascii	"\266\326-6\237D7T\2522U\0325\356-\237\302\344;\214\026"
  70      9F443754 
  70      AA32551A 
  70      35EE2D9F 
  70      C2E43B8C 
  71 02b5 71C28A43 		.ascii	"q\302\212C]\211\330\355\242 \363\365|\032\264\351\221"
  71      5D89D8ED 
  71      A220F3F5 
  71      7C1AB4E9 
  71      91
  72 02c6 517473E1 		.ascii	"Qts\341\264\215\305\330\215Nk \016K\334_\2014\325\203"
  72      B48DC5D8 
  72      8D4E6B20 
  72      0E4BDC5F 
  72      8134D583 
  73 02da 08F572C5 		.ascii	"\010\365r\305w\230%\204aX|\327\015PK\337\237\324%^\217"
  73      77982584 
  73      61587CD7 
  73      0D504BDF 
  73      9FD4255E 
  74 02ef 04DD58FC 		.ascii	"\004\335X\374\316s\253^\356\317\270\267\336\351I\237"
  74      CE73AB5E 
  74      EECFB8B7 
  74      DEE9499F 
  75 02ff 55754205 		.ascii	"UuB\005:\340\266(\321?M\241sy\213\252\322\251\344(o"
  75      3AE0B628 
  75      D13F4DA1 
  75      73798BAA 
  75      D2A9E428 
  76 0314 5706DE56 		.ascii	"W\006\336Vod\374\364\2357\013\351WbT\355W\257da\377"
  76      6F64FCF4 
  76      9D370BE9 
  76      576254ED 
  76      57AF6461 
  77 0329 53AD5F19 		.ascii	"S\255_\031x\227\026\337\3748\015\312\300\034\006\345"
  77      789716DF 
  77      FC380DCA 
  77      C01C06E5 
  78 0339 C60BC0C2 		.ascii	"\306\013\300\302s^\024K9\330+rA\272\013\333\237\303"
  78      735E144B 
  78      39D82B72 
  78      41BA0BDB 
  78      9FC3
  79 034b E1486B34 		.ascii	"\341Hk4\326\023\333\323\021\351ME\222\351H*iF\314h<"
  79      D613DBD3 
  79      11E94D45 
ARM GAS  /tmp/ccMwRLwd.s 			page 6


  79      92E9482A 
  79      6946CC68 
  80 0360 F547D804 		.ascii	"\365G\330\004n\246\023\315e\026\261\303\346\241\276"
  80      6EA613CD 
  80      6516B1C3 
  80      E6A1BE
  81 036f 831659A5 		.ascii	"\203\026Y\245\314\350\301p\024X:\301\011\240\367\037"
  81      CCE8C170 
  81      14583AC1 
  81      09A0F71F 
  82 037f 38D467B5 		.ascii	"8\324g\265\224\331'z\223\351Td[{[k\333\000\201\314\336"
  82      94D9277A 
  82      93E95464 
  82      5B7B5B6B 
  82      DB0081CC 
  83 0394 A4D5DDBF 		.ascii	"\244\325\335\277)N\300\260\327\326\032HGZ\333:vv|\243"
  83      294EC0B0 
  83      D7D61A48 
  83      475ADB3A 
  83      76767CA3 
  84 03a8 10B6667C 		.ascii	"\020\266f|{\337a\223\314\033\332:\332C=\007RV\"\031"
  84      7BDF6193 
  84      CC1BDA3A 
  84      DA433D07 
  84      52562219 
  85 03bc 5B1F5ABD 		.ascii	"[\037Z\275\001X\022\374q+\336\233<\012<}$\361\037\254"
  85      015812FC 
  85      712BDE9B 
  85      3C0A3C7D 
  85      24F11FAC 
  86 03d0 8FA6C7   		.ascii	"\217\246\307"
  87              		.text
  88              		.section	.gnu.lto_chMsgWait.112490da35c7531c,"",%progbits
  89 0000 789C9D54 		.ascii	"x\234\235T]HTQ\020\236\271?\336\325\322\025\205\376"
  89      5D485451 
  89      109EB93F 
  89      DED5D215 
  89      85FE
  90 0012 A0DA8440 		.ascii	"\240\332\204@2\334\240\207|,\204(B\"%\210`\223\272]"
  90      32DCA087 
  90      7C2C8428 
  90      42222588 
  90      6093BA5D 
  91 0026 DA85566D 		.ascii	"\332\205Vmw\025\353!o[\017>\210X\020\230QVFYT\020\375"
  91      7715EB21 
  91      6F5B0F3E 
  91      88581098 
  91      51564659 
  92 003d 50BD1465 		.ascii	"P\275\024eR\233\371\324\203\375\"h&\022\321C\221\212"
  92      529BF9D4 
  92      83FD2268 
  92      2612D143 
  92      918A
  93 004f 6173CEB9 		.ascii	"as\316\271\367\352u\335m\361,{\347p\316\31473\337\314"
  93      F7EA75DD 
  93      6DF12C7B 
  93      E770CECC 
ARM GAS  /tmp/ccMwRLwd.s 			page 7


  93      3733DFCC 
  94 0063 1909907E 		.ascii	"\031\011\220~\311k#\375\313=\000\243$Q\005\224\332\372"
  94      C96B23FD 
  94      CB3D00A3 
  94      24510594 
  94      DAFA
  95 0075 014EF824 		.ascii	"\001N\370$I\376\255\201Y\254\234\357\00507\310\250\210"
  95      49FEAD81 
  95      59AC9CEF 
  95      053037C8 
  95      A888
  96 0087 7305916D 		.ascii	"s\005\221m\010\252I\222\025l\332\3151=Ep\3314\317\264"
  96      08AA4992 
  96      156CDACD 
  96      313D4570 
  96      D934CFB4 
  97 009b BD886F8B 		.ascii	"\275\210o\213\017NO\2576\330i5Bbrh\351r0\020\301\007"
  97      0F4E4FAF 
  97      36D86935 
  97      42627268 
  97      E9723010 
  98 00b1 4C4AA0B8 		.ascii	"LJ\240\270\275\013\273\237\317\343\313,;\231\3335\012"
  98      BD0BBB9F 
  98      CFE3CB2C 
  98      3B99DB35 
  98      0A
  99 00c2 238F6584 		.ascii	"#\217e\204\363\031\315r\246p\243\341\316\021\314\300"
  99      F319CD72 
  99      A670A3E1 
  99      CE11CCC0 
 100 00d2 59DB49D3 		.ascii	"Y\333I\323\011R\002\0372\323\251\213\015\377\267\354"
 100      0952021F 
 100      32D3A98B 
 100      0DFFB7EC 
 101 00e2 480AF3D7 		.ascii	"H\012\363\327\305\232\205\004z\347\311\203wj&\221\316"
 101      C59A8504 
 101      7AE7C983 
 101      776A2691 
 101      CE
 102 00f3 A5735C5B 		.ascii	"\245s\\[\210\325\303\226\323c\257\322\373K\374\030Z"
 102      88D5C396 
 102      D363AFD2 
 102      FB4BFC18 
 102      5A
 103 0104 D9D39DF5 		.ascii	"\331\323\235\365Tz68\335\004\260\002!\200\227\260\210"
 103      547A3638 
 103      DD04B002 
 103      218097B0 
 103      88
 104 0115 D4845449 		.ascii	"\324\204TI^!\351%y\235d>\311k$\013Hv\221,$\331M\222"
 104      5E21E925 
 104      799D643E 
 104      C96B240B 
 104      4876912C 
 105 012d 960AA74C 		.ascii	"\226\012\247L3\037\305y\265E\310.&Y\337T\222o\266\221"
 105      331FC579 
 105      B545C82E 
ARM GAS  /tmp/ccMwRLwd.s 			page 8


 105      2659DF54 
 105      926FB691 
 106 0141 7B4142A1 		.ascii	"{AB\241jY\020\302\015:IS-U\202 \257\326d\353\237\217"
 106      6A5910C2 
 106      0D3A4953 
 106      2D558220 
 106      AFD664EB 
 107 0157 EBD3E6C3 		.ascii	"\353\323\346\303\016U\272\004x\003q\034;{v\250\314\345"
 107      0E55BA04 
 107      7803711C 
 107      3B7B76A8 
 107      CCE5
 108 0169 8CC2BB45 		.ascii	"\214\302\273E\341\005\360\246\313%{!\257\251\266\024"
 108      E105F0A6 
 108      CB257B21 
 108      AFA9B614 
 109 0179 23FF00AC 		.ascii	"#\377\000\254\202\017x\301l\337l`\226\013\326\271\376"
 109      820F78C1 
 109      6CDF6C60 
 109      960BD6B9 
 109      FE
 110 018a 6C5D6B82 		.ascii	"l]k\202G\210\357e=/r\321\021K`\035\225A\346\302#w\300"
 110      4788EF65 
 110      3D2F72D1 
 110      114B601D 
 110      9541E6C2 
 111 01a1 3934305B 		.ascii	"940[:\006\023\246\307\300\034\014\2117\311ps\270\177"
 111      3A0613A6 
 111      C7C01C0C 
 111      8937C970 
 111      73B87F
 112 01b4 807DECD3 		.ascii	"\200}\354\323\254\361\035m\307E|D\227EPr\023\007\360"
 112      ACF11D6D 
 112      C7457C44 
 112      97455072 
 112      1307F0
 113 01c7 2A3130BB 		.ascii	"*10\273\035S\260\2423@\026\"5\340\224<\227\220\307\234"
 113      1D53B0A2 
 113      33401622 
 113      35E0943C 
 113      9790C79C 
 114 01db 10770D74 		.ascii	"\020w\015t\364\316\316`\221\225\301b\211\240\230\013"
 114      F4CECE60 
 114      9195C162 
 114      89A0980B 
 115 01eb 7082263A 		.ascii	"p\202&:\036\251|GOc\334acB\036\315\015\340\023NF\376"
 115      1EA97C47 
 115      4F63DC61 
 115      63421ECD 
 115      0DE0134E 
 116 0201 31384A4F 		.ascii	"18JO\0003\200j\367\322n4\227\243\274\204\236\021LLv"
 116      0033806A 
 116      F7D26E34 
 116      97A3BC84 
 116      9E114C4C 
 117 0216 C936A95E 		.ascii	"\3116\251^\202\232\011\261\2229\374\255\311}\240|\352"
 117      829A09B1 
ARM GAS  /tmp/ccMwRLwd.s 			page 9


 117      9239FCAD 
 117      C97DA07C 
 117      EA
 118 0227 BC897606 		.ascii	"\274\211v\006\026\305\271X\215\210NO\344A\036}\275\266"
 118      16C5B958 
 118      8D884E4F 
 118      E4411E7D 
 118      BDB6
 119 0239 A5227A91 		.ascii	"\245\"z\221Q2\334\371\003m\007\312\002\253\006v\321"
 119      5132DCF9 
 119      036D07CA 
 119      02AB0676 
 119      D1
 120 024a 6026FD76 		.ascii	"`&\375v\315FUS\245\257\330\3517g\333\371\263\325\256"
 120      CD465553 
 120      A5AFD8E9 
 120      3767DBF9 
 120      B3D5AE
 121 025d FDAFF28A 		.ascii	"\375\257\362\212\004_\0213\253\274**\377\260\345\357"
 121      045F1133 
 121      ABBC2A2A 
 121      FFB0E5EF 
 122 026d B701ABF4 		.ascii	"\267\001\253\364\230\246\225 -\234\3233\211y{\246\300"
 122      98A69520 
 122      2D9CD333 
 122      89797BA6 
 122      C0
 123 027e E24FA4B8 		.ascii	"\342O\244\270\310NQ\201b\213+\252\330\200\323\327\003"
 123      C84E5181 
 123      628B2BAA 
 123      D880D3D7 
 123      03
 124 028f 54D83E64 		.ascii	"T\330>d\023\346-\241\221\265\210\264\247\273k\211\270"
 124      13E62DA1 
 124      91B588B4 
 124      A7BB6B89 
 124      B8
 125 02a0 D0B1D005 		.ascii	"\320\261\320\005\3108+p\267\214\023\037YnoV\205]\006"
 125      C8382B70 
 125      B78C131F 
 125      596E6F56 
 125      855D06
 126 02b3 5134F278 		.ascii	"Q4\362x\013\271\335\216\321\354y\354\230\263B\2673\212"
 126      0BB9DD8E 
 126      D1EC79EC 
 126      98B342B7 
 126      338A
 127 02c5 7C40B349 		.ascii	"|@\263I\245\004\022Svo\212\241g\305Q\366\275\363\270"
 127      A5041253 
 127      766F8AA1 
 127      67C551F6 
 127      BDF3B8
 128 02d8 38E68079 		.ascii	"8\346\200y\363E\277\207\003f\301\254\006\315\025\254"
 128      F345BF87 
 128      0366C1AC 
 128      06CD15AC 
 129 02e8 CC198E29 		.ascii	"\314\031\216)f$_\311\2032\200\267E\031'[\357}\311dR"
ARM GAS  /tmp/ccMwRLwd.s 			page 10


 129      66245FC9 
 129      833280B7 
 129      4519275B 
 129      EF7DC964 
 130 02fd B2957252 		.ascii	"\262\225rR~\342E~\237jR\006\360.mfp\254\321\030\300"
 130      7EE2457E 
 130      9F6A5206 
 130      F02E6D66 
 130      70ACD118 
 131 0312 FBB88A1F 		.ascii	"\373\270\212\037\364\003&\246\235\327[ \000v\261wB\217"
 131      F40326A6 
 131      9DD75B20 
 131      0076B177 
 131      428F
 132 0324 8FE9AE2C 		.ascii	"\217\351\256,-\365\227\007C\007B;\253\374\265Q\177$"
 132      2DF59707 
 132      4307423B 
 132      ABFCB551 
 132      7F24
 133 0336 E68F4674 		.ascii	"\346\217Ft\277\036\014G\017\225\352 \305\352\326$)\204"
 133      BF1E0C47 
 133      0F95EA20 
 133      C5EAD624 
 133      2984
 134 0348 6AF4C3F5 		.ascii	"j\364\303\365\007\015K)\010Ei4\242z\360 \251\250\015"
 134      070D4B29 
 134      08456934 
 134      A27AF020 
 134      A9A80D
 135 035b FB0FD71B 		.ascii	"\373\017\327\033%I\212u\265\221X\324\277\245\262\242"
 135      25498A75 
 135      B59158D4 
 135      BFA5B2A2 
 136 036b BCA291B4 		.ascii	"\274\242\221\264\365\332\210Q\335\260)L\026\245n]\243"
 136      F5DA8851 
 136      DDB0294C 
 136      16A56E5D 
 136      A3
 137 037c 31E62FAF 		.ascii	"1\346/\257\250\332^5\203\315t\365\360\326\372\032\235"
 137      A8DA5E35 
 137      83CD74F5 
 137      F0D6FA1A 
 137      9D
 138 038d D4F32BAA 		.ascii	"\324\363+\252*}\007\366G\215\272Hh\275o\355\006\220"
 138      2A7D07F6 
 138      478DBA48 
 138      68BD6FED 
 138      0690
 139 039f 22A0858D 		.ascii	"\"\240\205\215pm\344(\310\261#u\377\000,\330\326\333"
 139      706DE428 
 139      C8B12375 
 139      FF002CD8 
 139      D6DB
 140              		.text
 141              		.section	.gnu.lto_chMsgRelease.112490da35c7531c,"",%progbits
 142 0000 789C8D52 		.ascii	"x\234\215R\317k\023A\024\376\336l\323VO\275\366`\273"
 142      CF6B1341 
ARM GAS  /tmp/ccMwRLwd.s 			page 11


 142      14FEDE6C 
 142      D3564FBD 
 142      F660BB
 143 0013 56C583B2 		.ascii	"V\305\203\262\343M\217J@\354!H\023<.\241]\007\263\320"
 143      E34D8F4A 
 143      40EC2148 
 143      133C2EA1 
 143      5D07B3D0 
 144 0027 6DC26E52 		.ascii	"m\302nR\252\227\254\325\203\027!\010\212J\005k-j\021"
 144      AA97ACD5 
 144      83172108 
 144      8A4A056B 
 144      2D6A11
 145 003a FC018278 		.ascii	"\374\001\202x\321\213\012Uz\022<Z\360\307? \004=\305"
 145      D18B0A55 
 145      7A123C5A 
 145      F0C73F20 
 145      043DC5
 146 004d 37B3B1C9 		.ascii	"7\263\261\311\222\246\372\226\231\367\230\371\336\367"
 146      92A6FA96 
 146      99F798F9 
 146      DEF7
 147 005b BE376F05 		.ascii	"\2767o\005\210\277^\033\3455i\001o\331\223\005\022\215"
 147      88BF5E1B 
 147      E5356901 
 147      6FD99305 
 147      128D
 148 006d 0DE0A22D 		.ascii	"\015\340\242-\210t\300)uA\3653I\346\372\322\252\363"
 148      8874C029 
 148      7541F533 
 148      49E6FAD2 
 148      AAF3
 149 007f 696DF0B5 		.ascii	"im\360\265x\263\331\252\357\307J\034_k\\\212O)\202\200"
 149      78B3D9AA 
 149      EFC74A1C 
 149      5F6B5C8A 
 149      4F298280 
 150 0093 4D2812BE 		.ascii	"M(\022\276=j\322(\024\021lh/0\240I\014\266\221`-\201"
 150      3D6AD228 
 150      14116C68 
 150      2F30A049 
 150      0CB69160 
 151 00a9 7D06FB6B 		.ascii	"}\006\373kW/\222\003\213\027\260\233\310\245\273\234"
 151      572F9203 
 151      8B17B09B 
 151      C8A5BB9C 
 152 00b9 28D8DF63 		.ascii	"(\330\337c\317\226\301\3458\036!\337d\033\233\322^\353"
 152      CF96C1E5 
 152      381E21DF 
 152      641B9BD2 
 152      5EEB
 153 00cb CC73BE0E 		.ascii	"\314s\276\016\254w\234\220\340\332p\270t\237O:6\201"
 153      AC779C90 
 153      E0DA70B8 
 153      749F4F3A 
 153      3681
 154 00dd E5B6EEC5 		.ascii	"\345\266\356\305\315Vk\\\321\200\300AC\331|\365\345"
ARM GAS  /tmp/ccMwRLwd.s 			page 12


 154      CD566B5C 
 154      D180C041 
 154      43D97CF5 
 154      E5
 155 00ee BBD84653 		.ascii	"\273\330FS\367c1\234/\201\017X\244\037W\257\177=\226"
 155      F763319C 
 155      2F810F58 
 155      A41F57AF 
 155      7F3D96
 156 0101 2AC65A1F 		.ascii	"*\306Z\037\320\004\227\\M\225\324/\177\205\033c\215"
 156      D004975C 
 156      4D95D42F 
 156      7F851B63 
 156      8D
 157 0112 6603C670 		.ascii	"f\003\306p\213\356\3047\217+\203\353\320n]/\265\257"
 157      8BEEC437 
 157      8F2B83EB 
 157      D06E5D2F 
 157      B5AF
 158 0124 070D81EE 		.ascii	"\007\015\201\356j\033\345\\h\231E\262t\236\214\265\243"
 158      6A1BE55C 
 158      689945B2 
 158      749E8CB5 
 158      A3
 159 0135 728FAFBA 		.ascii	"r\217\257\272i\032]4\226K+\011\015\376\301\301\342>"
 159      691A5D34 
 159      964B2B09 
 159      0DFEC1C1 
 159      E23E
 160 0147 22F3FCC6 		.ascii	"\"\363\374\306\347\367\343\251\276\205K\317L\337O\315"
 160      E7F7E3A9 
 160      BE854BCF 
 160      4CDF4FCD 
 161 0157 9E7E70E0 		.ascii	"\236~p\340\002~\307\303\212\206\250HD\177\3450\233\242"
 161      027EC7C3 
 161      8A86A848 
 161      447FE530 
 161      9BA2
 162 0169 E144547A 		.ascii	"\341DTzb}\006\327gz.=L\3047o\377\374\257\361a\247\361"
 162      627D06D7 
 162      677A2E3D 
 162      4CC4376F 
 162      FFFCAFF1 
 163 0180 BD340DBC 		.ascii	"\2754\015\274\3507>\227\036s\320\341i\317\313\245'4"
 163      E8373E97 
 163      1E73D0E1 
 163      69CFCBA5 
 163      2734
 164 0192 660E3640 		.ascii	"f\0166@\353k*-}J7\315?\247\206\356q\034\231-\3713\376"
 164      EB6B2A2D 
 164      7D4A37CD 
 164      3FA786EE 
 164      711C992D 
 165 01a9 E9822C47 		.ascii	"\351\202,G2\254\312(\364\244W\012\242s\216\007Q\255"
 165      32ACCA28 
 165      F4A4570A 
 165      A2738E07 
ARM GAS  /tmp/ccMwRLwd.s 			page 13


 165      51AD
 166 01bb 581C65E6 		.ascii	"X\034e\346\247gk\352P\017\264R\016\253\221<\221\317"
 166      A7676BEA 
 166      500FB452 
 166      0EAB913C 
 166      91CF
 167 01cd 65730B9C 		.ascii	"es\013\234\343\225CU\234?\0328%8i\254Z\250\312l\256"
 167      E3954355 
 167      9C3F1A38 
 167      253869AC 
 167      5AA8CA6C 
 168 01e2 305990FE 		.ascii	"0Y\220\376\2347[;\253\244\301z\301\311\332\234\307\360"
 168      9C375B3B 
 168      ABA4C17A 
 168      C1C9DA9C 
 168      C7F0
 169 01f4 915C216F 		.ascii	"\221\\!o\317LG\252\022\372\207\355\003G B\014\005*("
 169      CF4C47AA 
 169      12FA87ED 
 169      03472042 
 169      0C052A28 
 170 0208 87E7B1B7 		.ascii	"\207\347\261\267\247\354\026\207QY\302\037g\205\331"
 170      A7EC1687 
 170      5159C21F 
 170      6785D9
 171 0217 D3       		.ascii	"\323"
 172              		.text
 173              		.section	.gnu.lto_.cgraph.112490da35c7531c,"",%progbits
 174 0000 789C6362 		.ascii	"x\234cb`d`f``(b\200\002\246U\214\365\014\014\023\316"
 174      60646066 
 174      60602862 
 174      8002A655 
 174      8CF50C0C 
 175 0016 31D4D7CF 		.ascii	"1\324\327\317\353`dZ\315X\317\210\340\255a\254g\202"
 175      EB60645A 
 175      CD58CF88 
 175      E0AD61AC 
 175      6782
 176 0028 F3183732 		.ascii	"\363\03072\3263\203y\015\015\214\214\233\030\353Y\340"
 176      D6338379 
 176      0D0D8C8C 
 176      9B18EB59 
 176      E0
 177 0039 9C758CF5 		.ascii	"\234u\214\365\2540\0163\003\013C\363\251\343\314\314"
 177      AC300E33 
 177      030B43F3 
 177      A9E3CCCC 
 178 0049 407B1677 		.ascii	"@{\026w\275\221g\006\212<\336\312\307\314\304\312\320"
 178      BD916706 
 178      8A3CDECA 
 178      C7CCC4CA 
 178      D0
 179 005a FCF01F23 		.ascii	"\374\360\037#\003\000<8#<"
 179      03003C38 
 179      233C
 180              		.text
 181              		.section	.gnu.lto_.vars.112490da35c7531c,"",%progbits
ARM GAS  /tmp/ccMwRLwd.s 			page 14


 182 0000 789C6362 		.ascii	"x\234cb`d`f```g\200\000\306\015\214\014\014\365\014"
 182      60646066 
 182      60606067 
 182      8000C60D 
 182      8C0C0CF5 
 183 0015 00062601 		.ascii	"\000\006&\001?"
 183      3F
 184              		.text
 185              		.section	.gnu.lto_.refs.112490da35c7531c,"",%progbits
 186 0000 789C6362 		.ascii	"x\234cb`d`f``\340a\200\000F db\004\221\014\014\000\001"
 186      60646066 
 186      6060E061 
 186      80004620 
 186      64620491 
 187 0018 DD001A   		.ascii	"\335\000\032"
 188              		.text
 189              		.section	.gnu.lto_.statics.112490da35c7531c,"",%progbits
 190 0000 789C6362 		.ascii	"x\234cb`d`b\300\016@\342\214\020&\000\000\375\000\011"
 190      60646062 
 190      C00E40E2 
 190      8C102600 
 190      00FD0009 
 191              		.text
 192              		.section	.gnu.lto_.decls.112490da35c7531c,"",%progbits
 193 0000 789CAD5A 		.ascii	"x\234\255Z\177t\024\305\035\337\331M\356rI\010\010\205"
 193      7F7414C5 
 193      1DDFD94D 
 193      EE724908 
 193      0885
 194 0012 87D63EA2 		.ascii	"\207\326>\242O-\332GN\204\"\266\225\322\322\367\200"
 194      4F2DDA47 
 194      4E8422B6 
 194      95D2D2F7 
 194      80
 195 0023 2AB585F6 		.ascii	"*\265\205\366\251\257\275^/\227%\271z\277\334\333@\370"
 195      A9AFBD5E 
 195      2F9725B9 
 195      7ABFDCDB 
 195      40F8
 196 0035 6F0544F4 		.ascii	"o\005D\364\351\023\241\242\010B\004\024\203Z!\202\341"
 196      E913A1A2 
 196      08420414 
 196      835A2182 
 196      E1
 197 0046 97244808 		.ascii	"\227$H\010\001\"\277$\374\320\360\303g\304_\021A\203"
 197      0122BF24 
 197      FCD0F0C3 
 197      67C45F11 
 197      4183
 198 0058 450849BF 		.ascii	"E\010I\2773\273;;{\331\275\275\273\260\357fvvv\276\237"
 198      33BB3B3B 
 198      7BD9BDBD 
 198      BBB0EF66 
 198      767676BE 
 199 006d F9FE9A99 		.ascii	"\371\376\232\231\357\314\036\317!\016_\007\341\326\003"
 199      EFCC1ECF 
 199      210E5F07 
ARM GAS  /tmp/ccMwRLwd.s 			page 15


 199      E1D603
 200 007c D7B2BB38 		.ascii	"\327\262\2738\316\237\313q9Pw/$\374\266\232S/\027\244"
 200      CE9FCB71 
 200      3950772F 
 200      24FCB69A 
 200      532F17A4 
 201 0090 35907E0D 		.ascii	"5\220~\015\225\277\2054\021\322}\220\036@j\273\277 "
 201      95BF8534 
 201      11D27D90 
 201      1E406ABB 
 201      BF20
 202 00a2 CE74E1B6 		.ascii	"\316t\341\266\203!m\201\372\"\270\027jx\353 \325@z\030"
 202      83216D81 
 202      FA22B817 
 202      6A78EB20 
 202      D5407A18 
 203 00b6 1EA642DA 		.ascii	"\036\246B\332\012\251\036\236\267\301};\244\365P\036"
 203      0AA91E9E 
 203      B7C17D3B 
 203      A4F5501E 
 204 00c6 04F77170 		.ascii	"\004\367qp\277\242\365\337\000\317\367C\332\001i\022"
 204      BFA2F5DF 
 204      00CFF743 
 204      DA016912 
 205 00d6 A402A87B 		.ascii	"\244\002\250{\010\356!H7B\032\010\3512\306\207{\035"
 205      08EE2148 
 205      37421A08 
 205      E932C687 
 205      7B1D
 206 00e8 DC6F80FB 		.ascii	"\334o\200\373f\270\237\203t\025\222\240\361s\237\306"
 206      66B89F83 
 206      741592A0 
 206      F1739FC6 
 207 00f8 370FE5F7 		.ascii	"7\017\345\367Qo\236\261l\0034\036u\236\233\221*\003"
 207      516F9EB1 
 207      6C03341E 
 207      759E9B91 
 207      2A03
 208 010a CB23CBFB 		.ascii	"\313#\313\373 \215g\314\033\346\025\363\347f\370\303"
 208      208D67CC 
 208      1BE615F3 
 208      E766F8C3 
 209 011a BC5DAFF1 		.ascii	"\274]\257\361\245\363\304k}M\264\321\035\326\257'\211"
 209      A5F3C46B 
 209      7D4DB4D1 
 209      1DD6AF27 
 209      89
 210 012b 0FAC3396 		.ascii	"\017\2543\226\207}\220\306kt\274F\243\333\242%\011\317"
 210      877D90C6 
 210      6B74BC46 
 210      A3DBA225 
 210      09CF
 211 013d C3CD5794 		.ascii	"\303\315W\224\331\312\231W\225\241/\002\336\365\234"
 211      D9CA9957 
 211      95A12F02 
 211      DEF59C
 212 014c 0F15017E 		.ascii	"\017\025\001~\036)\025zT\242[\271\325\212\262@Q\024"
ARM GAS  /tmp/ccMwRLwd.s 			page 16


 212      1E29157A 
 212      54A25BB9 
 212      D58AB240 
 212      5114
 213 015e E443D5C8 		.ascii	"\344C\325\310\003\240<\342\356\340j\024ri\210\332\255"
 213      03A03CE2 
 213      EEE06A14 
 213      726988DA 
 213      AD
 214 016f 805BBBE4 		.ascii	"\200[\273\344\235\016!K\364\325\004}2\202\327\253\320"
 214      9D0E214B 
 214      F4D5047D 
 214      3282D7AB 
 214      D0
 215 0180 1DDC6BCF 		.ascii	"\035\334k\317l\274\312\253P>\204<,\343\344Ym\245\002"
 215      6CBCCAAB 
 215      503E843C 
 215      2CE3E459 
 215      6DA502
 216 0193 ABAFF552 		.ascii	"\253\257\365R\217Y\3164Z\017\343\226+\325g\026\314Q"
 216      8F59CE34 
 216      5A0FE396 
 216      2BD56716 
 216      CC51
 217 01a5 265DEAE9 		.ascii	"&]\352\351q\017\341\236\307\262U\317\003\266d\"\006"
 217      710FE19E 
 217      C7B255CF 
 217      03B66422 
 217      06
 218 01b6 7998D4CC 		.ascii	"y\230\324\314\210QL\305\310I\022\243\206\210Q\207t9"
 218      88514CC5 
 218      C84912A3 
 218      86885187 
 218      7439
 219 01c8 D69E30AB 		.ascii	"\326\2360\253$\023\2547\011\326{\310\320I}\323\010]"
 219      2413AC37 
 219      09D67BC8 
 219      D0497DD3 
 219      085D
 220 01da 2A57924E 		.ascii	"*W\222N\\f)\361k\334\333%<\204Q\217~!\375\035~ps\327"
 220      5C6629F1 
 220      6BDCDB25 
 220      3C84518F 
 220      7E21FD1D 
 221 01f2 02C25A0E 		.ascii	"\002\302Z\016\214\367:\032BJ\002\361E\360\217\247\260"
 221      8CF73A1A 
 221      424A02F1 
 221      45F08FA7 
 221      B0
 222 0203 4BA8F20F 		.ascii	"K\250\362\017\344\236\303\330\305\254&\252s(\304\037"
 222      E49EC3D8 
 222      C5AC26AA 
 222      7328C41F 
 223 0213 9254B11E 		.ascii	"\222T\261\036\015\004\220]T\025\227\227\365\264jjM\003"
 223      0D04905D 
 223      54159797 
 223      F5B46A6A 
ARM GAS  /tmp/ccMwRLwd.s 			page 17


 223      4D03
 224 0225 89E72E12 		.ascii	"\211\347.\022\312\015\200\242\322\023lE\305\306\265"
 224      CA0D80A2 
 224      D2136C45 
 224      C5C6B5
 225 0234 9C56DFBD 		.ascii	"\234V\337\275\342\352\276\241\\\357k\340M\\50\217}\304"
 225      E2EABEA1 
 225      5CEF6BE0 
 225      4D5C3530 
 225      8F7DC4
 226 0247 E543EB50 		.ascii	"\345C\353P\001`\256\344u\314\256\267\277B\326j\320\313"
 226      0160AEE4 
 226      75CCAEB7 
 226      BF42D66A 
 226      D0CB
 227 0259 EAA5B7D1 		.ascii	"\352\245\267\321.\013\314\032\212\33126\023\304\342"
 227      2E0BCC1A 
 227      8AD93236 
 227      13C4E2
 228 0268 5E88DA00 		.ascii	"^\210\332\000L\337\333\266\021o[\307S\317\335\223<\230"
 228      4CDFDBB6 
 228      116F5BC7 
 228      53CFDD93 
 228      3C98
 229 027a D3C7AA27 		.ascii	"\323\307\252'X\233x\303s\0175yu7s'y\256\333\354vn:>"
 229      589B78C3 
 229      730F3579 
 229      75377327 
 229      79AEDBEC 
 230 0292 DD9A93F5 		.ascii	"\335\232\223\365\3472'\340\271\035T\225\335+^\330\177"
 230      E73227E0 
 230      B91D5495 
 230      DD2B5ED8 
 230      7F
 231 02a3 4F6A6DE6 		.ascii	"Ojm\346\331\332G!\332\324\234\254\332e/?\3175\223\036"
 231      D9DA4721 
 231      DAD49CAC 
 231      DA652F3F 
 231      CF35931E 
 232 02b7 1B2D9DAC 		.ascii	"\033-\235\254\221q\262\225o\275c\351d\2101\237\363`"
 232      9171B295 
 232      6FBD63E9 
 232      6488319F 
 232      F360
 233 02c9 E169EFB7 		.ascii	"\341i\357\267\220\336/\221\336\367X\366\276\207\351"
 233      90DE2F91 
 233      DEF758F6 
 233      BE87E9
 234 02d8 BD76C389 		.ascii	"\275v\303\211\376\026\235{\354:\367\241{\007\247a\362"
 234      FE169D7B 
 234      EC3AF7A1 
 234      7B07A761 
 234      F2
 235 02e9 0F88FFAE 		.ascii	"\017\210\377\256\023\020\025r\351\336a\272\305\306\025"
 235      13101572 
 235      E9DE61BA 
 235      C5C615
ARM GAS  /tmp/ccMwRLwd.s 			page 18


 236 02f8 982D08CF 		.ascii	"\230-\010\317\272\005\011\357\233\005\235\367\332\015"
 236      BA0509EF 
 236      9B059DF7 
 236      DA0D
 237 0306 2B0EDFDE 		.ascii	"+\016\337\336\327\261\244\362\262\215\2026N\356\333"
 237      D7B1A4F2 
 237      B28D8236 
 237      4EEEDB
 238 0315 58D211EB 		.ascii	"X\322\021\353)b\213\003\242\275?\231\021\337\247\210"
 238      29628B03 
 238      A2BD3F99 
 238      11DFA788 
 239 0325 473242B4 		.ascii	"G2B\264\347q\027Els@\034\220&\217\315\024\261=#D{\036"
 239      E7711745 
 239      6C73401C 
 239      90268FCD 
 239      14B13D23 
 240 033c F751C40E 		.ascii	"\367Q\304\016\007\304\241i\362x\200\"vf\204h\317\343"
 240      07C4A169 
 240      F2788022 
 240      76668468 
 240      CFE3
 241 034e 8714B1CB 		.ascii	"\207\024\261\313\001\261\330\212\307^>\225\27486#:&"
 241      01B1D88A 
 241      C75E3E95 
 241      BC383623 
 241      3A26
 242 0360 78EEA8A0 		.ascii	"x\356\250\240\317\034+\337\332\270\317\233\205\377S"
 242      CF1C2BDF 
 242      DAB8CF9B 
 242      85FF53
 243 036f A88F0463 		.ascii	"\250\217\004c\332[\222\331\264g\245\014uY:CA;79-u\316"
 243      DA5B92D9 
 243      B467A50C 
 243      75593A43 
 243      413B3739 
 244 0386 6EA5627E 		.ascii	"n\245b~A1\273\034\226:'\2672MW4\360lp\012<\311\334\310"
 244      4131BB1C 
 244      963A27B7 
 244      324D5734 
 244      F06C700A 
 245 039e C4A943ED 		.ascii	"\304\251C\355Z\373\320W\350V\310\277\326\342\320\353"
 245      5AFBD057 
 245      E856C8BF 
 245      D6E2D0EB 
 246 03ae 8D322DF6 		.ascii	"\2152-\366\220\035\304y\001\267O\012\2645\203;Q\333"
 246      901DC479 
 246      01B74F0A 
 246      B435833B 
 246      51DB
 247 03c0 BBCA17AC 		.ascii	"\273\312\027\254\253\\4L\341`\334\024c\347\374le\250"
 247      AB5C344C 
 247      E160DC14 
 247      63E7FC6C 
 247      65A8
 248 03d2 4B8FE8BB 		.ascii	"K\217\350\273(b\313\326\263\310Z\005i\214\036\202\231"
 248      2862CBD6 
ARM GAS  /tmp/ccMwRLwd.s 			page 19


 248      B3C85A05 
 248      698C1E82 
 248      99
 249 03e3 71D87F81 		.ascii	"q\330\177\201\26007\207F\035O\322\250C\335\023\230t"
 249      B0303787 
 249      461D4FD2 
 249      A843DD13 
 249      9874
 250 03f5 E818CAF3 		.ascii	"\350\030\312\363\334\3239\206\377_1\374?\035q\206\367"
 250      DCD33986 
 250      FF5F31FC 
 250      3F1D7186 
 250      F7
 251 0406 5D9C1F88 		.ascii	"]\234\037\2108\3771\304\251\351\2438\313\030q\236?\220"
 251      38FF31C4 
 251      A9E9A338 
 251      CB18719E 
 251      3F90
 252 0418 91387732 		.ascii	"\2218w2\342\250Q\314 n\241S\024\203\331\272\202\006"
 252      E2A851CC 
 252      206EA153 
 252      1483D9BA 
 252      8206
 253 042a 71BD6308 		.ascii	"q\275c\010\\\253\307\020\235\333\213,|<\207\351J\337"
 253      5CABC710 
 253      9DDB8B2C 
 253      7C3C87E9 
 253      4ADF
 254 043c 09AD22FC 		.ascii	"\011\255\"\374c\332\216\372\263Y\007\311f\314\265\024"
 254      63DA8EFA 
 254      B35907C9 
 254      66CCB514 
 255 044c B37D525F 		.ascii	"\263}R_C\205qx*z\207\002\266\355\351k$\237q\254<\227"
 255      43857178 
 255      2A7A8702 
 255      B6EDE96B 
 255      249F71AC 
 256 0462 C7326D31 		.ascii	"\3072m1\\\346G\306e\352\223]&\275\330\267\211\012\324"
 256      5CE647C6 
 256      65EA935D 
 256      26BDD8B7 
 256      890AD4
 257 0475 BDA2F5B0 		.ascii	"\275\242\365\260\303<a)\221v\361\334\007\324\001\333"
 257      C33C6129 
 257      9176F1DC 
 257      07D401DB 
 258 0485 FF98C53A 		.ascii	"\377\230\305:\230Y\014\315\352\345)\036o\371\016Q\275"
 258      98590CCD 
 258      EAE5291E 
 258      6FF90E51 
 258      BD
 259 0496 5C5EB6A4 		.ascii	"\\^\266\244i\222\012\232V4~\206P>\303[\305\303\270\326"
 259      69920A9A 
 259      56347E86 
 259      503EC35B 
 259      C5C3B8D6 
 260 04aa D8F26D76 		.ascii	"\330\362mv\214\306\3255\313\2076!^\303\354x++G\351}"
ARM GAS  /tmp/ccMwRLwd.s 			page 20


 260      8CC6D535 
 260      CB873621 
 260      5EC3EC78 
 260      2B2B47E9 
 261 04bf B12CFAD0 		.ascii	"\261,\372\320\263\374\255\034\360\267\200\277\311\260"
 261      B3FCAD1C 
 261      F0B780BF 
 261      C9B0
 262 04cd C0796A81 		.ascii	"\300yj\201\226}NC\310l\203b\223\015\024\303\006\246"
 262      967D4E43 
 262      C86C8362 
 262      930D14C3 
 262      06A6
 263 04df 9DC47853 		.ascii	"\235\304xS8\300\232`\0211\301e\306\004uM\223\315&\030"
 263      38C09A60 
 263      1131C165 
 263      C604754D 
 263      93CD2618 
 264 04f3 6F8FC473 		.ascii	"o\217\304sO\345b\312\305\226&Xl2\3011K\023\360\266&"
 264      4FE562CA 
 264      C5962658 
 264      6C32C131 
 264      4B13F0B6 
 265 0508 C0D4EDFF 		.ascii	"\300\324\355\377\2756\273n\037\332B1;J2A,\2667\352b"
 265      BD36BB6E 
 265      1FDA4231 
 265      3B4A3241 
 265      2CB637EA 
 266 051d C6A82F82 		.ascii	"\306\250/\202Qy\037Z\002\342\370\320K\254i\227\346\322"
 266      51791F5A 
 266      02E2F8D0 
 266      4BAC6997 
 266      E6D2
 267 052f 188831AD 		.ascii	"\030\2101\255Y\215zy\270\2550\346\331\3615\212\331v"
 267      598D7A79 
 267      B8AD30E6 
 267      D9F1358A 
 267      D976
 268 0541 7F6A61EE 		.ascii	"\177ja\356tT\217:7\275I\021[\246d\202X\334\013\321q"
 268      74548F3A 
 268      37BD4911 
 268      5BA66482 
 268      58DC0BD1 
 269 0556 57AB2053 		.ascii	"W\253 S\324\307su\244\357\225\226.\264\222q\241\037"
 269      D4C77375 
 269      A4EF9596 
 269      2EB49271 
 269      A11F
 270 0568 8EAD3F65 		.ascii	"\216\255?e\345B\002\343\374\272C\237\246\230G\352\212"
 270      E54202E3 
 270      FCBA439F 
 270      A69847EA 
 270      8A
 271 0579 522B3D3D 		.ascii	"R+==\017\342\271\317)d\373\261\242\324:r\332\032f\252"
 271      0FE2B9CF 
 271      2964FBB1 
 271      A2D43A72 
ARM GAS  /tmp/ccMwRLwd.s 			page 21


 271      DA1A66AA 
 272 058d 2376C0BE 		.ascii	"#v\300\276A\344\3736W\037\260\355G\013t\207T\225\305"
 272      41E4FB36 
 272      571FB0ED 
 272      470B7487 
 272      5495C5
 273 05a0 78E84AC6 		.ascii	"x\350J\306CW\203\207\012>\364*\361\3205$\2571\374\324"
 273      43578387 
 273      0A3EF42A 
 273      F1D03524 
 273      AF31FCD4 
 274 05b4 3E5258CB 		.ascii	">RX\3133\221\351\377\250\016:3\323A\261\311b\366\275"
 274      3391E9FF 
 274      A80E3A33 
 274      D341B1C9 
 274      62F6BD
 275 05c7 BDC2F6D6 		.ascii	"\275\302\366\326\235k\004F\207\006\245\356n\254\243"
 275      9D6B0446 
 275      8706A5EE 
 275      6EACA3
 276 05d6 15D5C3AF 		.ascii	"\025\325\303\257\371.\272\326\355w\232i\307&1\333\033"
 276      F92EBAD6 
 276      ED779A69 
 276      C72631DB 
 276      1B
 277 05e7 9384168B 		.ascii	"\223\204\026\213(\344\221\003N\323\325x+6{_\3549\246"
 277      28E49103 
 277      4ED3D578 
 277      2B367B5F 
 277      EC39A6
 278 05fa 0FBD0B5B 		.ascii	"\017\275\013[\223\201>T\207\260\3216\223|+\311w\222"
 278      93813E54 
 278      87B0D136 
 278      937C2BC9 
 278      7792
 279 060c FC53927F 		.ascii	"\374S\222\177F\362\317I~\216\344\347I~\221\344\227I"
 279      46F2CF49 
 279      7E8EE4E7 
 279      497E91E4 
 279      9749
 280 061e FE2431FB 		.ascii	"\376$1\373B\222/#\371r\222W\223|\035\311k\323q\012u"
 280      42922F23 
 280      F9729257 
 280      937C1DC9 
 280      6BD3710A 
 281 0633 4E354E77 		.ascii	"N5Nw\264\343_u~\302\367\277\012\324\212K]\272\253\276"
 281      B4E35F75 
 281      7EC2F7BF 
 281      0AD48A4B 
 281      5DBAABBE 
 282 0647 7BF6C2D7 		.ascii	"{\366\302\327Uj\365-\334*EY\210\265\250\017\257\235"
 282      556AF52D 
 282      DC2A4559 
 282      88B5A80F 
 282      AF9D
 283 0659 A4D91A34 		.ascii	"\244\331\0324\214\333\344\266\356\030\021\242\005*\221"
 283      8CDBE4B6 
ARM GAS  /tmp/ccMwRLwd.s 			page 22


 283      EE1811A2 
 283      052A91
 284 0668 3A113651 		.ascii	":\0216Q\242\343\036\033n5\236\324n\270\333\270W\361"
 284      A2E31E1B 
 284      6E359ED4 
 284      6EB8DBB8 
 284      57F1
 285 067a 54B173F6 		.ascii	"T\261s\366$\203WL^e'+i\261\221\347Y\353\244\370\230"
 285      2483574C 
 285      5E65272B 
 285      69B191E7 
 285      59EBA4F8 
 286 068f A07663AF 		.ascii	"\240vc\257\270m\374\020\255\244k\210\347\366R\005u."
 286      B86DFC10 
 286      ADA46B88 
 286      E7F65205 
 286      752E
 287 06a1 8FEA7D10 		.ascii	"\217\352}\020Fg\253\214\022\316\261\321\371a\366F!-"
 287      4667AB8C 
 287      12CEB1D1 
 287      F961F646 
 287      212D
 288 06b3 DECB8051 		.ascii	"\336\313\200Q\333#?\014\324\300\233\316\3655#\2452\363"
 288      DB233F0C 
 288      D4C09BCE 
 288      F53523A5 
 288      32F3
 289 06c5 112A457B 		.ascii	"\021*E{\315\015\326F\006\027\346\361*\\\017r\034O\327"
 289      CD0DD646 
 289      0617E6F1 
 289      2A5C0F72 
 289      1C4FD7
 290 06d8 C8E0F194 		.ascii	"\310\340\361\224\350R&FV\032f\017%Rr\032u\205i\200\355"
 290      E8522646 
 290      561A660F 
 290      2552721A 
 290      75856980 
 291 06ed ECADAA33 		.ascii	"\354\255\2523\320mu\306\252jNV\025\336r#\223n>\241\272"
 291      D06D75C6 
 291      AA6A4E56 
 291      15DE7223 
 291      936E3EA1 
 292 0702 E95E71F2 		.ascii	"\351^q\362\264i\015\363\241\275\0310\222\332\271Z\254"
 292      B4690DF3 
 292      A1BD1930 
 292      92DAB95A 
 292      AC
 293 0713 8C66E6E4 		.ascii	"\214f\346\344[\312IG\367\0143\037\373S\361\241z\004"
 293      5BCA4947 
 293      F70C331F 
 293      FB53F1A1 
 293      7A04
 294 0725 CF5DA1F4 		.ascii	"\317]\241\364\215=\245f\372\203f\372\233\271W0\275R"
 294      8D3DA566 
 294      FA8366FA 
 294      9BB95730 
 294      BD52
ARM GAS  /tmp/ccMwRLwd.s 			page 23


 295 0737 3D5F5094 		.ascii	"=_P\224\256\236\036A_\347\346\177\312\234\204(\203\251"
 295      AE9E1E41 
 295      5FE7E67F 
 295      CA9C8428 
 295      83A9
 296 0749 14073139 		.ascii	"\024\00719\273\322\035&+\335|7\023\232\356\376\225\012"
 296      BBD21D26 
 296      2BDD7C37 
 296      139AEEFE 
 296      950A
 297 075b 9E16166C 		.ascii	"\236\026\026l\322\011m\253ed\321j\012N\227|l\025Y\270"
 297      D2096DAB 
 297      6564D16A 
 297      0A4E977C 
 297      6C1559B8 
 298 076f 1CC2EA33 		.ascii	"\034\302\3523\3062}c\022\363'\010\363\313\031\346[\233"
 298      C6327D63 
 298      12F32708 
 298      F3CB19E6 
 298      5B9B
 299 0781 C699994F 		.ascii	"\306\231\231O\201\304so\020\3126K\326\333L\254\267\036"
 299      81C4736F 
 299      10CA364B 
 299      D6DB4CAC 
 299      B71E
 300 0793 73625D0F 		.ascii	"sb]\017\2126S\314\266SN\241\250z9\257\247;(f\373?\263"
 300      8A3653CC 
 300      B6534EA1 
 300      A87A39AF 
 300      A73B2866 
 301 07aa 0D8AF4E0 		.ascii	"\015\212\364\340\266\221|\001l\246\210\235\031!\026"
 301      B6917C01 
 301      6CA6889D 
 301      192116
 302 07b9 5BF0A82E 		.ascii	"[\360\250.-\373)b\313\351ku\264y\224b\036\361g\202h"
 302      2DFB2962 
 302      CBE96B75 
 302      B4799462 
 302      1EF16782 
 303 07ce CFE5     		.ascii	"\317\345"
 304 07d0 298AD8E1 		.ascii	")\212\330\341\200hy\352\327\373b\335\307\207NA\374\007"
 304      806879EA 
 304      D7FB62DD 
 304      C7874E41 
 304      FC07
 305 07e2 7D9D268B 		.ascii	"}\235&\213\374'$\377\224\344\237\221\374s\222\177\311"
 305      FC2724FF 
 305      94E49F91 
 305      FC73927F 
 305      C9
 306 07f3 EE5CBEA0 		.ascii	"\356\\\276\240\243\247\361\033\303]\222<\325\331_\354"
 306      A3A7F11B 
 306      C35D923C 
 306      D5D95FEC 
 307 0803 87CFBF28 		.ascii	"\207\317\277(ua\322\350\371\206\370\3539f\364,\332\375"
 307      7561D2E8 
 307      F986F8EB 
ARM GAS  /tmp/ccMwRLwd.s 			page 24


 307      3966F42C 
 307      DAFD
 308 0815 90FDE831 		.ascii	"\220\375\3501\003\361\334\334<Lx\336r\360\2347\015\236"
 308      03F1DCDC 
 308      3C4C78DE 
 308      72F09C37 
 308      0D9E
 309 0827 2B47AD06 		.ascii	"+G\255\006ONF_\351\014\205\374$I\214\213D\214\245y\206"
 309      4F4E465F 
 309      E90C85FC 
 309      24498C8B 
 309      448CA579 
 310 083c 183F266D 		.ascii	"\030?&m\256S!\301$@(/Y\312q\311$\307VK9rMn\326\311\223"
 310      AE5321C1 
 310      2440282F 
 310      59CA71C9 
 310      24C7564B 
 311 0857 4F6614B3 		.ascii	"Of\024\263\363D\3377\327*f#\305\354z8\213\315\265\212"
 311      F344DF37 
 311      D72A6623 
 311      C5EC7A38 
 311      8BCDB58A 
 312 086b A8CC5186 		.ascii	"\250\314Q\206\353Gk\312<e\370\353\214f\006P\200\344"
 312      EB476BCA 
 312      3C65F8EB 
 312      8C660650 
 312      80E4
 313 087d 454211F0 		.ascii	"EB\021\360,\324\302\250\370\343Vm\035\312\030k\016\301"
 313      2CD4C2A8 
 313      F8E3566D 
 313      1DCA186B 
 313      0EC1
 314 088f 3A4AB15E 		.ascii	":J\261^{\346\344.zL'\230\206\032yfO\351\324\327z\011"
 314      7BE6E42E 
 314      7A4C2798 
 314      861A7966 
 314      4FE9D4D7 
 315 08a5 963B2ED3 		.ascii	"\226;.\323\346\260i\245j\204\375\316\321{\254\031\316"
 315      E6B069A5 
 315      6A84FDCE 
 315      D17BAC19 
 315      CE
 316 08b6 6A8F9949 		.ascii	"j\217\231I<\363\244\220\024E\2143\007\021\326\224\254"
 316      3CF3A490 
 316      14458C33 
 316      0711D694 
 316      AC
 317 08c7 1EE70BE4 		.ascii	"\036\347\013\344\343\017c\223\323M\332\301{\322gg\334"
 317      E30F6393 
 317      D34DDAC1 
 317      7BD26767 
 317      DC
 318 08d8 973D27CF 		.ascii	"\227='\317\010\246]\206I\237I\357x\356\002\243\274\017"
 318      08A65D86 
 318      499F49EF 
 318      78EE02A3 
 318      BC0F
ARM GAS  /tmp/ccMwRLwd.s 			page 25


 319 08ea 8FF6F9A3 		.ascii	"\217\366\371\243\030\331\331\375H1\333>\312j\341\350"
 319      18D9D9FD 
 319      4831DB3E 
 319      CA6AE1E8 
 320 08fa 7DB1C319 		.ascii	"}\261\303\031\266e0)\347\372\320\0252\371^%y\017\311"
 320      B6653029 
 320      E7FAD015 
 320      32F95E25 
 320      790FC9
 321 090d 9F1070FE 		.ascii	"\237\020p\376\254\220\306^\254\323\3302\373P\027\211"
 321      AC90C65E 
 321      ACD3D832 
 321      FB501789 
 322 091d 95F11CD7 		.ascii	"\225\361\034\327\371\367k1\266}\250\233\"6\376\243o"
 322      F9F76B31 
 322      B67DA89B 
 322      2236FEA3 
 322      6F
 323 092e 635B1DAC 		.ascii	"c[\035\254>4O\320\021\217\264\031\353J\306^\316`\362"
 323      3E344FD0 
 323      118FB419 
 323      EB4AC65E 
 323      CE60F2
 324 0941 9CE2D167 		.ascii	"\234\342\321g\374#\276L\020\007\330\333\351<c\247\357"
 324      FC23BE4C 
 324      1007D8DB 
 324      E93C63A7 
 324      EF
 325 0952 C04E393E 		.ascii	"\300N9>\364=\261\315s\3046\013I\276H`\026\314\247=\372"
 325      F43DB1CD 
 325      73C4360B 
 325      49BE4860 
 325      16CCA73D 
 326 0967 82D91EB1 		.ascii	"\202\331\036\261^\232\254WpVUY\235\243\277 \340uf\221"
 326      5E9AAC57 
 326      70565559 
 326      9DA3BF20 
 326      E0756691 
 327 097b C718702F 		.ascii	"\307\030p/\357\316\344\034}%\241|I\260Zgp-\023'\177"
 327      EFCEE41C 
 327      7D25A17C 
 327      49B05A67 
 327      702D1327 
 328 0990 647B8E3E 		.ascii	"d{\216>w\2161\357\314\241#\374K\210\022\355}\327\364"
 328      778E31EF 
 328      CCA123FC 
 328      4B8812ED 
 328      7DD7F4
 329 09a3 D9B39672 		.ascii	"\331\263\226r\321\376e-\237\205\367ZY\321\020\312\207"
 329      D1FE652D 
 329      9F85F75A 
 329      59D110CA 
 329      87
 330 09b4 9609E4E4 		.ascii	"\226\011\344\344\375e\326f\333\250\315\032\3179\235"
 330      FD65D666 
 330      DBA8CD1A 
 330      CF399D
ARM GAS  /tmp/ccMwRLwd.s 			page 26


 331 09c3 07A53A9E 		.ascii	"\007\245:\236U\343l\365?l\015\206\037D\351\332n\376"
 331      55E36CF5 
 331      3F6C0D86 
 331      1F44E9DA 
 331      6EFE
 332 09d5 BB9A3564 		.ascii	"\273\2325d\237\035a5q\204}\324\021\276;Y{\332\374\037"
 332      9F1D6135 
 332      71847DD4 
 332      11BE3B59 
 332      7BDAFC1F 
 333 09e9 3AA70F83 		.ascii	":\247\017\203k,\235`\015\343\004\215u.;\027\310\366"
 333      6B2C9D60 
 333      0DE3048D 
 333      752E3B17 
 333      C8F6
 334 09fb FBD85A32 		.ascii	"\373\330Z2\206\257R\266\327\236X\337\347\357c\217\347"
 334      86AF52B6 
 334      D79E58DF 
 334      E7EF638F 
 334      E7
 335 0a0c 234D9CEF 		.ascii	"#M\234\357N.<\335\207\357c\246\276\3270\356\364\272"
 335      4E2E3CDD 
 335      87EF63A6 
 335      BED730EE 
 335      F4BA
 336 0a1e EA4E35A6 		.ascii	"\352N5\246) _7}\367\212\357\177\232\272\323xJw\232/"
 336      29205F37 
 336      7DF78AEF 
 336      7F9ABAD3 
 336      784A779A 
 337 0a33 B8AEE316 		.ascii	"\270\256\343\026\350\273\\M\245\015\363\224\371\350"
 337      E8BB5C4D 
 337      A50DF394 
 337      F9E8
 338 0a41 B1F5371A 		.ascii	"\261\3657\032d\346\335\233\351\377\224D\251\317\346"
 338      64E6DD9B 
 338      E9FF9444 
 338      A9CFE6
 339 0a50 1BFFD6DA 		.ascii	"\033\377\326\332\272W[-\263@\333@\320^\3127b\243\013"
 339      BA575B2D 
 339      B340DB40 
 339      D05ECA37 
 339      62A30B
 340 0a63 BB7FA36B 		.ascii	"\273\177\243k\305\223d!\217\331B\036j!\217f!\365_\246"
 340      C5936421 
 340      8FD9421E 
 340      6A218F66 
 340      21F55FA6 
 341 0a77 5C96543A 		.ascii	"\\\226T:\267\015\375(\273\307\221\006\262N\270\316\020"
 341      B70DFD28 
 341      BBC79106 
 341      B24EB8CE 
 341      10
 342 0a88 51A1D350 		.ascii	"Q\241\323Pa\252Y\250N\213\355\014o\320K7P\303\256b\014"
 342      61AA59A8 
 342      4E8BED0C 
 342      6FD04B37 
ARM GAS  /tmp/ccMwRLwd.s 			page 27


 342      50C3AE62 
 343 0a9d BBF49460 		.ascii	"\273\364\224`\307\202\376P\225\256C\2652\253\3141u\213"
 343      C782FE50 
 343      95AE43B5 
 343      32ABCC31 
 343      758B
 344 0aaf 769CAC32 		.ascii	"v\234\2542\035$_LV\231WH\276\212\344o\263\356VK\355"
 344      1D245F4C 
 344      56995748 
 344      BE8AE46F 
 344      B3EE564B 
 345 0ac4 D176B596 		.ascii	"\321v\265\226\316^\311\007!\270\237\315\002=\235I\212"
 345      CE5EC907 
 345      21B89FCD 
 345      023D9D49 
 345      8A
 346 0ad5 C1F0D980 		.ascii	"\301\360\331\200\275n\266\010\0056t\207S\322m5\3504"
 346      BD6EB608 
 346      05367487 
 346      53D26D35 
 346      E834
 347 0ae7 37AE1EFF 		.ascii	"7\256\036\377b\221\372_\030\353\005\232\034\217fa\275"
 347      6291FA5F 
 347      18EB059A 
 347      1C8F6661 
 347      BD
 348 0af8 F76CAD87 		.ascii	"\367l\255\207\314\014\024'\367?\226\266tkX\333\263\350"
 348      CC0C1427 
 348      F73F96B6 
 348      746B58DB 
 348      B3E8
 349 0b0a BFDEB67F 		.ascii	"\277\336\266\177}\236LR\034>\246\263\207k\260UxsJ\272"
 349      7D9E4C52 
 349      1C3EA6B3 
 349      876BB055 
 349      78734ABA 
 350 0b1e 1D061D3E 		.ascii	"\035\006\035>z;xp\2012{\350\3543==\303X\361\331\345"
 350      7A3B7870 
 350      81327BE8 
 350      EC333D3D 
 350      C358F1D9 
 351 0b33 F8CF1423 		.ascii	"\370\317\024#?\245\232\222\333\371Pc\026j\332e\253&"
 351      3FA59A92 
 351      DBF95063 
 351      166ADA65 
 351      AB26
 352 0b45 768018ED 		.ascii	"v\200\030\355\300'6\346\353\247\373\357\236=tn\254\035"
 352      C02736E6 
 352      EBA7FBEF 
 352      9E3D746E 
 352      AC1D
 353 0b57 3F3CB73D 		.ascii	"?<\267=_\037\376\270\220\307=A\376\321\363\270\362\030"
 353      5F1FFEB8 
 353      90C73D41 
 353      FED1F3B8 
 353      F218
 354 0b69 7AD41884 		.ascii	"z\324\030\204v\177\017\003\305\012yx\017\231o\377\307"
ARM GAS  /tmp/ccMwRLwd.s 			page 28


 354      767F0F03 
 354      C50A7978 
 354      0F996FFF 
 354      C7
 355 0b7a 2EDC4267 		.ascii	".\334BgY+\323\"\352e\250\206\224\206\332\227\261\241"
 355      592BD322 
 355      EA65A886 
 355      9486DA97 
 355      B1A1
 356 0b8c 2A2846BF 		.ascii	"*(F\277\224\206Jn\347C\373\2630\324\001[C\025\232t\242"
 356      94864A6E 
 356      E743FBB3 
 356      30D4015B 
 356      43159A74 
 357 0ba1 B7836293 		.ascii	"\267\203b\223\240\237\320w\335n\307\014\317\0356Y\211"
 357      A09FD077 
 357      DD6EC70C 
 357      CF1D3659 
 357      89
 358 0bb2 CB931372 		.ascii	"\313\223\023r@\026\375\262k\342\237\376V<\201\033SR"
 358      4016FDB2 
 358      6BE29FFE 
 358      563C811B 
 358      5352
 359 0bc4 E29D5011 		.ascii	"\342\235P\021*\015=0\315\033Kx%\331\033\217Ir\302\373"
 359      2A0D3D30 
 359      CD1B4B78 
 359      25D91B8F 
 359      4972C2FB 
 360 0bd8 BBA95326 		.ascii	"\273\251S&L\251\362\006c\221x(,J\011\357\304\011\023"
 360      4CA9F206 
 360      63917828 
 360      2C4A09EF 
 360      C40913
 361 0beb BCC10A79 		.ascii	"\274\301\012yV\\L\224Tp\356\312PT\036\353\227EoE,\""
 361      565C4C94 
 361      5470EECA 
 361      50541EEB 
 361      97456F45 
 362 0c01 7AC3814A 		.ascii	"z\303\201JI\214\006EL6\002\267,\015E\275\200\034\016"
 362      498C0645 
 362      4C3602B7 
 362      2C0D45BD 
 362      801C0E
 363 0c14 957ACB83 		.ascii	"\225z\313\203Ao@\212\214\210\306\242\342\0101P\032\362"
 363      416F408A 
 363      8C88C6A2 
 363      E2083150 
 363      1AF2
 364 0c26 8E2EB9BB 		.ascii	"\216.\271\273d4~M\177\346\367\241h0\\Y&z\023r\031\364"
 364      64347E4D 
 364      7FE6F7A1 
 364      68305C59 
 364      267A1372 
 365 0c3c 02BDE546 		.ascii	"\002\275\345F\022\345~\331\015\017\243\356\362\313y"
 365      12E57ED9 
 365      0D0FA3EE 
ARM GAS  /tmp/ccMwRLwd.s 			page 29


 365      F2CB79
 366 0c4b 72852406 		.ascii	"r\205$\006\312\374\362m\275x\327)\203\025\211Y\011\235"
 366      CAFCF26D 
 366      BD78D729 
 366      83158959 
 366      099D
 367 0c5d 574FB0C2 		.ascii	"WO\260\302\257\222\334\234\212 XQ\006\215]q\177T\254"
 367      AF92DC9C 
 367      8A205851 
 367      068D5D71 
 367      7F54AC
 368 0c70 92E11697 		.ascii	"\222\341\026\227\304\031n9.\205b\320e\245\3267\251\017"
 368      C4196E39 
 368      2E8562D0 
 368      65A5D637 
 368      A90F
 369 0c82 C5DCC158 		.ascii	"\305\334\301XT\206f?w\320^E0&\211\200Z\200\253\375\200"
 369      5486663F 
 369      77D05E45 
 369      30268980 
 369      5A80ABFD 
 370 0c97 1194AB7E 		.ascii	"\021\224\253~\221\016\215\177\306\335\021\240\313\223"
 370      910E8D7F 
 370      C6DD11A0 
 370      CB93
 371 0ca5 C472D08D 		.ascii	"\304r\320\215_\346\245\321\274\364K^\032\303Kw\363\322"
 371      5FE6A5D1 
 371      BCF44B5E 
 371      1AC34B77 
 371      F3D2
 372 0cb7 585EBA47 		.ascii	"X^\272G\220F\336\011i$\037\226\3406*7\356\007l7\346"
 372      9046DE09 
 372      69241F96 
 372      E0362A37 
 372      EE076C37 
 373 0ccc 7EA628C1 		.ascii	"~\246(\301=\026.\023\245\234`E@\302\"\005\"\"\324\021"
 373      3D162E13 
 373      A59C6045 
 373      40C22205 
 373      2222D411 
 374 0ce0 D3BBE548 		.ascii	"\323\273\345H\254\014\034\000\236\247\207\003\345\011"
 374      AC0C1C00 
 374      9EA78703 
 374      E509
 375 0cee B72C89D3 		.ascii	"\267,\211\323\023D4\\pIe\263@\335ybUH\016BC\327L9V\372"
 375      1344345C 
 375      704965B3 
 375      40DD7962 
 375      55480E42 
 376 0d08 EF788138 		.ascii	"\357x\2018C\214\312\221@\342\021h)\316\304\005!\356"
 376      438CCA91 
 376      40E21168 
 376      29CEC405 
 376      21EE
 377 0d1a AF2C5215 		.ascii	"\257,R\025\233\360\207C\011\331/\367\247\252Vk<q\377"
 377      9BF08743 
 377      09D92FF7 
ARM GAS  /tmp/ccMwRLwd.s 			page 30


 377      A7AA566B 
 377      3C71FF
 378 0d2d CC40480E 		.ascii	"\314@H\016E\313\373\353\325\217V\212\225\320\373\000"
 378      45CBFBEB 
 378      D58F568A 
 378      95D0FB00 
 379 0d3d A625A9CA 		.ascii	"\246%\251\312\217\373\241[R\314%E\250\020\343b\024\\"
 379      8FFBA15B 
 379      52CC2545 
 379      A810E362 
 379      145C
 380 0d4f A03C3752 		.ascii	"\240<7R\011\332\276)\205\365\"r\025\366\312\210\212"
 380      09DABE29 
 380      85F52272 
 380      15F6CA88 
 380      8A
 381 0d60 05F7D8CC 		.ascii	"\005\367\330\314(\250\201\320\001\303\021bT\340\006"
 381      28A881D0 
 381      01C31162 
 381      54E006
 382 0d6f DA61BEF2 		.ascii	"\332a\276\362\261\254\20101%T\306c\2610x\311\224D\371"
 382      B1AC8130 
 382      312554C6 
 382      63B13078 
 382      C99444F9 
 383 0d83 34E8F067 		.ascii	"4\350\360g\275\372IHA\334G\242\274$\310\361r\\\200\222"
 383      BDFA4948 
 383      41DC47A2 
 383      BC24C8F1 
 383      725C8092 
 384 0d97 DAFC4110 		.ascii	"\332\374A\020\256\220\224\246\212a1\220\020\373\005"
 384      AE9094A6 
 384      8A613190 
 384      10FB05
 385 0da6 2BA6052B 		.ascii	"+\246\005+&\306\246\205E1>\255\200<M\005!gM.$\345\007"
 385      26C6A685 
 385      45313EAD 
 385      803C4D05 
 385      21674D2E 
 386 0dbd 038F8895 		.ascii	"\003\217\210\225\344\205\037{\250\010\246\365\320r!"
 386      E4851F7B 
 386      A808A6F5 
 386      D07221
 387 0dcc 56C72C4D 		.ascii	"V\307,M\225\200\3447\236\335\222*\231K\"\376\227+\021"
 387      9580E437 
 387      9EDD922A 
 387      994B22FE 
 387      972B11
 388 0ddf 6B4B9AB5 		.ascii	"kK\232\265%\325\332\036\250\255\224` \312\271\022&\032"
 388      25D5DA1E 
 388      A8AD9460 
 388      20CAB912 
 388      261A
 389 0df1 3C2324C9 		.ascii	"<#$\311\225\201\260_\016E`\010k\300C\000\330\342E\177"
 389      9581B05F 
 389      0E456008 
 389      6BC04300 
ARM GAS  /tmp/ccMwRLwd.s 			page 31


 389      D8E2457F 
 390 0e05 539D6A20 		.ascii	"S\235j S\225{\206L\264\210\357xlx0\323\360B\033\035"
 390      53957B86 
 390      4CB488EF 
 390      786C7830 
 390      D3F0421B 
 391 0e1a 23C74001 		.ascii	"#\307@\001^\225\211a9\000\205\351\225\321\240\2374\306"
 391      5E958961 
 391      390085E9 
 391      95D1A09F 
 391      34C6
 392 0e2c 2517260A 		.ascii	"%\027&\012H\005p\013\007\0222\246\203*\334o\221\246"
 392      4805700B 
 392      071232A6 
 392      832ADC6F 
 392      91A6
 393 0e3e 8732B1B4 		.ascii	"\2072\261\264\262\\\365 \266\306\023\017DCA\354\017"
 393      B25CF520 
 393      B6C6130F 
 393      444341EC 
 393      0F
 394 0e4f 42596979 		.ascii	"BYiy~$\000]\021\267\031 G\374\301\000L0R@\016\305\242"
 394      7E24005D 
 394      11B71920 
 394      47FCC100 
 394      4C305240 
 395 0e66 7EB93885 		.ascii	"~\2718\205{\310x0\271%9\030\005\005\270b\323\247'D\231"
 395      7BC87830 
 395      B9253918 
 395      0505B862 
 395      D3A72744 
 396 0e7b 9723F909 		.ascii	"\227#\371\011\371\021\200(\217j2\214\031\355\227\213"
 396      F9118028 
 396      8F6A328C 
 396      19ED978B 
 397 0e8b 42656151 		.ascii	"BeaQsMp^>X\221\347'\"\370\375\375\364B\311\230\221\243"
 397      734D705E 
 397      3E5891E7 
 397      2722F8FD 
 397      FDF442C9 
 398 0ea2 46E5FA7F 		.ascii	"F\345\372\177\017n\303\326\215\276\353\377\262\356B"
 398      0F6EC3D6 
 398      8DBEEBFF 
 398      B2EE42
 399 0eb1 9F       		.ascii	"\237"
 400              		.text
 401              		.section	.gnu.lto_.symtab.112490da35c7531c,"",%progbits
 402 0000 63684D73 		.ascii	"chMsgSend\000\000\000\000\000\000\000\000\000\000\000"
 402      6753656E 
 402      64000000 
 402      00000000 
 402      00000000 
 403 0014 00A70000 		.ascii	"\000\247\000\000\000chMsgWait\000\000\000\000\000\000"
 403      0063684D 
 403      73675761 
 403      69740000 
 403      00000000 
ARM GAS  /tmp/ccMwRLwd.s 			page 32


 404 0028 00000000 		.ascii	"\000\000\000\000\000\000;\001\000\000chMsgRelease\000"
 404      00003B01 
 404      00006368 
 404      4D736752 
 404      656C6561 
 405 003f 00000000 		.ascii	"\000\000\000\000\000\000\000\000\000\000\000?\001\000"
 405      00000000 
 405      0000003F 
 405      0100
 406 004d 00636853 		.ascii	"\000chSchGoSleepS\000\000\002\000\000\000\000\000\000"
 406      6368476F 
 406      536C6565 
 406      70530000 
 406      02000000 
 407 0064 00000047 		.ascii	"\000\000\000G\001\000\000chSchReadyI\000\000\002\000"
 407      01000063 
 407      68536368 
 407      52656164 
 407      79490000 
 408 007a 00000000 		.ascii	"\000\000\000\000\000\000\000\000K\001\000\000chSchW"
 408      00000000 
 408      4B010000 
 408      63685363 
 408      6857
 409 008c 616B6575 		.ascii	"akeupS\000\000\002\000\000\000\000\000\000\000\000\000"
 409      70530000 
 409      02000000 
 409      00000000 
 409      0000
 410 009e 4F010000 		.ascii	"O\001\000\000ch\000\000\002\000\000\000\000\000\000"
 410      63680000 
 410      02000000 
 410      000000
 411 00ad 00000051 		.ascii	"\000\000\000Q\001\000\000"
 411      010000
 412              		.text
 413              		.section	.gnu.lto_.opts,"",%progbits
 414 0000 272D6444 		.ascii	"'-dD''-mcpu=cortex-m3''-mno-thumb-interwork''-mthum"
 414      27272D6D 
 414      6370753D 
 414      636F7274 
 414      65782D6D 
 415 0033 6227272D 		.ascii	"b''-ggdb''-g3''-O2''-fomit-frame-pointer''-falign-f"
 415      67676462 
 415      27272D67 
 415      3327272D 
 415      4F322727 
 416 0066 756E6374 		.ascii	"unctions=16''-ffunction-sections''-fdata-sections''"
 416      696F6E73 
 416      3D313627 
 416      272D6666 
 416      756E6374 
 417 0099 2D666E6F 		.ascii	"-fno-common''-flto'\000"
 417      2D636F6D 
 417      6D6F6E27 
 417      272D666C 
 417      746F2700 
ARM GAS  /tmp/ccMwRLwd.s 			page 33


 418              		.text
 419              		.cfi_sections	.debug_frame
 420              		.section	.text.chMsgSend,"ax",%progbits
 421              		.align	2
 422              		.p2align 4,,15
 423              		.global	chMsgSend
 424              		.thumb
 425              		.thumb_func
 426              		.type	chMsgSend, %function
 427              	chMsgSend:
 428              	.LFB170:
 429              		.file 1 "../ChibiOS/os/rt/src/chmsg.c"
 430              		.loc 1 87 0
 431              		.cfi_startproc
 432              		@ args = 0, pretend = 0, frame = 0
 433              		@ frame_needed = 0, uses_anonymous_args = 0
 434              	.LVL0:
 435              		.loc 1 88 0
 436 0000 0E4A     		ldr	r2, .L5
 437              		.loc 1 87 0
 438 0002 70B5     		push	{r4, r5, r6, lr}
 439              	.LCFI0:
 440              		.cfi_def_cfa_offset 16
 441              		.cfi_offset 4, -16
 442              		.cfi_offset 5, -12
 443              		.cfi_offset 6, -8
 444              		.cfi_offset 14, -4
 445              		.loc 1 88 0
 446 0004 9469     		ldr	r4, [r2, #24]
 447              	.LVL1:
 448              	.LBB52:
 449              	.LBB53:
 450              	.LBB54:
 451              	.LBB55:
 452              		.file 2 "../ChibiOS/os/ext/CMSIS/include/core_cmFunc.h"
 453              		.loc 2 546 0
 454 0006 2025     		movs	r5, #32
 455              	@ 546 "../ChibiOS/os/ext/CMSIS/include/core_cmFunc.h" 1
 456 0008 85F31188 		MSR basepri, r5
 457              	@ 0 "" 2
 458              		.thumb
 459              	.LBE55:
 460              	.LBE54:
 461              	.LBE53:
 462              	.LBE52:
 463              		.loc 1 94 0
 464 000c 00F12805 		add	r5, r0, #40
 465 0010 2562     		str	r5, [r4, #32]
 466              	.LVL2:
 467              		.loc 1 96 0
 468 0012 067F     		ldrb	r6, [r0, #28]	@ zero_extendqisi2
 469              	.LBB56:
 470              	.LBB57:
 471              		.file 3 "../ChibiOS/os/rt/include/chschd.h"
 472              		.loc 3 633 0
 473 0014 C26A     		ldr	r2, [r0, #44]
 474              	.LBE57:
ARM GAS  /tmp/ccMwRLwd.s 			page 34


 475              	.LBE56:
 476              		.loc 1 96 0
 477 0016 0E2E     		cmp	r6, #14
 478              	.LBB60:
 479              	.LBB58:
 480              		.loc 3 632 0
 481 0018 2560     		str	r5, [r4, #0]
 482              	.LBE58:
 483              	.LBE60:
 484              		.loc 1 93 0
 485 001a 2163     		str	r1, [r4, #48]
 486              	.LBB61:
 487              	.LBB59:
 488              		.loc 3 633 0
 489 001c 6260     		str	r2, [r4, #4]
 490              		.loc 3 634 0
 491 001e C462     		str	r4, [r0, #44]
 492 0020 1460     		str	r4, [r2, #0]
 493              	.LBE59:
 494              	.LBE61:
 495              		.loc 1 96 0
 496 0022 07D0     		beq	.L4
 497              	.LVL3:
 498              	.L2:
 499              		.loc 1 98 0
 500 0024 0C20     		movs	r0, #12
 501 0026 FFF7FEFF 		bl	chSchGoSleepS
 502              	.LVL4:
 503              		.loc 1 99 0
 504 002a 206A     		ldr	r0, [r4, #32]
 505              	.LVL5:
 506              	.LBB62:
 507              	.LBB63:
 508              	.LBB64:
 509              	.LBB65:
 510              	.LBB66:
 511              		.loc 2 546 0
 512 002c 0021     		movs	r1, #0
 513              	@ 546 "../ChibiOS/os/ext/CMSIS/include/core_cmFunc.h" 1
 514 002e 81F31188 		MSR basepri, r1
 515              	@ 0 "" 2
 516              		.thumb
 517              	.LBE66:
 518              	.LBE65:
 519              	.LBE64:
 520              	.LBE63:
 521              	.LBE62:
 522              		.loc 1 102 0
 523 0032 70BD     		pop	{r4, r5, r6, pc}
 524              	.LVL6:
 525              	.L4:
 526              		.loc 1 97 0
 527 0034 FFF7FEFF 		bl	chSchReadyI
 528              	.LVL7:
 529 0038 F4E7     		b	.L2
 530              	.L6:
 531 003a 00BF     		.align	2
ARM GAS  /tmp/ccMwRLwd.s 			page 35


 532              	.L5:
 533 003c 00000000 		.word	ch
 534              		.cfi_endproc
 535              	.LFE170:
 536              		.size	chMsgSend, .-chMsgSend
 537              		.section	.text.chMsgWait,"ax",%progbits
 538              		.align	2
 539              		.p2align 4,,15
 540              		.global	chMsgWait
 541              		.thumb
 542              		.thumb_func
 543              		.type	chMsgWait, %function
 544              	chMsgWait:
 545              	.LFB171:
 546              		.loc 1 118 0
 547              		.cfi_startproc
 548              		@ args = 0, pretend = 0, frame = 0
 549              		@ frame_needed = 0, uses_anonymous_args = 0
 550              	.LVL8:
 551 0000 10B5     		push	{r4, lr}
 552              	.LCFI1:
 553              		.cfi_def_cfa_offset 8
 554              		.cfi_offset 4, -8
 555              		.cfi_offset 14, -4
 556              	.LBB67:
 557              	.LBB68:
 558              	.LBB69:
 559              	.LBB70:
 560              		.loc 2 546 0
 561 0002 2023     		movs	r3, #32
 562              	@ 546 "../ChibiOS/os/ext/CMSIS/include/core_cmFunc.h" 1
 563 0004 83F31188 		MSR basepri, r3
 564              	@ 0 "" 2
 565              		.thumb
 566              	.LBE70:
 567              	.LBE69:
 568              	.LBE68:
 569              	.LBE67:
 570              		.loc 1 122 0
 571 0008 0B4C     		ldr	r4, .L10
 572 000a A269     		ldr	r2, [r4, #24]
 573              	.LVL9:
 574              	.LBB71:
 575              	.LBB72:
 576              		.file 4 "../ChibiOS/os/rt/include/chmsg.h"
 577              		.loc 4 83 0
 578 000c 1346     		mov	r3, r2
 579 000e 53F8280F 		ldr	r0, [r3, #40]!
 580              	.LBE72:
 581              	.LBE71:
 582              		.loc 1 122 0
 583 0012 9842     		cmp	r0, r3
 584 0014 08D0     		beq	.L9
 585              	.LVL10:
 586              	.L8:
 587              	.LBB73:
 588              	.LBB74:
ARM GAS  /tmp/ccMwRLwd.s 			page 36


 589              		.loc 3 640 0
 590 0016 0168     		ldr	r1, [r0, #0]
 591 0018 9162     		str	r1, [r2, #40]
 592              	.LBE74:
 593              	.LBE73:
 594              		.loc 1 125 0
 595 001a 0D22     		movs	r2, #13
 596              	.LVL11:
 597              	.LBB76:
 598              	.LBB75:
 599              		.loc 3 640 0
 600 001c 4B60     		str	r3, [r1, #4]
 601              	.LBE75:
 602              	.LBE76:
 603              		.loc 1 125 0
 604 001e 0277     		strb	r2, [r0, #28]
 605              	.LVL12:
 606              	.LBB77:
 607              	.LBB78:
 608              	.LBB79:
 609              	.LBB80:
 610              	.LBB81:
 611              		.loc 2 546 0
 612 0020 0023     		movs	r3, #0
 613              	@ 546 "../ChibiOS/os/ext/CMSIS/include/core_cmFunc.h" 1
 614 0022 83F31188 		MSR basepri, r3
 615              	@ 0 "" 2
 616              		.thumb
 617              	.LBE81:
 618              	.LBE80:
 619              	.LBE79:
 620              	.LBE78:
 621              	.LBE77:
 622              		.loc 1 128 0
 623 0026 10BD     		pop	{r4, pc}
 624              	.LVL13:
 625              	.L9:
 626              		.loc 1 123 0
 627 0028 0E20     		movs	r0, #14
 628 002a FFF7FEFF 		bl	chSchGoSleepS
 629              	.LVL14:
 630 002e A269     		ldr	r2, [r4, #24]
 631 0030 1346     		mov	r3, r2
 632 0032 53F8280F 		ldr	r0, [r3, #40]!
 633 0036 EEE7     		b	.L8
 634              	.L11:
 635              		.align	2
 636              	.L10:
 637 0038 00000000 		.word	ch
 638              		.cfi_endproc
 639              	.LFE171:
 640              		.size	chMsgWait, .-chMsgWait
 641 003c AFF30080 		.section	.text.chMsgRelease,"ax",%progbits
 642              		.align	2
 643              		.p2align 4,,15
 644              		.global	chMsgRelease
 645              		.thumb
ARM GAS  /tmp/ccMwRLwd.s 			page 37


 646              		.thumb_func
 647              		.type	chMsgRelease, %function
 648              	chMsgRelease:
 649              	.LFB172:
 650              		.loc 1 140 0
 651              		.cfi_startproc
 652              		@ args = 0, pretend = 0, frame = 0
 653              		@ frame_needed = 0, uses_anonymous_args = 0
 654              	.LVL15:
 655 0000 08B5     		push	{r3, lr}
 656              	.LCFI2:
 657              		.cfi_def_cfa_offset 8
 658              		.cfi_offset 3, -8
 659              		.cfi_offset 14, -4
 660              	.LBB82:
 661              	.LBB83:
 662              	.LBB84:
 663              	.LBB85:
 664              		.loc 2 546 0
 665 0002 2023     		movs	r3, #32
 666              	@ 546 "../ChibiOS/os/ext/CMSIS/include/core_cmFunc.h" 1
 667 0004 83F31188 		MSR basepri, r3
 668              	@ 0 "" 2
 669              		.thumb
 670              	.LBE85:
 671              	.LBE84:
 672              	.LBE83:
 673              	.LBE82:
 674              	.LBB86:
 675              	.LBB87:
 676              		.loc 4 115 0
 677 0008 FFF7FEFF 		bl	chSchWakeupS
 678              	.LVL16:
 679              	.LBE87:
 680              	.LBE86:
 681              	.LBB88:
 682              	.LBB89:
 683              	.LBB90:
 684              	.LBB91:
 685              	.LBB92:
 686              		.loc 2 546 0
 687 000c 0020     		movs	r0, #0
 688              	@ 546 "../ChibiOS/os/ext/CMSIS/include/core_cmFunc.h" 1
 689 000e 80F31188 		MSR basepri, r0
 690              	@ 0 "" 2
 691              		.thumb
 692 0012 08BD     		pop	{r3, pc}
 693              	.LBE92:
 694              	.LBE91:
 695              	.LBE90:
 696              	.LBE89:
 697              	.LBE88:
 698              		.cfi_endproc
 699              	.LFE172:
 700              		.size	chMsgRelease, .-chMsgRelease
 701 0014 AFF30080 		.text
 701      AFF30080 
ARM GAS  /tmp/ccMwRLwd.s 			page 38


 701      AFF30080 
 702              	.Letext0:
 703              		.file 5 "/home/laurence/ARM-GCC/bin/../lib/gcc/arm-none-eabi/4.7.4/../../../../arm-none-eabi/inclu
 704              		.file 6 "../ChibiOS/os/rt/ports/ARMCMx/compilers/GCC/chtypes.h"
 705              		.file 7 "../ChibiOS/os/rt/include/chsystypes.h"
 706              		.file 8 "../ChibiOS/os/rt/ports/ARMCMx/chcore.h"
 707              		.file 9 "../ChibiOS/os/rt/ports/ARMCMx/chcore_v7m.h"
 708              		.file 10 "../ChibiOS/os/rt/include/chtm.h"
 709              		.file 11 "../ChibiOS/os/rt/include/chmtx.h"
 710              		.file 12 "../ChibiOS/os/rt/include/chsys.h"
 711              		.file 13 "../ChibiOS/os/ext/CMSIS/include/core_cm3.h"