ARM GAS  /tmp/cccdc3nd.s 			page 1


   1              		.syntax unified
   2              		.cpu cortex-m3
   3              		.fpu softvfp
   4              		.eabi_attribute 20, 1
   5              		.eabi_attribute 21, 1
   6              		.eabi_attribute 23, 3
   7              		.eabi_attribute 24, 1
   8              		.eabi_attribute 25, 1
   9              		.eabi_attribute 26, 1
  10              		.eabi_attribute 30, 2
  11              		.eabi_attribute 34, 1
  12              		.eabi_attribute 18, 4
  13              		.thumb
  14              		.file	"chtm.c"
  15              		.text
  16              	.Ltext0:
  17              		.section	.gnu.lto_.jmpfuncs.f5d97b68582853c5,"",%progbits
  18 0000 789C6362 		.ascii	"x\234cb`d`g\300\016\004\2404+\003###\023#3P)#\003\013"
  18      60646067 
  18      C00E04A0 
  18      342B0323 
  18      23231323 
  19 001a 33030004 		.ascii	"3\003\000\004n\0002"
  19      6E0032
  20              		.text
  21              		.section	.gnu.lto_.inline.f5d97b68582853c5,"",%progbits
  22 0000 789C6362 		.ascii	"x\234cb`d\340e\300\016\022\2414+\003\003'\007#\003\023"
  22      6064E065 
  22      C00E12A1 
  22      342B0303 
  22      27072303 
  23 0015 DB073D06 		.ascii	"\333\007=\006\236\011~L@-\254,\014\014L\314;\304\031"
  23      9E097E4C 
  23      402DAC2C 
  23      0C0C4CCC 
  23      3BC419
  24 0028 D83BD499 		.ascii	"\330;\324\231\030\230\030$\305\200|\205\236\207\214"
  24      18981824 
  24      C5807C85 
  24      9E878C
  25 0037 0C424B0A 		.ascii	"\014BK\012\230\030\230%\004\024\201\032\204.\36402\260"
  25      98189825 
  25      0414811A 
  25      842EF430 
  25      32B0
  26 0049 2D9007AA 		.ascii	"-\220\007\252\340f\000\352\202\220,\014\022\242@\325"
  26      E06600EA 
  26      82902C0C 
  26      12A240D5 
  27 0059 B2574E32 		.ascii	"\262WN22\010\367T010\000\000r\305\014\302"
  27      3208F754 
  27      30313000 
  27      0072C50C 
  27      C2
  28              		.text
  29              		.section	.gnu.lto_.pureconst.f5d97b68582853c5,"",%progbits
  30 0000 789C6362 		.ascii	"x\234cb`d`f``\340f\200\000V\006)F)&)f\011\026)\000\004"
ARM GAS  /tmp/cccdc3nd.s 			page 2


  30      60646066 
  30      6060E066 
  30      80005606 
  30      29462926 
  31 001b 6300A1   		.ascii	"c\000\241"
  32              		.text
  33              		.section	.gnu.lto_chTMObjectInit.f5d97b68582853c5,"",%progbits
  34 0000 789C8D91 		.ascii	"x\234\215\221=K\003A\020\206\337w\367\022\323i{ \030"
  34      3D4B0341 
  34      1086DF77 
  34      F712D369 
  34      7B2018
  35 0013 422A85DB 		.ascii	"B*\205\333\326\336\306N\242X\252\220\343\340R\004%\271"
  35      D6DEC64E 
  35      A258AA90 
  35      E3E05204 
  35      25B9
  36 0025 FECE8F1F 		.ascii	"\376\316\217\037\020\354\324\024bz\377B\254\203\304"
  36      10ECD414 
  36      627AFF42 
  36      AC83C4
  37 0034 C6D2C242 		.ascii	"\306\322\302B\254,-\2058s\361+\230@f\031f\226\235\347"
  37      AC2C2D85 
  37      3873F12B 
  37      98406619 
  37      66969DE7 
  38 0048 DD995D03 		.ascii	"\335\231]\003\312\372o\276\370\203\034T$\322\202\246"
  38      CAFA6FBE 
  38      F8831C54 
  38      24D282A6 
  39 0058 33048ECB 		.ascii	"3\004\216\313\206\324D\220\3240\335\035\223\203~\317"
  39      86D44490 
  39      D430DD1D 
  39      93837ECF 
  40 0068 BD778B7D 		.ascii	"\275w\213}s\367<J\253\350e\331y\3474\333\214\010\203"
  40      73F73C4A 
  40      ABE865D9 
  40      79E734DB 
  40      8C0883
  41 007b 15E280F8 		.ascii	"\025\342\200\370\270z5>\"\022eh4\360\024\224\012\224"
  41      B87A353E 
  41      22126568 
  41      34F01494 
  41      0A94
  42 008d C83D5EB3 		.ascii	"\310=^\263\252\373\002\316\262lI\201\334j\032\365\272"
  42      AAFB02CE 
  42      B26C4981 
  42      DC6A1AF5 
  42      BA
  43 009e 6D0134B1 		.ascii	"m\0014\261\003\234\254\337wo\205\270a\001kX\215h\355"
  43      039CACDF 
  43      776F85B8 
  43      61016B58 
  43      8D68ED
  44 00b1 252E18D1 		.ascii	"%.\030\3213!\351\347\222@,\276\317\237Q\")\036\211-"
  44      3321E9E7 
  44      92402CBE 
ARM GAS  /tmp/cccdc3nd.s 			page 3


  44      CF9F5122 
  44      291E892D 
  45 00c5 6AB322F1 		.ascii	"j\263\"\3618\267\004\377J\340\013\177\232\0337\323\360"
  45      38B704FF 
  45      4AE00B7F 
  45      9A1B37D3 
  45      F0
  46 00d6 9749BC38 		.ascii	"\227I\2748\033\267\323\360\267I|a6\356\375\342\245<"
  46      1BB7D3F0 
  46      B7497C61 
  46      36EEFDE2 
  46      A53C
  47 00e8 1B82F24F 		.ascii	"\033\202\362Oc\370\333j:\243\274\255\266\272\034\004"
  47      63F8DB6A 
  47      3AA3BCAD 
  47      B6BA1C04 
  48 00f8 6E236ED4 		.ascii	"n#n\324\033[;\356\260\355Z\211k\267B\027\306I3\010a"
  48      1B5B3BEE 
  48      B0ED5A89 
  48      6BB74217 
  48      C6493308 
  49 010d 93E6D127 		.ascii	"\223\346\321'\006\275_Y"
  49      06BD5F59 
  50              		.text
  51              		.section	.gnu.lto_chTMStartMeasurementX.f5d97b68582853c5,"",%progbits
  52 0000 789C6D50 		.ascii	"x\234mPAK\002A\030}\337\214n\235\322\253\020(\341)a"
  52      414B0241 
  52      187DDF8C 
  52      6E9DD2AB 
  52      1028E129 
  53 0015 F7D839BC 		.ascii	"\367\3309\274\330\301B\243K`B\313\302zX\224u\211n\216"
  53      D8C142A3 
  53      4B6042CB 
  53      C27A5894 
  53      75896E8E 
  54 0029 E60F906E 		.ascii	"\346\017\220nz\020\305[\207~@\227\242\242\303\036<w"
  54      7A10C55B 
  54      877E4097 
  54      A2A2C31E 
  54      3C77
  55 003b E8200421 		.ascii	"\350 \004!\375\011\373f\225H\354\033f\336\307\314{o"
  55      FD09FB66 
  55      9548EC1B 
  55      66DEC7CC 
  55      7B6F
  56 004d 1E9F00F1 		.ascii	"\036\237\000\361\332\254\024o\227\037\216\031I\202D"
  56      DAAC146F 
  56      971F8E19 
  56      498244
  57 005c 6F0AB433 		.ascii	"o\012\2643\202H7,i\011j\235EJ\332\303X\251A\357\245"
  57      8248372C 
  57      69096A9D 
  57      454ADAC3 
  57      58A941EF 
  58 0071 53E8CC16 		.ascii	"S\350\314\026\213\264\243o\253\204p\376\231H\301!B\006"
  58      8BB4A36F 
  58      AB8470FE 
ARM GAS  /tmp/cccdc3nd.s 			page 4


  58      9948C121 
  58      4206
  59 0083 1A0562EB 		.ascii	"\032\005b\353\177\314\023\037C\343Q<\315\026\255,&J"
  59      7FCC131F 
  59      43E3513C 
  59      CD16AD2C 
  59      264A
  60 0095 DDF66E54 		.ascii	"\335\366nT\301!)\220&m\360:\374\222\377\0300\003\333"
  60      C1212990 
  60      266DF03A 
  60      FC92FF18 
  60      3003DB
  61 00a8 822A34A6 		.ascii	"\202*4\246,\014Th\304\011\270\342\350*\225\324\302\250"
  61      2C0C5468 
  61      C409B8E2 
  61      E82A95D4 
  61      C2A8
  62 00ba 4A1A75D8 		.ascii	"J\032u\3302\013u#C<\237\337?\364\337\344\212\271\202"
  62      320B7523 
  62      433C9FDF 
  62      3FF4DFE4 
  62      8AB982
  63 00cd 0A4D28FE 		.ascii	"\012M(\376'\226MF\016w\252K\016\305\344\000\375v\322"
  63      27964D46 
  63      0E77AA4B 
  63      0EC5E400 
  63      FD76D2
  64 00e0 A1B8D001 		.ascii	"\241\270\320\001\014\250\221R;X\366\210\006w\241\217"
  64      0CA89152 
  64      3B58F688 
  64      0677A18F 
  65 00f0 77192943 		.ascii	"w\031)Ct\216\302o\2714\314a\237'\241\015\330hK\330\024"
  65      748EC26F 
  65      B934CC61 
  65      9F27A10D 
  65      D8684BD8 
  66 0105 5968A21B 		.ascii	"Yh\242\033\311\350\3677`\012\342Q\254\007)i\006\307"
  66      C9E8F737 
  66      600AE251 
  66      AC072969 
  66      06C7
  67 0117 E6F0D835 		.ascii	"\346\360\3305M+\357\326.k'\247V\275i\371\201\325\364"
  67      4D2BEFD6 
  67      2E6B27A7 
  67      56BD69F9 
  67      81D5F4
  68 012a 6DCB7603 		.ascii	"m\313v\003\317\264!\003\257\221\333 4\352~\320\264\016"
  68      CFB42103 
  68      AF91DB20 
  68      34EA7ED0 
  68      B40E
  69 013c CBC57CF1 		.ascii	"\313\305|\361\232\231v\335w\252W\007\236\351\342\007"
  69      9A9976DD 
  69      77AA5707 
  69      9EE9E207 
  70 014c 48B96248 		.ascii	"H\271bH"
  71              		.text
ARM GAS  /tmp/cccdc3nd.s 			page 5


  72              		.section	.gnu.lto_chTMStopMeasurementX.f5d97b68582853c5,"",%progbits
  73 0000 789C9D55 		.ascii	"x\234\235UMH\033A\024~o&\273\233\177\343QhU\304\203"
  73      4D481B41 
  73      147E6F26 
  73      BB9B7FE3 
  73      516855C4 
  74 0015 5430DE7A 		.ascii	"T0\336zm\361\242\024\021\225\036\032H\205\206\225X\260"
  74      6DF1A214 
  74      11951E1A 
  74      48858695 
  74      58B0
  75 0027 2949684B 		.ascii	")IhK\017\315\032=\330\233\364b\365\242\326\376X\333"
  75      0FCD1A3D 
  75      D89BF462 
  75      F5A2D6FE 
  75      58DB
  76 0039 7A3588D0 		.ascii	"z5\210\320R\255\207 \236\004=\364 \305\202\207\034K"
  76      52AD8720 
  76      9E043DF4 
  76      20C58287 
  76      1C4B
  77 004b D38290BE 		.ascii	"\323\202\220\276\231\335\325\330T\263\315\206\3147;"
  77      99DDD5D8 
  77      54B3CD86 
  77      CC373B
  78 005a 33DF37DF 		.ascii	"3\3377\337\27473\313\000\351W\371\334\240\177\304\015"
  78      BC3733CB 
  78      00E957F9 
  78      DCA07FC4 
  78      0D
  79 006b 708B1035 		.ascii	"p\213\0205@6\265\0030\326\314\030_o\004\243\315\265"
  79      4036B503 
  79      30D6CC18 
  79      5F6F04A3 
  79      CDB5
  80 007d 1B06A393 		.ascii	"\033\006\243\223\243j6\273\230\"\032\332T\321\331\251"
  80      A36A36BB 
  80      98221ADA 
  80      54D1D9A9 
  81 008d D8CD2AA2 		.ascii	"\330\315*\242\250\320\004\031\306]\212\212\231\233r"
  81      A8D00419 
  81      C65D8A8A 
  81      999B72
  82 009c 2E7F0B2C 		.ascii	".\177\013,\030\306\263\251\215lw\366\240Tj\322E\353"
  82      18C6B3A9 
  82      8D6C77F6 
  82      A0546AD2 
  82      45EB
  83 00ae 1042BEB4 		.ascii	"\020B\276\264\030h\000\035\021\232A \003\327YW\2227"
  83      1868001D 
  83      119A4120 
  83      03D75957 
  83      9237
  84 00c0 5BC6E392 		.ascii	"[\306\343\222W\230{R\235V9\335\217b\260\026\332\341"
  84      57987B52 
  84      9D5639DD 
  84      8F62B016 
ARM GAS  /tmp/cccdc3nd.s 			page 6


  84      DAE1
  85 00d2 9ECF016D 		.ascii	"\236\317\001m~#;\311\347\215\343R\211\353\350\222\304"
  85      7E233BC9 
  85      E78DE352 
  85      89EBE892 
  85      C4
  86 00e3 AF45AF49 		.ascii	"\257E\257I\274f\021\335\016\211GJm\274\234\023^\305"
  86      BC6611DD 
  86      0E89474A 
  86      6DBC9C13 
  86      5EC5
  87 00f5 FA768B75 		.ascii	"\372v\213u\265\204\305\236\354\377X\223Z-\254\355U\265"
  87      B584C59E 
  87      ECFF5893 
  87      5A2DACED 
  87      55B5
  88 0107 165AFC42 		.ascii	"\026Z\374BRa\356'\337\\R?\262O\007\245L+,\012\205q\243"
  88      5261EE27 
  88      DF5C523F 
  88      B24F07A5 
  88      4C2B2C0A 
  89 011e 5B478541 		.ascii	"[G\205A\023\232\373\354\033\377\207\004\215\200\006"
  89      139AFBEC 
  89      1BFF8704 
  89      8D8006
  90 012d 06519CC7 		.ascii	"\006Q\234\307\026\340\030\305\367\330\012\032\275/\320"
  90      16E018C5 
  90      F7D80A1A 
  90      BD2FD0
  91 013c BB9BF01D 		.ascii	"\273\233\360\035\241\207p\231\320K\370\226\320G\270"
  91      A1877099 
  91      D04BF896 
  91      D047B8
  92 014b 44E8277C 		.ascii	"D\350'|C\030 |M\030$|EXG\370\2220D\270HXO\370\202\220"
  92      4318207C 
  92      4D18247C 
  92      455847F8 
  92      923044B8 
  93 0165 1E05260C 		.ascii	"\036\005&\014#$\014\311\247_\2408g\003dHTx\036>GV\326"
  93      23240CC9 
  93      A75FA038 
  93      67036448 
  93      54781E3E 
  94 017c 66B6B835 		.ascii	"f\266\2705\322\202(\256\220\323\323'\206Z;,\033\023"
  94      D28228AE 
  94      90D3D327 
  94      865A3B2C 
  94      1B13
  95 018e A8A3CA67 		.ascii	"\250\243\312gaf,\244\243\306\304\302\334`\314\033F\020"
  95      61662CA4 
  95      A3C6C4C2 
  95      DC60CC1B 
  95      4610
  96 01a0 CC3AC81B 		.ascii	"\314:\310\033\342\266(\366\271d\346!\033\021\207\325"
  96      E2B628F6 
  96      B964E621 
  96      1B1187D5 
ARM GAS  /tmp/cccdc3nd.s 			page 7


  97 01b0 548C216B 		.ascii	"T\214!k\207+t\030\271\004\217\320\"M/{\014\277\015\267"
  97      872B7418 
  97      B9048FD0 
  97      224D2F7B 
  97      0CBF0DB7 
  98 01c4 8E3E1C31 		.ascii	"\216>\0341/\031!\347;\221\243\362\310'kd{\311\024\336"
  98      2F1921E7 
  98      3B91A3F2 
  98      C8276B64 
  98      7BC914DE 
  99 01d8 0266D9B4 		.ascii	"\002f\331\264RH\011\260R\250D\361\003\215tp\334c\342"
  99      524809B0 
  99      52A844F1 
  99      038D7470 
  99      DC63E2
 100 01eb 5A20A5E3 		.ascii	"Z \245\343\271\273\347hq\006}\350LJ\253.5\350P\212\231"
 100      B9BBE768 
 100      71067DE8 
 100      4C4AAB2E 
 100      35E8508A 
 101 0200 81DBDEC3 		.ascii	"\201\333\336\3033y\341Q\\\243\304F1'\313UY\376\235)"
 101      3379E151 
 101      5CA3C446 
 101      3127CB55 
 101      59FE9D29 
 102 0214 B70CADDF 		.ascii	"\267\014\255\337\012m\200\321\032\033\344\306\263\243"
 102      0A6D80D1 
 102      1A1BE4C6 
 102      B3A3
 103 0222 C9EDB179 		.ascii	"\311\355\261y\030\317<'\315u\231\031\017Q\305@\277\034"
 103      18CF3C27 
 103      CD759919 
 103      0F51C540 
 103      BF1C
 104 0234 46D3F780 		.ascii	"F\323\367\200\331\345@/.g\366\230\256w\247\203\266\246"
 104      D9E5402F 
 104      2E67F698 
 104      AE77A783 
 104      B6A6
 105 0246 D7CAF6B9 		.ascii	"\327\312\366\271\\W\231\227I\236Sl\242\217\302It\253"
 105      5C579997 
 105      499E536C 
 105      A28FC249 
 105      74AB
 106 0258 FD9766B7 		.ascii	"\375\227f\267\373e\227\031\236\236}^f\360\342IL\203"
 106      FB659719 
 106      9E9E7D5E 
 106      66F0E249 
 106      4C83
 107 026a 7ED320DD 		.ascii	"~\323 \335\256\266^@r\203\347s\025\260>zD,\360\243\023"
 107      AEB65E40 
 107      7283E773 
 107      15B03E7A 
 107      442CF0A3 
 108 027f 83414B6D 		.ascii	"\203AKm<sj\272\216\364\250\2472x\325\365\211lz\243O"
 108      3C736ABA 
 108      8EF4A8A7 
ARM GAS  /tmp/cccdc3nd.s 			page 8


 108      3278D5F5 
 108      896C7AA3 
 109 0294 862D17AA 		.ascii	"\206-\027\252\266.\325\016\336\027\330\374\216\361\262"
 109      B62ED50E 
 109      DE17D8FC 
 109      8EF1B2
 110 02a3 18854E37 		.ascii	"\030\205N7\304\200\310\317z#\027\236\012\323^g\021#"
 110      C480C8CF 
 110      7A23179E 
 110      0AD35E67 
 110      1123
 111 02b5 E5496E87 		.ascii	"\345In\207\314T\241 \356\206\205J\204>\206\366T\365"
 111      CC54A120 
 111      EE86854A 
 111      843E86F6 
 111      54F5
 112 02c7 D584B432 		.ascii	"\325\204\2642\213\207\230\343e\036\353\313=\022\343"
 112      8B8798E3 
 112      651EEBCB 
 112      3D12E3
 113 02d6 E965E9F1 		.ascii	"\351e\351\361\270\2509\363\250UzT\315Km\007\220n\347"
 113      B8A839F3 
 113      A8557A54 
 113      CD4B6D07 
 113      906EE7
 114 02e9 B327A35F 		.ascii	"\263'\243_\\\"\324I[\007.ut\204\273\342#wF\372\006\303"
 114      5C22D449 
 114      5B072E75 
 114      7484BBE2 
 114      237746FA 
 115 02ff 89543899 		.ascii	"\211T8\231\016\247\222\261p,\236\036\355\210\001O\217"
 115      0EA792B1 
 115      702C9E1E 
 115      ED88014F 
 115      8F
 116 0310 DE6FAF18 		.ascii	"\336o\257\030p?\221L\247\302\327\007z\273z\037\321\310"
 116      703F914C 
 116      A7C2D707 
 116      7ABB7A1F 
 116      D1C8
 117 0322 5822A90F 		.ascii	"X\"\251\017=\270:\332\021\007~/\361PM\014\017\247\364"
 117      3DB83ADA 
 117      11077E2F 
 117      F1504D0C 
 117      0FA7F4
 118 0335 F41F636D 		.ascii	"\364\037cm\267\022"
 118      B712
 119              		.text
 120              		.section	.gnu.lto__tm_init.f5d97b68582853c5,"",%progbits
 121 0000 789CAD53 		.ascii	"x\234\255S=h\024A\024\376\276\231\333\313\217\277\225"
 121      3D681441 
 121      14FEBE99 
 121      DBCB8FBF 
 121      95
 122 0011 2422241C 		.ascii	"$\"$\034\330(\334\0266\3666\261\222\030\004\011\\\016"
 122      D828DC16 
 122      36F636B1 
ARM GAS  /tmp/cccdc3nd.s 			page 9


 122      92180409 
 122      5C0E
 123 0023 5C16EE84 		.ascii	"\\\026\356\204CI\2561\315\215\247\305\225\207\335-)"
 123      4349AE31 
 123      CD8DA7C5 
 123      9587DD2D 
 123      29
 124 0034 1203A288 		.ascii	"\022\003\242\210\026),,\342\021\301\342\010\251R^\021"
 124      16292C2C 
 124      E211C1E2 
 124      08A9525E 
 124      11
 125 0045 C295296D 		.ascii	"\302\225)m\004a\235\331\231\275s\2713\225\263\354\276"
 125      04619DD9 
 125      99BD73B9 
 125      3395B3EC 
 125      BE
 126 0056 B73BDFF7 		.ascii	"\267;\337\367\336\373\336\233\025\240\276\306\327\274"
 126      DEFBDE9B 
 126      15A0BEC6 
 126      D7BC
 127 0064 BE3F48E0 		.ascii	"\276?H\340\246\266\224\240h\037\001/\027\005i\034Mi"
 127      A6B694A0 
 127      681F012F 
 127      1705691C 
 127      4D69
 128 0076 08361E25 		.ascii	"\0106\036%LQ\300\216Ro\332\337\233K\315\2238^\010\315"
 128      4C51C08E 
 128      526FDADF 
 128      9B4BCD93 
 128      385E08CD 
 129 008a D732D1FB 		.ascii	"\3272\321\373\264{m\036!\211E\030+\220\313\3460\274"
 129      B47B6D1E 
 129      21894518 
 129      2B90CBE6 
 129      30BC
 130 009c 6EBBAD54 		.ascii	"n\273\255TKn\253\337q,CJ\201\005\032\362\240\363\225"
 130      4B6EABDF 
 130      712C434A 
 130      81051AF2 
 130      A0F395
 131 00af 96DCA563 		.ascii	"\226\334\245c\317e\331\375\316\027\376\214\362\337D"
 131      CF65D9FD 
 131      CE17FE8C 
 131      F2DF44
 132 00be F7246E00 		.ascii	"\367$n\000\227\211\022\267Y0[\036^+u\225%\356\350\367"
 132      978912B7 
 132      59305B1E 
 132      5E2B7595 
 132      25EEE8F7 
 133 00d2 B293B76C 		.ascii	"\262\223\267l\254)\376\241\216e\034\331C\363\356a\364"
 133      AC29FEA1 
 133      8E651CD9 
 133      43F3EE61 
 133      F4
 134 00e3 56E376E9 		.ascii	"V\343v\351\3416n\205\314\311\304x2B\207!\363b\023\277"
 134      E1366E85 
ARM GAS  /tmp/cccdc3nd.s 			page 10


 134      CCC9C478 
 134      32428721 
 134      F36213BF 
 135 00f7 D474C829 		.ascii	"\324t\310)Vm\237L)SI\003\2005\363x\2348\332kI\267mU"
 135      566D9F4C 
 135      29534903 
 135      8035F378 
 135      9C38DA6B 
 136 010f FE806879 		.ascii	"\376\200hy6\262\353\317+\225\366gZ\240\220\250\354w"
 136      36B2EBCF 
 136      2B95F667 
 136      5AA090A8 
 136      EC77
 137 0121 AE9FDBA1 		.ascii	"\256\237\333\241M\274\320h'\3448zg\245$uo}\246\2259"
 137      4DBCD068 
 137      27E4387A 
 137      67A52475 
 137      6F7DA695 
 138 0136 52FB5E83 		.ascii	"R\373^\203l\306\321r\252l\2045\243\274\342\312\004b"
 138      6CC6D172 
 138      AA6C8435 
 138      A3BCE2CA 
 138      0462
 139 0148 BDAEB878 		.ascii	"\275\256\270x\307:^\211\037G}H\031\362oF\232\275\377"
 139      C73A5E89 
 139      1F477D48 
 139      19F26F46 
 139      9ABDFF
 140 015b 2F746E12 		.ascii	"/tn\022z\220E\317\014\321\336$\364Y\026=;D\347G\350"
 140      7A9045CF 
 140      0CD1DE24 
 140      F459163D 
 140      3B44E747 
 141 0170 0B09FA10 		.ascii	"\013\011\372\020\271~t\312T\262\033\325E\226I\216\267"
 141      B97E74CA 
 141      54B21BD5 
 141      4596498E 
 141      B7
 142 0181 CFAC9097 		.ascii	"\317\254\220\227\022\332 \332\237D\023\347\321tm\253"
 142      12DA20DA 
 142      9F4413E7 
 142      D1746DAB 
 143 0191 67D19EE3 		.ascii	"g\321\236\343\005\344\270\364\241\210\373\351\350\377"
 143      05E4B8F4 
 143      A188FBE9 
 143      E8FF
 144 019f CBA10A8C 		.ascii	"\313\241\012\214\327\303\301S\227\333f\274\203=\325"
 144      D7C3C153 
 144      97DB66BC 
 144      833DD5
 145 01ae D2E10C02 		.ascii	"\322\341\014\002G0\377Bv\370\313\206\246\317\271\236"
 145      4730FF42 
 145      76F8CB86 
 145      A6CFB99E 
 146 01be 396E148B 		.ascii	"9n\024\213\376\275J\365I\365\301\212\377l\303_\257\373"
 146      FEBD4AF5 
 146      49F5C18A 
ARM GAS  /tmp/cccdc3nd.s 			page 11


 146      FF6CC35F 
 146      AFFB
 147 01d0 1BEB811F 		.ascii	"\033\353\201\037T\352\265b\000Q\257\311z\355\371\037"
 147      54EAB562 
 147      0051AFC9 
 147      7AEDF91F 
 148 01e0 B90ABC6C 		.ascii	"\271\012\274l"
 149              		.text
 150              		.section	.gnu.lto_chTMChainMeasurementToX.f5d97b68582853c5,"",%progbits
 151 0000 789C9D55 		.ascii	"x\234\235UAL\023A\024\375\177gw\013-\320\002'\243\002"
 151      414C1341 
 151      14FD7F67 
 151      770B2DD0 
 151      0227A302 
 152 0014 211C5092 		.ascii	"!\034P\222.z\361\252\341\2021\304\200\341 I%qSRL\260"
 152      2E7AF1AA 
 152      E18231C4 
 152      80E12049 
 152      25715352 
 153 002a A46D9493 		.ascii	"\244m\224\223]\012\207z#^\020\016\246\210\2404\306\233"
 153      5D0A877A 
 153      235E100E 
 153      A688A034 
 153      C69B
 154 003c 01954423 		.ascii	"\001\225D#\312\241!\234\232\300\301\0031h8\020O$\275"
 154      CAA1219C 
 154      9AC0C103 
 154      31683810 
 154      4F24BD
 155 004f 34A97F66 		.ascii	"4\251\177fw\241Pm7\235\246\36363\377\275y\373\377\314"
 155      77A1506D 
 155      379DA6F3 
 155      3633FFBD 
 155      79FBFFCC 
 156 0063 AC0448BF 		.ascii	"\254\004H\277\322v\213\376?]\000:!\272\000\245\231m"
 156      D2768BFE 
 156      3F5D003A 
 156      21BA00A5 
 156      996D
 157 0075 80C93649 		.ascii	"\200\3116Ib\353-`t\312Y\015\214n\206\2529,K\012\037"
 157      62EB2D60 
 157      74CA590D 
 157      8C6E86AA 
 157      392C4B0A 
 158 008a E854F964 		.ascii	"\350T\371d\267b\017\253\210\374\201\026\210KLVT\214"
 158      B7620FAB 
 158      88FC8116 
 158      884B4C56 
 158      548C
 159 009c 0F8AB5DC 		.ascii	"\017\212\265\334\355\260`\030\3633\033\211\336\304^"
 159      EDB06018 
 159      F3331B89 
 159      DEC45E
 160 00ab A1D01AE4 		.ascii	"\241\320\032\344\243\303\010\231\027\277\274\347 \210"
 160      A3C30899 
 160      17BFBCE7 
 160      2088
ARM GAS  /tmp/cccdc3nd.s 			page 12


 161 00b9 086DC051 		.ascii	"\010m\300Q\002\371\264+\301{V\304c\202w\224k\250\206"
 161      02F9B42B 
 161      C17B56C4 
 161      63827794 
 161      6BA886
 162 00cc B6BFE371 		.ascii	"\266\277\343q@Km$\222,e\344\013\005\026DY\020\177\344"
 162      404B6D24 
 162      922C65E4 
 162      0B051644 
 162      59107FE4 
 163 00e0 DC26F1BA 		.ascii	"\334&\361\272E\254qH<P\252\343\2559\341\225\274_6WU"
 163      45AC7148 
 163      3C50AAE3 
 163      AD39E195 
 163      BC5F3657 
 164 00f5 3693AE6A 		.ascii	"6\223\256jX[\253j5\264PYR~e\271\356(\255~\226\276\354"
 164      585BAB6A 
 164      35B45059 
 164      527E65B9 
 164      EE28AD7E 
 165 010c 15E21DB0 		.ascii	"\025\342\035\260\310\025\246\214\336 *\022\264\242("
 165      C815A68C 
 165      DE202A12 
 165      B4A228
 166 011b FDCA1F56 		.ascii	"\375\312\037V*\201gb;Dl\376\322?\026\243y\361?/a\000"
 166      2A816762 
 166      3B446CFE 
 166      D23F16A3 
 166      79F13F2F 
 167 0131 DF125126 		.ascii	"\337\022Q&L\023\326B\000S\330\016n\302\025B\017\341"
 167      4C13D642 
 167      0053D80E 
 167      6EC21542 
 167      0FE1
 168 0143 1BC23AC2 		.ascii	"\033\302:\302\327\204\365\204\313\204^\302%B\037\341"
 168      D784F584 
 168      CB845EC2 
 168      25421FE1 
 169 0153 2BC246C2 		.ascii	"+\302F\302E\302&\302\227\204\315\204\013\204\324\024"
 169      45C226C2 
 169      9784CD84 
 169      0B84D414 
 170 0163 98360C1F 		.ascii	"\2306\014\037\267\"Z?G~@\006\310\014\177`\031\370:\364"
 170      B7225A3F 
 170      477E4006 
 170      C80C7F60 
 170      19F83AF4 
 171 0177 FBE3DC26 		.ascii	"\373\343\334&\263\"-\010\340;rx\322t\254\355\202\264"
 171      B3222D08 
 171      E03B7278 
 171      D274ACED 
 171      82B4
 172 0189 318D4154 		.ascii	"1\215AT\331<\314M\372\202\350\222\370K\325\200\2212"
 172      D93CCC4D 
 172      FA82E892 
 172      F84BD580 
 172      9132
ARM GAS  /tmp/cccdc3nd.s 			page 13


 173 019b 8C06309F 		.ascii	"\214\0060\237A\034\355{\274\333e\202\231\201\304\315"
 173      411CED7B 
 173      BCDB6582 
 173      9981C4CD 
 174 01ab 4C7AC96B 		.ascii	"Lz\311k*v\301e:z\\\201\224j%\035\205\006_iB\360\360"
 174      2A76C165 
 174      3A7A5C81 
 174      946A251D 
 174      85065F69 
 175 01c2 7839804D 		.ascii	"x9\200M\220\016\323\017L\236UK\312\256UKJ\361\240U\216"
 175      900ED30F 
 175      4C9E554B 
 175      CAAE554B 
 175      4AF1A055 
 176 01d7 27650BAA 		.ascii	"'e\013\252\363\015]V\012$\270\353P\252\222+\222\012"
 176      F30D5D56 
 176      0A24B8EB 
 176      50AA922B 
 176      920A
 177 01e9 3892E283 		.ascii	"8\222\342\203`\347ghk\007O\245\237\005\360\003\325/"
 177      60E76768 
 177      6B074FA5 
 177      9F05F003 
 177      D52F
 178 01fb 80ABA27F 		.ascii	"\200\253\242\177/\372\263\005q\213\\\272\213r)\333\271"
 178      2FFAB305 
 178      718B5CBA 
 178      8B7229DB 
 178      B9
 179 020c 346B20D9 		.ascii	"4k \331\261\031\230\212?'\315O4\251\243\207\250<\320"
 179      B119988A 
 179      3F27CD4F 
 179      34A9A387 
 179      A83CD0
 180 021f 2DC27879 		.ascii	"-\302xy\300\234r\240\027\022+{L\327\331\331\006[\263"
 180      C09C72A0 
 180      17122B7B 
 180      4CD7D9D9 
 180      065BB3
 181 0232 AEA4AE67 		.ascii	"\256\244\256g\270X\344%\311\326\024\233XO9%\272\351"
 181      B858E425 
 181      C9D6149B 
 181      584F3925 
 181      BAE9
 182 0244 63971519 		.ascii	"c\227\025\031)/f\032\2517\215\320\345h\353y\005\327"
 182      292F661A 
 182      A9378DD0 
 182      E568EB79 
 182      05D7
 183 0256 F37F2E03 		.ascii	"\363\177.\003\353\343C\304Cvpl\304g\251M\305O\3145\222"
 183      EBE343C4 
 183      4376706C 
 183      C467A94D 
 183      C54FCC35 
 184 026b 1ECD9426 		.ascii	"\036\315\224&\251\262>\221Mot\343\333rM\225\336\353"
 184      A9B23E91 
 184      4D6F74E3 
ARM GAS  /tmp/cccdc3nd.s 			page 14


 184      DB724D95 
 184      DEEB
 185 027d 788F7C87 		.ascii	"x\217|\207o\2770T\224\243\246\223\302\017\360%\326["
 185      6FBF3054 
 185      94A3A693 
 185      C20FF025 
 185      D65B
 186 028f 18F77438 		.ascii	"\030\367t8\353v\2261RN2;e\246\012\015e5\2562D\3372{"
 186      EB769631 
 186      524E323B 
 186      65A60A0D 
 186      6535AE32 
 187 02a7 A9E64A42 		.ascii	"\251\346JBJ\221\305}\\cE\036\233\213=R\334\323\213\302"
 187      4A91C57D 
 187      5C63451E 
 187      9B8B3D52 
 187      DCD38BC2 
 188 02bb 633EE772 		.ascii	"c>\347r\346Q)\365\250\232w\3246 ]\311\247O@?\337\005"
 188      E65129F5 
 188      A89A77D4 
 188      36205DC9 
 188      A74F403F 
 189 02d1 34C937F9 		.ascii	"4\3117\371\005\277_\353\011\215\336\037\275}G\013G\265"
 189      05BF5FEB 
 189      098DDE1F 
 189      BD7D470B 
 189      47B5
 190 02e3 484C8B46 		.ascii	"HL\213FtM\017\305\306\374:\310\261\261\361+\274\273"
 190      744D0FC5 
 190      C6FC3AC8 
 190      B1B1F12B 
 190      BCBB
 191 02f5 DA551236 		.ascii	"\332U\0226\036\216\304\242\332\215\201\276\236\276\011"
 191      1E8EC4A2 
 191      DA8D81BE 
 191      9EBE09
 192 0304 8AD7C391 		.ascii	"\212\327\303\221\340\360\243kc\376\0200\"\260\207\341"
 192      E0F0A36B 
 192      63FE1030 
 192      22B087E1 
 193 0314 C76A7864 		.ascii	"\307jxd$\032\214\375\005\021\212\242t"
 193      241A8CFD 
 193      05118AA2 
 193      74
 194              		.text
 195              		.section	.gnu.lto_.cgraph.f5d97b68582853c5,"",%progbits
 196 0000 789C6362 		.ascii	"x\234cb`d`f``\210`\200\002\2465\214\365\014\014\023"
 196      60646066 
 196      60608860 
 196      8002A635 
 196      8CF50C0C 
 197 0015 CE31D4D7 		.ascii	"\3161\324\327\317\353`dZ\313X\317\210\340\255c\254g"
 197      CFEB6064 
 197      5ACB58CF 
 197      88E0AD63 
 197      AC67
 198 0027 42F05633 		.ascii	"B\360V3\3263#x\353\031\353Y\340<ffF\206G\017\377\001"
ARM GAS  /tmp/cccdc3nd.s 			page 15


 198      D6332378 
 198      EB19EB59 
 198      E03C6666 
 198      4686470F 
 199 003d 692686A6 		.ascii	"i&\206\246\2667\362\014\000\016\314\034\307"
 199      B637F20C 
 199      000ECC1C 
 199      C7
 200              		.text
 201              		.section	.gnu.lto_.vars.f5d97b68582853c5,"",%progbits
 202 0000 789C6362 		.ascii	"x\234cb`d`f```g\200\000\306\015\214\014\014\365\014"
 202      60646066 
 202      60606067 
 202      8000C60D 
 202      8C0C0CF5 
 203 0015 00062601 		.ascii	"\000\006&\001?"
 203      3F
 204              		.text
 205              		.section	.gnu.lto_.refs.f5d97b68582853c5,"",%progbits
 206 0000 789C6362 		.ascii	"x\234cb`d`f``\340a\200\000F&F\006&ff\260\030\000\002"
 206      60646066 
 206      6060E061 
 206      80004626 
 206      46062666 
 207 0019 150022   		.ascii	"\025\000\""
 208              		.text
 209              		.section	.gnu.lto_.statics.f5d97b68582853c5,"",%progbits
 210 0000 789C6362 		.ascii	"x\234cb`d`b\300\016@\342\214\020&\000\000\375\000\011"
 210      60646062 
 210      C00E40E2 
 210      8C102600 
 210      00FD0009 
 211              		.text
 212              		.section	.gnu.lto_.decls.f5d97b68582853c5,"",%progbits
 213 0000 789CAD5B 		.ascii	"x\234\255[\013p\024E\032\356\231\311\276\022\014\210"
 213      0B701445 
 213      1AEE99C9 
 213      BE120C88 
 214 0010 A2786795 		.ascii	"\242xg\225\321R\217\363\012\302\303S\274RK+\242p\202"
 214      D1528FF3 
 214      0AC2C353 
 214      BC524B2B 
 214      A27082
 215 0023 5004EFB0 		.ascii	"P\004\357\260\316\275\275\315fHV\263\217\233\235\000"
 215      CEBDBDCD 
 215      664856B3 
 215      8F9B9D00 
 216 0033 565D5D8D 		.ascii	"V]]\215D1Z\207\202\207\247\361UA\242\210\250@\300D\304"
 216      44315A87 
 216      8287A7F1 
 216      5541A288 
 216      A840C044 
 217 0048 032C4310 		.ascii	"\003,C\020\015*\230\004\321(\010\361\001\027\005!F\224"
 217      0D2A9804 
 217      D12808F1 
 217      01170521 
 217      4694
ARM GAS  /tmp/cccdc3nd.s 			page 16


 218 005a 40AEFB9F 		.ascii	"@\256\373\237\231\236\236\335\231\314\316\306\251\314"
 218      999E9EDD 
 218      99CCCEC6 
 218      A9CC
 219 0068 BF33D3DD 		.ascii	"\2773\323\335\337\377\354\356\277{&<\342\0209\346\362"
 219      DFFFECEE 
 219      BF7B263C 
 219      E21039E6 
 219      F2
 220 0079 080DE0E3 		.ascii	"\010\015\340\343\254k\021Z\350E\010\377\241\353\220"
 220      AC6B115A 
 220      E84508FF 
 220      A1EB90
 221 0088 7178F059 		.ascii	"qx\360Y\217\317\035\370\334\205\317=\370\354\304'i\375"
 221      8FCF1DF8 
 221      DC85CF3D 
 221      F8ECC427 
 221      69FD
 222 009a 05321FA4 		.ascii	"\0052\037\244^\000\237+\361Y\210\317a\370\\\203\317"
 222      5E009F2B 
 222      F15988CF 
 222      61F85C83 
 222      CF
 223 00ab 067CFAF0 		.ascii	"\006|\372\360\331\214\3177\265:\004\367%|6\342s#>\233"
 223      D98CCF37 
 223      B53A04F7 
 223      257C36E2 
 223      73233E9B 
 224 00bf F0B959C3 		.ascii	"\360\271Y\303\255G\231\007\341\357\327\360tl\302g7n"
 224      AD479907 
 224      E1EFD7F0 
 224      746CC267 
 224      376E
 225 00d1 B0079F7E 		.ascii	"\260\007\237~^\345\203\177\320>N\305\344\264v\351\007"
 225      5EE5837F 
 225      D03E4EC5 
 225      E4B476E9 
 225      07
 226 00e2 D163B826 		.ascii	"\321c\270&\023+g\300\002\363-\374{\220\224\361\252\374"
 226      132B67C0 
 226      02F32DFC 
 226      7B9094F1 
 226      AAFC
 227 00f4 0D9A0E7E 		.ascii	"\015\232\016~\215\3176|\266r\252\374\0335\035\0325\335"
 227      8DCF367C 
 227      B672AAFC 
 227      1B351D1A 
 227      35DD
 228 0106 388D9795 		.ascii	"8\215\227\225\255\366h\274Y\031\03249X\236+\323\354"
 228      ADF668BC 
 228      59191A34 
 228      39589E2B 
 228      D3EC
 229 0118 968F9FAD 		.ascii	"\226\217\237\255\320\332\351\274\255\354(h<t\277Y\311"
 229      D0DAE9BC 
 229      ADEC2868 
 229      3C74BF59 
ARM GAS  /tmp/cccdc3nd.s 			page 17


 229      C9
 230 0129 D0C9E8AE 		.ascii	"\320\311\350\256\313\340\263\261C\003#\207\227\261\261"
 230      CBE0B3B1 
 230      43032387 
 230      97B1B1
 231 0138 CE8FD5B9 		.ascii	"\316\217\325\271\323\302\346\027\241g\225\003\307\226"
 231      D3C2E617 
 231      A1679503 
 231      C796
 232 0146 D628534F 		.ascii	"\326(SO\016\014<0\342<\364\230\202\217\372\305\212\302"
 232      0E0C3C30 
 232      E23CF498 
 232      828FFAC5 
 232      8AC2
 233 0158 C941EEBA 		.ascii	"\311A\356\272Q\350\002\024\344\0121\347\"\270\032\206"
 233      51E80214 
 233      E40A31E7 
 233      22B81A86 
 234 0168 AFF2A061 		.ascii	"\257\362\240a\220[\301\235\007W\0028\027\025\240\207"
 234      905BC19D 
 234      07570238 
 234      1715A087 
 235 0178 14651169 		.ascii	"\024e\021i:\365\235\302\221h\031\301)\252=\204\031\353"
 235      3AF59DC2 
 235      916819C1 
 235      29AA3D84 
 235      19EB
 236 018a 10D82E3A 		.ascii	"\020\330.:\306h\334\3402\324\240(Kq-.\3105p#1\012\317"
 236      C668DCE0 
 236      32D4A028 
 236      4B712D2E 
 236      C8357023 
 237 01a1 A12BD06A 		.ascii	"\241+\320j\005\016\265\033h\275\001\215B\307\017o\270"
 237      050EB51B 
 237      68BD018D 
 237      42C70F6F 
 237      B8
 238 01b2 50BDCE06 		.ascii	"P\275\316\006\233\310\367\"\306\014r\253\270+TN\212"
 238      9BC8F722 
 238      C60C72AB 
 238      B82B544E 
 238      8A
 239 01c3 CA893C45 		.ascii	"\312\211<E\332\363\226\272y\026&\361\\\214\352\261&"
 239      DAF396BA 
 239      791626F1 
 239      5C8CEAB1 
 239      26
 240 01d4 C426DE00 		.ascii	"\304&\336\000\2525\224B6\306`\025Y\303\005\260\"\327"
 240      AA359442 
 240      36C66015 
 240      59C305B0 
 240      22D7
 241 01e6 711A87A6 		.ascii	"q\032\207\246\177=\325\252u[\327P\257\002\324?(\324"
 241      7F3DD5AA 
 241      755BD750 
 241      AF02D43F 
 241      28D4
ARM GAS  /tmp/cccdc3nd.s 			page 18


 242 01f8 F2DDADC5 		.ascii	"\362\335\255\305H\323\315\027`%\206{\265\226\012\254"
 242      48D3CD17 
 242      6025867B 
 242      B5960AAC 
 243 0208 16EB5764 		.ascii	"\026\353Wd\034\031\216\3347\340\321\3778N3\344\361\272"
 243      1C198EDC 
 243      37E0D1FF 
 243      384E33E4 
 243      F1BA
 244 021a 0D6D82B5 		.ascii	"\015m\202\265\314\372\265z\350u\264\203\261\245n\234"
 244      CCFAB57A 
 244      E875B483 
 244      B1A56E9C 
 245 022a 6314B4FD 		.ascii	"c\024\264\375\0027\210E\266\210}\024\261\313\001\321"
 245      02378845 
 245      B6887D14 
 245      B1CB01D1 
 246 023a EF20A36B 		.ascii	"\357 \243k'5\203\000\2478\303\341\035\272\303U\017\346"
 246      27358300 
 246      A738C3E1 
 246      1DBAC355 
 246      0FE6
 247 024c 60F5453C 		.ascii	"`\365E<\265\372NG\253\23352\331\250\276F\251\025t\225"
 247      B5FA4E47 
 247      AB9B3532 
 247      D9A8BE46 
 247      A9157495 
 248 0260 B62D566A 		.ascii	"\266-Vj\271{\327_h\324\275\301\204\301*\365&(u\037o"
 248      B97BD75F 
 248      68D4BDC1 
 248      84C12AF5 
 248      2628751F 
 249 0275 28F54C5A 		.ascii	"(\365LZ\024\273A\333\012hK\014\264\345\337\357\270V"
 249      14BB41DB 
 249      0A684B0C 
 249      B4E5DFEF 
 249      B856
 250 0287 B74820CD 		.ascii	"\267H \315B\001\263\205\002\324B\001\315Bpp(\307V<\372"
 250      4201B385 
 250      02D44201 
 250      CD427070 
 250      28C7563C 
 251 029c 8F61DC7D 		.ascii	"\217a\334}\214q\315\342\353\327#\254\302%\363`\307\232"
 251      8C71CDE2 
 251      EBD723AC 
 251      C225F360 
 251      C79A
 252 02ae 20B79ABB 		.ascii	" \267\232\273\014y\202\334K\334\305\370\246\021\350"
 252      0C7982DC 
 252      4BDCC5F8 
 252      A611E8
 253 02bd 46A04D40 		.ascii	"F\240M@7c\232\021\331\351c\353J\256@\257\204-8G\320"
 253      37639A11 
 253      D9E963EB 
 253      4AAE40AF 
 253      842D3847 
 254 02d2 AE79B482 		.ascii	"\256y\264\202\232\361\271U\003\255^\365\361\245h\245"
ARM GAS  /tmp/cccdc3nd.s 			page 19


 254      9AF1B955 
 254      03AD5EF5 
 254      F1A568A5 
 255 02e2 A23C4A02 		.ascii	"\242<J\002Xm\311\243]P\255\236\273\010=Q`\303Ecr9z\236"
 255      586DC9A3 
 255      5D50AD9E 
 255      BB083D51 
 255      60C34563 
 256 02fa 8C8CDB16 		.ascii	"\214\214\333\026\215\206\341\036i\315*M\352\275\315"
 256      8D86E11E 
 256      69CD2A4D 
 256      EABDCD
 257 0309 F1ACBEE6 		.ascii	"\361\254\276\346I\303\257N\005<\332Meky\366\237\244"
 257      49C3AF4E 
 257      053CDA4D 
 257      656B79F6 
 257      9FA4
 258 031b 1ECC0C3C 		.ascii	"\036\314\014<\372\232\347,\305\014r\3331n\220\333A\304"
 258      FA9AE72C 
 258      C50C72DB 
 258      316E90DB 
 258      41C4
 259 032d 1CEE5A4C 		.ascii	"\034\356ZL\322\354\244`\222\363\235\254\344<F\345\354"
 259      D2ECA460 
 259      92F39DAC 
 259      E43C46E5 
 259      EC
 260 033e B9888A19 		.ascii	"\271\210\212\031\344\336\325\032\333\211\271\013\363"
 260      E4DED51A 
 260      DB89B90B 
 260      F3
 261 034b AB752FE6 		.ascii	"\253u/\346\256L1\337\317\024\263\376\200&\246\317\315"
 261      AE4C31DF 
 261      CF14B3FE 
 261      8026A6CF 
 261      CD
 262 035c 14FC9136 		.ascii	"\024\374\2216\005\033!\302\243\373\005]\273\256\272"
 262      051B21C2 
 262      A3FB055D 
 262      BBAEBA
 263 036b 5FE92C2C 		.ascii	"_\351,,\344\332\303]\224\026\304\355\203\210\365\200"
 263      E4DAC35D 
 263      9416C4ED 
 263      8388F580 
 264 037b DF8D5C7B 		.ascii	"\337\215\\{\315\251\201\026\225\246;Vh\374\374a*u\357"
 264      CDA98116 
 264      95A63B56 
 264      68FCFC61 
 264      2A75EF
 265 038e 6A2376EC 		.ascii	"j#v\354\235\302\243\027\240E'\326\342u\033\247p\231"
 265      9DC2A317 
 265      A04527D6 
 265      E2751BA7 
 265      7099
 266 03a0 8DD6D046 		.ascii	"\215\326\320F\375\277\035\334\223\366\016%\2555!\251"
 266      FDBF1DDC 
 266      93F60E25 
ARM GAS  /tmp/cccdc3nd.s 			page 20


 266      AD3521A9 
 267 03b0 E93E319B 		.ascii	"\351>1\233\356\022\264B9\260t\251R_+(J\377\300\200`"
 267      EE12B442 
 267      39B074A9 
 267      525F2B28 
 267      4AFFC080 
 268 03c5 99B328A3 		.ascii	"\231\263(\243(\347\017Isv\320<\010\011\321:j\225\343"
 268      28E70F49 
 268      7376D03C 
 268      0809D13A 
 268      6A95E3
 269 03d8 CDCD3BFE 		.ascii	"\315\315;\376\240\202g\205\305\243C\320\366K\313$\350"
 269      A0826785 
 269      C5A343D0 
 269      F64BCB24 
 269      E8
 270 03e9 4B2609EA 		.ascii	"K&\011\352\333R\367\351h\224yxa\022!\362L\365\352,\331"
 270      DB52F7E9 
 270      68947978 
 270      611221F2 
 270      4CF5EA2C 
 271 03fe 39F18091 		.ascii	"9\361\200\221q]\230&\374a\020~i\236!|G\353\365f\341"
 271      715D9826 
 271      FC61107E 
 271      699E217C 
 271      47EBF566 
 272 0413 0741E2D1 		.ascii	"\007A\342\3213\320\262\307R\364\036\223\350\035{s\021"
 272      33D0B2C7 
 272      52F41E93 
 272      E81D7B73 
 272      11
 273 0424 DD7EAE3A 		.ascii	"\335~\256:\006\222\257a$on\235f\222\274\376\006{$\036"
 273      0692AF61 
 273      246F6E9D 
 273      6692BCFE 
 273      067B241E 
 274 0438 6D869627 		.ascii	"m\206\226',%?a\222|\357{V\222\363L.b\231P\263\314\353"
 274      2C253F61 
 274      927CEF7B 
 274      5692F34C 
 274      2E629950 
 275 044f F328F79B 		.ascii	"\363(\367\233\322\3648\011z\2641z\014t\010\366\036H"
 275      D2F43809 
 275      7AB4317A 
 275      0C7408F6 
 275      1E48
 276 0461 43E25107 		.ascii	"C\342Q\007\264<e\251\307)\223\036\247-\365\030i\312"
 276      B43C65A9 
 276      C729931E 
 276      A72DF518 
 276      69CA
 277 0473 D27E84BE 		.ascii	"\322~\204\276\267\237b\366\257=\302\0155\227T1\277\242"
 277      B79F62F6 
 277      AF3DC20D 
 277      35975431 
 277      BFA2
 278 0485 986D9387 		.ascii	"\230m\223\207\226K\272\316\374jx\222\326|\233g$I\233"
ARM GAS  /tmp/cccdc3nd.s 			page 21


 278      964BBACE 
 278      FC6A7892 
 278      D67C9B67 
 278      24499B
 279 0498 869CF9FD 		.ascii	"\206\234\371\375@\325\351\333\362\370\373\327\344\232"
 279      40D5E9DB 
 279      F2F8FBD7 
 279      E49A
 280 04a6 CB2AA091 		.ascii	"\313*\240\221\036\260^{}x\324\017\034ky+G\223\247\272"
 280      1EB05E7B 
 280      7D78D40F 
 280      1C6B792B 
 280      4793A7BA 
 281 04ba A31BDBD7 		.ascii	"\243\033\333\3277=\310\316b\372\301\271\212X\236\262"
 281      373DC8CE 
 281      62FAC1B9 
 281      8A589EB2 
 282 04ca BF14D8BF 		.ascii	"\277\024\330\277\354!\354\227X\262_\302\260?\270w\331"
 282      EC21EC97 
 282      58B25FC2 
 282      B03FB877 
 282      D9
 283 04db 29CE827B 		.ascii	")\316\202{\300\216\373 \023\024\353\304e<\211\242n\017"
 283      C08EFB20 
 283      1314EBC4 
 283      653C89A2 
 283      6E0F
 284 04ed 67A8B9F2 		.ascii	"g\250\271\362'Aw\332\365\005,/\270\327\235\010\322\177"
 284      274177DA 
 284      F5052C2F 
 284      B8D79D08 
 284      D27F
 285 04ff 4BA53FB8 		.ascii	"K\245?\270\367\373\225Oz\206\032\323\2524\307(j\313"
 285      F7FB954F 
 285      7A861AD3 
 285      AA34C728 
 285      6ACB
 286 0511 B4A1AE8F 		.ascii	"\264\241\256\217T\304\023\024\261\315\001\321i}\244"
 286      54C41314 
 286      B1CD01D1 
 286      697DA4
 287 0520 23F651C4 		.ascii	"#\366Q\304vW\210\3662\376D\021\273\034\020-\223r\013"
 287      765788F6 
 287      32FE4411 
 287      BB1C102D 
 287      93720B
 288 0533 C47E8AD8 		.ascii	"\304~\212\330\355\012\321^\306\001\212\330\343\2008"
 288      ED0AD15E 
 288      C6018AD8 
 288      E38038
 289 0542 3A4B196B 		.ascii	":K\031k\274:b\257+D{\031\037\240\210\375\016\210EV2"
 289      BC3A62AF 
 289      2B447B19 
 289      1FA088FD 
 289      0E884556 
 290 0557 66C4547A 		.ascii	"f\304Tzj\367/\236v\012\036=\344\325G\217\306\366\335"
 290      6AF72F9E 
ARM GAS  /tmp/cccdc3nd.s 			page 22


 290      760A1E3D 
 290      E4D5478F 
 290      C6F6DD
 291 056a 4D3FE5D2 		.ascii	"M?\345\322\001(\326\303^c\354\253s7\366YYC\235\037\226"
 291      0128D6C3 
 291      5E63ECAB 
 291      7337F659 
 291      59439D1F 
 292 057f 53D0DED7 		.ascii	"S\320\336\327\235\346\034\347\270R1\237\246\230\375"
 292      9DE61CE7 
 292      B852319F 
 292      A698FD
 293 058e 0E738E53 		.ascii	"\016s\216S\\\231F,m\002:\360\374\266\321O0C\246\237"
 293      5C99462C 
 293      6D023AF0 
 293      FCB6D14F 
 293      3043A69F 
 294 05a2 A291F1CF 		.ascii	"\242\221\361\317\030\037iue\364h\273\332x\036\342/\303"
 294      181F6975 
 294      65F468BB 
 294      DA781EE2 
 294      2FC3
 295 05b4 742D1FA0 		.ascii	"t-\037\240\222h\327\364R]\0257xI}\253\021\326\271\265"
 295      9268D7F4 
 295      525D1537 
 295      78497DAB 
 295      11D6B9B5 
 296 05c8 7DACBCCC 		.ascii	"}\254\274\314\306\312j\303\025\016\316\035\244\363\034"
 296      C6CA6AC3 
 296      150ECE1D 
 296      A4F31C
 297 05d7 5BA48CF6 		.ascii	"[\244\214\3662\252;XJ\033\3457\300T\275\316kL\325\033"
 297      32AA3B58 
 297      4A1BE537 
 297      C054BDCE 
 297      6B4CD51B 
 298 05eb D2F633B2 		.ascii	"\322\3663\262\307j\002\254M\006\326\362\327N\363\272"
 298      C76A02AC 
 298      4D06D6F2 
 298      D74EF3BA 
 299 05fb A9D2677D 		.ascii	"\251\322g}\316<\353s\324x\234f;w\265y\364\026\323IN"
 299      CE3CEB73 
 299      D4789C66 
 299      3B77B579 
 299      F416D349 
 300 0610 189DC42C 		.ascii	"\030\235\304,n\026CFnv\334\014\272\357d\354\270\336"
 300      6E164346 
 300      6E76DC0C 
 300      BAEF64EC 
 300      B8DE
 301 0622 48799A78 		.ascii	"Hy\232x\267\312\363h7\243\316)w\352\214\031\272:\333"
 301      B7CAF368 
 301      37A3CE29 
 301      77EA8C19 
 301      BA3ADB
 302 0635 409D7D8C 		.ascii	"@\235}\214:\257\015M\235/\030u\036\373\300\225:\343"
 302      3AAF0D4D 
ARM GAS  /tmp/cccdc3nd.s 			page 23


 302      9D2F1875 
 302      1EFBC095 
 302      3AE3
 303 0647 1975D4F4 		.ascii	"\031u\324\364\355\034\364\250S\372F\304\332\316\237"
 303      ED1CF4A8 
 303      53FA46C4 
 303      DACE9F
 304 0656 83327327 		.ascii	"\2032s'\362T\317\235z\267\024\242\314#\217a\005\226"
 304      F254CF9D 
 304      7AB714A2 
 304      CC238F61 
 304      0596
 305 0668 535CE4BE 		.ascii	"S\\\344\276\357\200\345\276a,\267\331\324\241\334`\275"
 305      EF80E5BE 
 305      612CB7D9 
 305      D4A1DC60 
 305      BD
 306 0679 0758DF31 		.ascii	"\007X\3371\035jk\353X\335\350\3364'x\315N \305\204\333"
 306      1D6A6BEB 
 306      58DDE8DE 
 306      342778CD 
 306      4E20C584 
 307 068e 49D8DE33 		.ascii	"I\330\33636\372\3642r\343C\277\004\004Ny@BbX\034\253"
 307      36FAF432 
 307      72E343BF 
 307      04044E79 
 307      40426258 
 308 06a4 1F380C61 		.ascii	"\0378\014a\310\344\\\224\341\\\335\204\247)h\367\324"
 308      C8E45C94 
 308      E15CDD84 
 308      A72968F7 
 308      D4
 309 06b5 A1668FD7 		.ascii	"\241f\217\327\223\311i\261O\007\354\3329\324E\226\353"
 309      93C969B1 
 309      4F07ECDA 
 309      39D44596 
 309      EB
 310 06c6 25513BE8 		.ascii	"%Q;\350\264\304g\204\305\326!/\211\352|\206\331;\366"
 310      B4C46784 
 310      C5D6212F 
 310      89EA7C86 
 310      D93BF6
 311 06d9 E46276ED 		.ascii	"\344bv\355\340Q\275O\357\236\335\177\314!5r\267\264"
 311      E051BD4F 
 311      EF9EDD7F 
 311      CC213572 
 311      B7B4
 312 06eb 62EDF209 		.ascii	"b\355\362\011OV\343\015\324.\307\233\353Z\247\252\240"
 312      4F56E30D 
 312      D42EC79B 
 312      EB5AA7AA 
 312      A0
 313 06fc 592DD236 		.ascii	"Y-\3226@\313\317,WI\237\361\354j|\223\345j\234\313\310"
 313      40CBCF2C 
 313      57499FF1 
 313      EC6A7C93 
 313      E56A9CCB 
ARM GAS  /tmp/cccdc3nd.s 			page 24


 314 0711 6282DC00 		.ascii	"b\202\334\000\354i\222\326=\257\344\024(\231\007+b\220"
 314      EC6992D6 
 314      3DAFE414 
 314      2899072B 
 314      6290
 315 0723 DB8F530F 		.ascii	"\333\217S\017,\337\001\236nw\363\350m\352\201\266\367"
 315      2CDF019E 
 315      6E77F3E8 
 315      6DEA81B6 
 315      F7
 316 0734 BE72606A 		.ascii	"\276r`j\366A\221\311\007\012(\242n\326\354\242\230\375"
 316      F64191C9 
 316      070A28A2 
 316      6ED6ECA2 
 316      98FD
 317 0746 B7EAB5CD 		.ascii	"\267\352\265\315\3332\372\365\030\007\257\352\235\362"
 317      DB32FAF5 
 317      1807AFEA 
 317      9DF2
 318 0754 638AD835 		.ascii	"c\212\3305}p\031\307\333\"\352\306V\273\304\347\206"
 318      7D7019C7 
 318      DB22EAC6 
 318      56BBC4E7 
 318      86
 319 0765 DE33DC20 		.ascii	"\3363\334 \026e :.\261\025c3m\004\330\3740\360>b\031"
 319      1665203A 
 319      2EB11563 
 319      336D04D8 
 319      FC30F03E 
 320 077b 3C4798E0 		.ascii	"<G\230\3409sf\375\347V\301#X\330|\231_\307lo.\034\334"
 320      397366FD 
 320      E756C123 
 320      58D87C99 
 320      5FC76C6F 
 321 0792 E896B163 		.ascii	"\350\226\261c\221U\327Q\310\356\275\205\203\333\310"
 321      9155D751 
 321      C8EEBD85 
 321      83DBC8
 322 07a1 6991EAD6 		.ascii	"i\221\352\326FlW=\001]u\205_\357\252\335\235\005zp\253"
 322      466C573D 
 322      015D7585 
 322      5FEFAADD 
 322      9D057A70 
 323 07b6 C662A2FD 		.ascii	"\306b\242\375\010\023\355=8\332\205 \367-O^\361\034"
 323      0813ED3D 
 323      38DA8520 
 323      F72D4F5E 
 323      F11C
 324 07c8 05FABD11 		.ascii	"\005\372\275\021\371\366\323\367"
 324      F9F6D3F7 
 325 07d0 71538A4C 		.ascii	"qS\212Lm\320\353\316\006E&\217\331s;\314r[\3477\262"
 325      6DD0EBCE 
 325      0645268F 
 325      D9733BCC 
 325      725BE737 
 326 07e5 95DDE70C 		.ascii	"\225\335\347\014\316n\262\243\027\325\355\2607(f\367"
 326      CE6EB2A3 
ARM GAS  /tmp/cccdc3nd.s 			page 25


 326      17D5EDB0 
 326      372866F7 
 327 07f5 FB4E1D7C 		.ascii	"\373N\035|r\232\260\231\2300\243m\247\220\355\0378\015"
 327      729AB099 
 327      9830A36D 
 327      A790ED1F 
 327      380D
 328 0807 54375889 		.ascii	"T7X\211\231y\260;\233A\3564w\031\032\031\344\316\300"
 328      9979B03B 
 328      9B41EE34 
 328      77191A19 
 328      E4CEC0
 329 081a DB39055C 		.ascii	"\3339\005\\\267\010\350\003@W\001]\015t\015\320F\240"
 329      B708E803 
 329      4057015D 
 329      0D740DD0 
 329      46A0
 330 082c 6F00DD0A 		.ascii	"o\000\335\012\264\005\350>\240\007\201v\003\375\012"
 330      B405E83E 
 330      A0078176 
 330      03FD0A
 331 083b E837404F 		.ascii	"\3507@O\002\3759\233\240PGh\272\321\244\017\326d\003"
 331      02FD399B 
 331      A0504768 
 331      BAD1A40F 
 331      D66403
 332 084e B97BDC50 		.ascii	"\271{\334P\323\004\025\374^^G\354q\205h\2164\223MO0"
 332      D30415FC 
 332      5E5E47EC 
 332      7185688E 
 332      34934D4F 
 333 0863 36FD01DB 		.ascii	"6\375\001\333\224\017r}`\323~v\012\330\345\327\367\366"
 333      940F727D 
 333      60D37E76 
 333      0AD8E5D7 
 333      F7F6
 334 0875 BB3E3722 		.ascii	"\273>7\"$\327\261C\215\272\016\212\331\375\327\\\207"
 334      24D7B143 
 334      8DBA0E8A 
 334      D9FDD75C 
 334      87
 335 0886 0E7D0AA8 		.ascii	"\016}\012\250\205\001\240\213\"\366\272B\264\212bu|"
 335      8501A08B 
 335      22F6BA42 
 335      B48A6275 
 335      7C
 336 0897 3B4811DB 		.ascii	";H\021\333\366\377R;\021G(f{\310\015\242\275\224\307"
 336      F6FF523B 
 336      11472866 
 336      7BC80DA2 
 336      BD94C7
 337 08aa 29628F03 		.ascii	")b\217\003\242\345\"\335*,z\230\260\370\016\207\005"
 337      A2E522DD 
 337      2A2C7A98 
 337      B0F80E87 
 337      05
 338 08bb E67514C2 		.ascii	"\346u\024\302\342\014t\010E\200\016\007\364>\240\213"
ARM GAS  /tmp/cccdc3nd.s 			page 26


 338      E20C7408 
 338      45800E07 
 338      F43EA08B 
 339 08cb 05265CFA 		.ascii	"\005&\\\372\375\372[\254\226o\215pI{c\224M\326m\367"
 339      FDFA5BAC 
 339      966F8D70 
 339      497B6394 
 339      4DD66DF7 
 340 08df 2EE86FB4 		.ascii	".\350o\2645\371\314\212\235\012\036\022H$,\012\030Y"
 340      35F9CC8A 
 340      9D0A1E12 
 340      48242C0A 
 340      1859
 341 08f1 DBBF77CC 		.ascii	"\333\277w\314U1\235\201x\364\0044\\\"Xnm\013l\322v\252"
 341      55319D81 
 341      78F40434 
 341      5C22586E 
 341      6D0B6CD2 
 342 0907 D36ADECD 		.ascii	"\323j\336\315s\265\261n\030\344\33445\036\0055\3262"
 342      73B5B16E 
 342      18E4DC34 
 342      351E0535 
 342      D632
 343 0919 6AFC94F6 		.ascii	"j\374\224\366Jk0$\036m\205\226\217Y\352\361\230I\217"
 343      4A6B3024 
 343      1E6D8596 
 343      8F59EAF1 
 343      98498F
 344 092c CD967A78 		.ascii	"\315\226zxLa\266L a\366!\305\354\3357\364WA*\346\307"
 344      4C61B64C 
 344      2061F621 
 344      C5ECDD37 
 344      F457412A 
 345 0942 14B3FF8E 		.ascii	"\024\263\377\216\034F4\025Q\251Q\306\350\353\036e\261"
 345      1C463415 
 345      51A951C6 
 345      E8EB1E65 
 345      B1
 346 0953 32E645C6 		.ascii	"2\346E\3062#(@\372\313\332g\0042\012\035`L\374i\207"
 346      32232840 
 346      FACBDA67 
 346      04320A1D 
 346      604CFC69 
 347 0968 B627E41A 		.ascii	"\266'\344\032\253\036\260\216P\254\246\345\237m\247"
 347      AB1EB08E 
 347      50ACA6E5 
 347      9F6DA7
 348 0977 2F2484B4 		.ascii	"/$\204\264%\224`^B\011t\011%\300\022\312\374\276&\233"
 348      2594605E 
 348      42097409 
 348      25C012CA 
 348      FCBE269B 
 349 098b EA3C3A41 		.ascii	"\352<:A\315\210\263\202\316k\254\005\316)\023s\363\001"
 349      CD88B382 
 349      CE6BAC05 
 349      CE291373 
 349      F301
ARM GAS  /tmp/cccdc3nd.s 			page 27


 350 099d C10B42DA 		.ascii	"\301\013B\332\007\0048\025`?\204q^s=\017A\321\317\370"
 350      07043815 
 350      603F8471 
 350      5E733D0F 
 350      41D1CFF8 
 351 09b1 647FABB6 		.ascii	"d\177\253\266g\224\366\242\210\360\262\227\344%\301"
 351      6794F6A2 
 351      88F0B297 
 351      E425C1
 352 09c0 34179BEC 		.ascii	"4\027\233\354\231V\306\243\373\363\015\343}\3249\344"
 352      9956C6A3 
 352      FBF30DE3 
 352      7DD439E4 
 353 09d0 3D6CC87F 		.ascii	"=l\310\177\226P\314\256Or\23282\017\266;\007\271\307"
 353      9650CCAE 
 353      4F729A38 
 353      320FB63B 
 353      07B9C7
 354 09e3 05F85EE9 		.ascii	"\005\370^\351\011\030|\237\004\3724\320\006\240/\013"
 354      09187C9F 
 354      04FA34D0 
 354      06A02F0B 
 355 09f3 59642CA4 		.ascii	"Yd,\244\013R\360:\201\327F\276\336\277\374\022};\310"
 355      0B52F03A 
 355      81D746BE 
 355      DEBFFC12 
 355      7D3BC8
 356 0a06 3D45115B 		.ascii	"=E\021[\356\034Z\337V;k\220[I\021\333\273\214y\305u"
 356      EE1C5ADF 
 356      563B6B90 
 356      5B4911DB 
 356      BB8C79C5 
 357 0a1b 9433983C 		.ascii	"\2243\230<Z\236\257\217\370\355A7\210#\354\375\264\204"
 357      5A9EAF8F 
 357      F8ED4137 
 357      8823ECFD 
 357      B484
 358 0a2d F1D323D8 		.ascii	"\361\323#\330OyAn)x\345U\240k\201\256c'\314\372|}\302"
 358      4F79416E 
 358      2978E555 
 358      A06B81AE 
 358      6327CCFA 
 359 0a44 EC8E594F 		.ascii	"\354\216YOM\32638k\252\234696\302<\263*\337\350p\317"
 359      4DD63338 
 359      6BAA9C36 
 359      3936C23C 
 359      B32ADFE8 
 360 0a5a EC70B3C9 		.ascii	"\354p\263\311\321\004-\233-\347\231f\323<S\367\211\355"
 360      D1042D9B 
 360      2DE79966 
 360      D33C53F7 
 360      89ED
 361 0a6c 26C77D35 		.ascii	"&\307}5\306\270SC{\370+8K\264\217]\323[\212V*E\367\341"
 361      C6B85343 
 361      7BF82B38 
 361      4BB48F5D 
 361      D35B8A56 
ARM GAS  /tmp/cccdc3nd.s 			page 28


 362 0a84 463E87E8 		.ascii	"F>\207\350\265\362b3\343\305M\002l\213\274\301\372\354"
 362      B5F26233 
 362      E3C54D02 
 362      6C8BBCC1 
 362      FAEC
 363 0a96 43EAB396 		.ascii	"C\352\263\226\357\234VM\203mb\250Kt\365\333\217v#\016"
 363      EF9C564D 
 363      836D62A8 
 363      4B74F5DB 
 363      8F76230E 
 364 0aaa E2746E37 		.ascii	"\342tn7\177\346a\0159\344@x\013\002a\277\021\010\373"
 364      7FE6610D 
 364      39E44078 
 364      0B0261BF 
 364      1108FB
 365 0abd 8E7259C7 		.ascii	"\216rY\307\0011W\213e\014\26401\320\322\354\265\213"
 365      0131578B 
 365      650CB430 
 365      31D0D2EC 
 365      B58B
 366 0acf 80F48F8D 		.ascii	"\200\364\217\215A\014\322\266\273\331aI\235\265;[\030"
 366      410CD2B6 
 366      BBD96149 
 366      9DB53B5B 
 366      18
 367 0ae0 776E57DD 		.ascii	"wnW\335\331\312\272\363Gj\372\276-'~=8\323\344\240\356"
 367      D9CABAF3 
 367      476AFABE 
 367      2D277E3D 
 367      38D3E4A0 
 368 0af5 AC15BC67 		.ascii	"\254\025\274g\243\245\220\243\325\036\342r\370\366\366"
 368      A3A590A3 
 368      D51EE272 
 368      F8F6F6
 369 0b04 3D18987E 		.ascii	"=\030\230~\246\276hl_\277j\265GWdk\372\226l\326\337"
 369      A6BE686C 
 369      5FBF6AB5 
 369      4757646B 
 369      FA966CD6 
 370 0b19 D1EA9CB7 		.ascii	"\321\352\234\267\235EY\177\314i \357\012g\303\225\351"
 370      9D45597F 
 370      CC6920EF 
 370      0A67C395 
 370      E9
 371 0b2a 4D00D4B1 		.ascii	"M\000\324\261w\371\373Zfc\370B\277\322?a\304\223k\201"
 371      77F9FB5A 
 371      6663F842 
 371      BFD23F61 
 371      C4936B81 
 372 0b3e 61D6A73E 		.ascii	"a\326\247>\027\354D\320o\026f\353\316/\231\005\312\327"
 372      17EC44D0 
 372      6F1666EB 
 372      CE2F9905 
 372      CAD7
 373 0b50 EA02E51B 		.ascii	"\352\002\345\033X\240<\010\243\353\006\240[\200n\003"
 373      58A03C08 
 373      A3EB06A0 
ARM GAS  /tmp/cccdc3nd.s 			page 29


 373      5B806E03 
 374 0b60 BA9375F6 		.ascii	"\272\223u\366\362\002\335\266]\247\033i\337M\377\034"
 374      F202DDB6 
 374      5DA71B69 
 374      DF4DFF1C 
 375 0b70 8FF0F950 		.ascii	"\217\360\371P\240\337\010\202ij\034v\326\361\360\316"
 375      A0DF0882 
 375      696A1C76 
 375      D6F1F0CE 
 376 0b80 91B7B7D9 		.ascii	"\221\267\267\331\354\223[~V\347\241pw\246\205\305\036"
 376      EC935B7E 
 376      56E7A170 
 376      77A685C5 
 376      1E
 377 0b91 E8A28F53 		.ascii	"\350\242\217S\321\237\353\3333\260D{Q\222\005\024\221"
 377      D19FEBDB 
 377      33B0447B 
 377      51920514 
 377      91
 378 0ba2 ADC3B293 		.ascii	"\255\303\262\223v0\235\264\347\315C\303,\014~>3N\007"
 378      76309DB4 
 378      E7CD43C3 
 378      2C0C7E3E 
 378      334E07
 379 0bb5 B9DD10A0 		.ascii	"\271\335\020\240m \011i\334\377\346\241ss\314\031\322"
 379      6D200969 
 379      DCFFE6A1 
 379      7373CC19 
 379      D2
 380 0bc6 307753CC 		.ascii	"0wS\314\226\377\272\372\317\205\"[\310\217)d\233\023"
 380      96FFBAFA 
 380      CF85225B 
 380      C88F2964 
 380      9B13
 381 0bd8 A46DCE90 		.ascii	"\244m\316\220\006\271\237B\266\273\203\264\227\362+"
 381      06B99F42 
 381      B6BB83B4 
 381      97F22B
 382 0be7 0AD9E504 		.ascii	"\012\331\345\004i\273\321\220\006y\224Bv\273\203\264"
 382      69BBD190 
 382      06799442 
 382      76BB83B4 
 383 0bf7 97B28F42 		.ascii	"\227\262\217B\3668A\332~\017\260\274\306xOEz\323\266"
 383      F63841DA 
 383      7E0FB0BC 
 383      C6784F45 
 383      7AD3B6
 384 0c0a 5FA837F1 		.ascii	"_\2507\361\350\014\225\256\327\235t\366\012\327\014"
 384      E80C95AE 
 384      D79D74F6 
 384      0AD70C
 385 0c19 A331EE04 		.ascii	"\2431\356\004Y\224\245[\036\244\220-[\\A\332K\371\010"
 385      5994A55B 
 385      1EA4902D 
 385      5B5C41DA 
 385      4BF908
 386 0c2c 856C7382 		.ascii	"\205ls\202tz\235\242\315\\d\266W\337\376\331\017\377"
ARM GAS  /tmp/cccdc3nd.s 			page 30


 386      747A9DA2 
 386      CD5C64B6 
 386      57DFFED9 
 386      0FFF
 387 0c3e 47739832 		.ascii	"Gs\2302\216\331N\031\372\301\243:\252M\273;m\354\015"
 387      8ED94E19 
 387      FAC1A33A 
 387      AA4DBB3B 
 387      6DEC0D
 388 0c51 B4924276 		.ascii	"\264\222Bv9A\332\276\035J\203\\M!\273\335A\332K\271"
 388      3941DABE 
 388      1D4A835C 
 388      4D21BBDD 
 388      41DA4BB9 
 389 0c65 9642F638 		.ascii	"\226B\3668A\332o\355\353[\242\304;<\332D!{\335A\332"
 389      41DA6FED 
 389      EB5BA2C4 
 389      3B3CDA44 
 389      217BDD41 
 390 0c7a 4BF9B6D1 		.ascii	"K\371\266\321%\234 o\310\322\226;\215.\261\325\025\244"
 390      259C206F 
 390      C8D2963B 
 390      8D2EB1D5 
 390      15A4
 391 0c8c BD941F18 		.ascii	"\275\224\037\030]\302\011rj\226\266\334g\304\245;H{"
 391      5DC20972 
 391      6A96B6DC 
 391      67C4A53B 
 391      487B
 392 0c9e 290F1971 		.ascii	")\017\031q\351\0049+K[\0366\342\322\035\244\275\224"
 392      E904392B 
 392      4B5B1E36 
 392      E2D21DA4 
 392      BD94
 393 0cb0 478DB874 		.ascii	"G\215\270t\202\234k%e\346\301f\"A\256\023\247\343\347"
 393      829C6B25 
 393      65E6C166 
 393      2241AE13 
 393      A7E3E7
 394 0cc3 07B9BD90 		.ascii	"\007\271\275\220\247\355\003\372)\320\317\200\356\007"
 394      A7ED03FA 
 394      29D0CF80 
 394      EE07
 395 0cd1 FA05D043 		.ascii	"\372\005\320C@\277\004\372\015\320#@{\200~\007\3648"
 395      40BF04FA 
 395      0DD02340 
 395      7B807E07 
 395      F438
 396 0ce3 D05EA07D 		.ascii	"\320^\240}@O\002\375\031h?\3203@\225<\330\306\006z\037"
 396      404F02FD 
 396      19683FD0 
 396      3340953C 
 396      D8C6067A 
 397 0cf8 D0C57934 		.ascii	"\320\305y4KL\333p\"\331\227\375\270V\233W`\323\216\374"
 397      4B4CDB70 
 397      22D997FD 
 397      B8569B57 
ARM GAS  /tmp/cccdc3nd.s 			page 31


 397      60D38EFC 
 398 0d0c 4F887DBB 		.ascii	"O\210}\273\007m\333\221\377z\262o\367\220\321\016\215"
 398      076DDB91 
 398      FF7AB26F 
 398      F790D10E 
 398      8D
 399 0d1d 94A33131 		.ascii	"\224\24311\024\023\303\251jI\214\211q9${o\271\355\366"
 399      1413C3A9 
 399      6A498C89 
 399      7139247B 
 399      6FB9EDF6 
 400 0d31 A2125434 		.ascii	"\242\022T4n\\qIe\264,:\263\2648\221*\226\344\342h<R"
 400      6E5C7149 
 400      65B42C3A 
 400      B3B43891 
 400      2A96E4E2 
 401 0d48 555D2E16 		.ascii	"U].\026G*\345\330\270J\344\223\344\010\251\177UF\305"
 401      472AE5D8 
 401      B84AE493 
 401      E408A97F 
 401      5546C5
 402 0d5b 64429253 		.ascii	"dB\222S\3057\316\236Q2caq$\021KF\253D)U|KI\011i{ORL"
 402      C537CE9E 
 402      51326361 
 402      7124114B 
 402      46AB4429 
 403 0d79 E1E6FEEA 		.ascii	"\341\346\376\352h\\\23641$\213\305\225\211\230X\\\025"
 403      685C9E34 
 403      31248BC5 
 403      95899858 
 403      5C15
 404 0d8b C612C423 		.ascii	"\306\022\304#\"i7\226T-\213\306\2131tU\264\254\270\""
 404      22693796 
 404      542D8BC6 
 404      8B317455 
 404      B4ACB822 
 405 0d9f 12290E4B 		.ascii	"\022)\016K\261\261\361D\\\034+\206\313\242\305W\216"
 405      B1B1F144 
 405      5C1C2B86 
 405      CBA2C557 
 405      8E
 406 0db0 BB7ADC95 		.ascii	"\273z\334\225\244\230\376\231\313uYSr9f\203\331\345"
 406      A498FE99 
 406      CB755953 
 406      72396683 
 406      D9E5
 407 0dc2 958929D9 		.ascii	"\225\211)\331\263 !\245\344\274\252pJ\366V\203\360\\"
 407      B32021A5 
 407      E4BCAA70 
 407      4AF65683 
 407      F05C
 408 0dd4 DC2FC960 		.ascii	"\334/\311`\003\031\004\272\352\312\220\234\037\251\216"
 408      031904BA 
 408      EACA909C 
 408      1FA98E
 409 0de3 555785E5 		.ascii	"UW\205\345\350|\2610R9g\306\314\262\273\304\210<-\036"
 409      E87CB130 
ARM GAS  /tmp/cccdc3nd.s 			page 32


 409      523967C6 
 409      CCB2BBC4 
 409      883C2D1E 
 410 0df7 952FCC50 		.ascii	"\225/\314P5%ET{D\220 \307\222\243H\375R9,\3113\014\223"
 410      35254554 
 410      7B449020 
 410      C792A348 
 410      FD52392C 
 411 0e0f CEF5C713 		.ascii	"\316\365\307\023\321xU4.\236\253\026'\222\246\322\220"
 411      D1785534 
 411      2E9EAB16 
 411      2792A6D2 
 411      90
 412 0e20 1C0B4531 		.ascii	"\034\013E1\372\371\244\264\2442\034\2153\305s\022s\363"
 412      FAF9A4B4 
 412      A4321C8D 
 412      33C57312 
 412      73F3
 413 0e32 30F00442 		.ascii	"0\360\004B&\026D*C\251{R\262\030\013\311\227\017\342"
 413      2616442A 
 413      43A97B52 
 413      B2180BC9 
 413      970FE2
 414 0e45 1F524733 		.ascii	"\037RG3s\2006\271d\260\006\221\312r\\y\230$\206\313"
 414      738036B9 
 414      64B00691 
 414      CA725C79 
 414      982486CB 
 415 0e59 EF095545 		.ascii	"\357\011UES\3304g\341\226\306\375p\271\222\334\244B"
 415      53D83467 
 415      E196C6FD 
 415      70B992DC 
 415      A442
 416 0e6b 7FAF16AB 		.ascii	"\177\257\026\253\261\265F\340R\323#\277z\027\222\003"
 416      B1B546E0 
 416      52D323BF 
 416      7A179203 
 417 0e7b B4C49B0C 		.ascii	"\264\304\233\014\305\305\2052\376IJ\342|\237\234\224"
 417      C5C58532 
 417      FE494AE2 
 417      7C9F9C94 
 418 0e8b A289907A 		.ascii	"\242\211\220z\033M\370\"\211\270\214K\177\343\020>\225"
 418      1B4DF822 
 418      89B88C4B 
 418      7FE3103E 
 418      95
 419 0e9c 91842462 		.ascii	"\221\204$b\331\012\310cl'9\"/\374]6mB\363\257&a\352"
 419      D90AC863 
 419      6C273922 
 419      2FFC5D36 
 419      6D42F3AF 
 420 0eb3 97C40A1C 		.ascii	"\227\304\012\034\033!\231\227\256\344\245\337\363\322"
 420      1B219997 
 420      AEE4A5DF 
 420      F3D2
 421 0ec1 55BC7435 		.ascii	"U\274t5/M\346\245k\004i\302x|N\340\253$\3743\311\223"
 421      2F4DE6A5 
ARM GAS  /tmp/cccdc3nd.s 			page 33


 421      6B0469C2 
 421      787C4EE0 
 421      AB24FC33 
 422 0ed7 0C616C1F 		.ascii	"\014al\037\021z\201(\341\337DU\271(\345E*\303\022\321"
 422      117A8128 
 422      E1DF4455 
 422      B928E545 
 422      2AC312D1 
 423 0eeb 241CC33A 		.ascii	"$\034\303:\246\344\260\214\265\367\221X\231\214\177"
 423      A6E4B08C 
 423      B5F79158 
 423      998C7F
 424 0efa 932178E2 		.ascii	"\223!x\342\223c\211r\021\356\347U\205+R>Y\022\347\245"
 424      93638972 
 424      11EEE755 
 424      852B523E 
 424      5912E7A5 
 425 0f0e 405772E1 		.ascii	"@Wr\341\211\245*p\241\026\360^\251\374\036\374\300/"
 425      89A52A70 
 425      A116F05E 
 425      A9FC1EFC 
 425      C02F
 426 0f20 2E8CCA11 		.ascii	".\214\312\021\334\314\273@N\224\335\225,\020\347c\177"
 426      DCCCBB40 
 426      4E94DD95 
 426      2C10E763 
 426      7F
 427 0f31 C7C2A9BB 		.ascii	"\307\302\251\273q\025q\001\271\020\222\241\352B\335"
 427      71157101 
 427      B91092A1 
 427      EA42DD
 428 0f40 CAAA5786 		.ascii	"\312\252W\2063v'O\002\311\320\202pT\216\306+\362\223"
 428      3376274F 
 428      02C9D082 
 428      70548EC6 
 428      2BF293
 429 0f53 218C0ABE 		.ascii	"!\214\012\276\360\300%~ &\3058\356\000\025\236X5\266"
 429      F0C0257E 
 429      2026C538 
 429      EE00159E 
 429      5835B6
 430 0f66 F5C58344 		.ascii	"\365\305\203D@L^H\372tLu&\376M,\210c#@;,O\014<\211\231"
 430      404C5E48 
 430      FA744C75 
 430      26FE4D2C 
 430      88632340 
 431 0f81 E17A846D 		.ascii	"\341z\204m>Q,\\\005\216\304\017\223\211D\225OR\333z"
 431      3E512C5C 
 431      058EC40F 
 431      93894495 
 431      4F52DB7A 
 432 0f95 25F0AF47 		.ascii	"%\360\257G\002kJ\2325%\325"
 432      026B4A9A 
 432      3525D5
 433 0fa0 9A01FCB4 		.ascii	"\232\001\374\264Z\302\035]\366H\004g\324\374\250$W\207"
 433      5AC21D5D 
 433      F6480467 
ARM GAS  /tmp/cccdc3nd.s 			page 34


 433      D4FCA824 
 433      5787
 434 0fb2 AB42A40F 		.ascii	"\253B\244\017J\272\222\347a%-\012\206\233\236\2511h"
 434      4ABA92E7 
 434      61252D0A 
 434      869B9EA9 
 434      3168
 435 0fc4 7AE49B2F 		.ascii	"z\344\233/\203\234\344\227\204\\\200D\276\321\271'\\"
 435      839CE497 
 435      845C8044 
 435      BED1B927 
 435      5C
 436 0fd5 852F7051 		.ascii	"\205/pQ\271X%\207\361\305\274\352x$\004\225\311\225"
 436      B9582587 
 436      F1C5BCEA 
 436      78240495 
 436      C995
 437 0fe7 97340A4B 		.ascii	"\2274\012K\005\370\207\014\020\244\035~D\370\026j}\256"
 437      05F8870C 
 437      10A41D7E 
 437      44F8166A 
 437      7DAE
 438 0ff9 5C2CABAE 		.ascii	"\\,\253\256P]\300"
 438      505DC0
 439 1000 3E0924C3 		.ascii	">\011$\303\361h\204X\\(/\253\310\217\341\016\254zh\004"
 439      F1688458 
 439      5C282FAB 
 439      C88FE10E 
 439      AC7A6804 
 440 1014 EED89130 		.ascii	"\356\330\2210\036\300$<\230$\342\330\214\211y\363R\242"
 440      1EC0243C 
 440      9824E2D8 
 440      8C8979F3 
 440      52A2
 441 1026 CCCBB1FC 		.ascii	"\314\313\261\374\224|7.\251\300\017\013\243\345U\242"
 441      947C372E 
 441      A9C00F0B 
 441      A3E555A2 
 442 1036 E653EC4B 		.ascii	"\346S\354K>R\351\277\351\317sBsp\007N\213s\254Yq\311"
 442      3E52E9BF 
 442      E9CF7342 
 442      7370074E 
 442      8B73AC59 
 443 104c 8CD269A5 		.ascii	"\214\322i\245\206\337H\234Gb\223\310\000W2g\366to\311"
 443      86DF489C 
 443      476293C8 
 443      00573267 
 443      F6746FC9 
 444 1060 1D2525B7 		.ascii	"\035%%\267\315\361\226\314\232F~\246\314%w\376\322\351"
 444      CDF196CC 
 444      9A467EA6 
 444      CC2577FE 
 444      D2E9
 445 1072 53A6CC22 		.ascii	"S\246\314\"\367\323Ko\307?\276\233gN\277\011\377\346"
 445      F7D34B6F 
 445      C73FBE9B 
 445      674EBF09 
ARM GAS  /tmp/cccdc3nd.s 			page 35


 445      FFE6
 446 1084 CD2A299D 		.ascii	"\315*)\235\355)\2319c\326x\317\214\033Ko\035\037\270"
 446      ED299939 
 446      63D678CF 
 446      8C1B4B6F 
 446      1D1FB8
 447 1097 F9F6DB4A 		.ascii	"\371\366\333J\346L\233y\333\370\300\354)\245Sf\377i"
 447      E64C9B79 
 447      DBF8C0EC 
 447      29A55366 
 447      FF69
 448 10a9 CA4DE3A1 		.ascii	"\312M\343\241|\002\224O\240\345\023h\371\004(\237\010"
 448      7C02944F 
 448      A0E51368 
 448      F904289F 
 448      08
 449 10ba E51369F9 		.ascii	"\345\023i\371DZ>\021\312'A\371$Z>\351\377\246\3067\344"
 449      445A3E11 
 449      CA2741F9 
 449      245A3EE9 
 449      FFA6C637 
 450              		.text
 451              		.section	.gnu.lto_.symtab.f5d97b68582853c5,"",%progbits
 452 0000 6368544D 		.ascii	"chTMObjectInit\000\000\000\000\000\000\000\000\000\000"
 452      4F626A65 
 452      6374496E 
 452      69740000 
 452      00000000 
 453 0018 0000A000 		.ascii	"\000\000\240\000\000\000chTMStartMeasurementX\000\000"
 453      00006368 
 453      544D5374 
 453      6172744D 
 453      65617375 
 454 0035 00000000 		.ascii	"\000\000\000\000\000\000\000\000\000\000\307\000\000"
 454      00000000 
 454      0000C700 
 454      00
 455 0042 00636854 		.ascii	"\000chTMStopMeasurementX\000\000\000\000\000\000\000"
 455      4D53746F 
 455      704D6561 
 455      73757265 
 455      6D656E74 
 456 005e 00000000 		.ascii	"\000\000\000\000\000\315\000\000\000_tm_init\000\000"
 456      00CD0000 
 456      005F746D 
 456      5F696E69 
 456      740000
 457 0071 00000000 		.ascii	"\000\000\000\000\000\000\000\000\000\000\322\000\000"
 457      00000000 
 457      0000D200 
 457      00
 458 007e 00636854 		.ascii	"\000chTMChainMeasurementToX\000\000\000\000\000\000"
 458      4D436861 
 458      696E4D65 
 458      61737572 
 458      656D656E 
 459 009c 00000000 		.ascii	"\000\000\000\000\000\000\326\000\000\000ch\000\000\002"
ARM GAS  /tmp/cccdc3nd.s 			page 36


 459      0000D600 
 459      00006368 
 459      000002
 460 00ab 00000000 		.ascii	"\000\000\000\000\000\000\000\000\000\341\000\000\000"
 460      00000000 
 460      00E10000 
 460      00
 461              		.text
 462              		.section	.gnu.lto_.opts,"",%progbits
 463 0000 272D6444 		.ascii	"'-dD''-mcpu=cortex-m3''-mno-thumb-interwork''-mthum"
 463      27272D6D 
 463      6370753D 
 463      636F7274 
 463      65782D6D 
 464 0033 6227272D 		.ascii	"b''-ggdb''-g3''-O2''-fomit-frame-pointer''-falign-f"
 464      67676462 
 464      27272D67 
 464      3327272D 
 464      4F322727 
 465 0066 756E6374 		.ascii	"unctions=16''-ffunction-sections''-fdata-sections''"
 465      696F6E73 
 465      3D313627 
 465      272D6666 
 465      756E6374 
 466 0099 2D666E6F 		.ascii	"-fno-common''-flto'\000"
 466      2D636F6D 
 466      6D6F6E27 
 466      272D666C 
 466      746F2700 
 467              		.text
 468              		.cfi_sections	.debug_frame
 469              		.section	.text.chTMObjectInit,"ax",%progbits
 470              		.align	2
 471              		.p2align 4,,15
 472              		.global	chTMObjectInit
 473              		.thumb
 474              		.thumb_func
 475              		.type	chTMObjectInit, %function
 476              	chTMObjectInit:
 477              	.LFB172:
 478              		.file 1 "../ChibiOS/os/rt/src/chtm.c"
 479              		.loc 1 95 0
 480              		.cfi_startproc
 481              		@ args = 0, pretend = 0, frame = 0
 482              		@ frame_needed = 0, uses_anonymous_args = 0
 483              		@ link register save eliminated.
 484              	.LVL0:
 485              		.loc 1 101 0
 486 0000 0022     		movs	r2, #0
 487 0002 0023     		movs	r3, #0
 488 0004 C0E90423 		strd	r2, [r0, #16]
 489              		.loc 1 98 0
 490 0008 0023     		movs	r3, #0
 491              		.loc 1 97 0
 492 000a 4FF0FF32 		mov	r2, #-1
 493              		.loc 1 98 0
 494 000e 80E80C00 		stmia	r0, {r2, r3}
ARM GAS  /tmp/cccdc3nd.s 			page 37


 495              		.loc 1 99 0
 496 0012 8360     		str	r3, [r0, #8]
 497              		.loc 1 100 0
 498 0014 C360     		str	r3, [r0, #12]
 499 0016 7047     		bx	lr
 500              		.cfi_endproc
 501              	.LFE172:
 502              		.size	chTMObjectInit, .-chTMObjectInit
 503 0018 AFF30080 		.section	.text.chTMStartMeasurementX,"ax",%progbits
 503      AFF30080 
 504              		.align	2
 505              		.p2align 4,,15
 506              		.global	chTMStartMeasurementX
 507              		.thumb
 508              		.thumb_func
 509              		.type	chTMStartMeasurementX, %function
 510              	chTMStartMeasurementX:
 511              	.LFB173:
 512              		.loc 1 112 0
 513              		.cfi_startproc
 514              		@ args = 0, pretend = 0, frame = 0
 515              		@ frame_needed = 0, uses_anonymous_args = 0
 516              		@ link register save eliminated.
 517              	.LVL1:
 518              	.LBB14:
 519              	.LBB15:
 520              		.file 2 "../ChibiOS/os/rt/ports/ARMCMx/chcore_v7m.h"
 521              		.loc 2 547 0
 522 0000 4FF48053 		mov	r3, #4096
 523 0004 CEF20003 		movt	r3, 57344
 524 0008 5968     		ldr	r1, [r3, #4]
 525              	.LBE15:
 526              	.LBE14:
 527              		.loc 1 114 0
 528 000a 8160     		str	r1, [r0, #8]
 529 000c 7047     		bx	lr
 530              		.cfi_endproc
 531              	.LFE173:
 532              		.size	chTMStartMeasurementX, .-chTMStartMeasurementX
 533 000e 00BF     		.section	.text.chTMStopMeasurementX,"ax",%progbits
 534              		.align	2
 535              		.p2align 4,,15
 536              		.global	chTMStopMeasurementX
 537              		.thumb
 538              		.thumb_func
 539              		.type	chTMStopMeasurementX, %function
 540              	chTMStopMeasurementX:
 541              	.LFB174:
 542              		.loc 1 125 0
 543              		.cfi_startproc
 544              		@ args = 0, pretend = 0, frame = 0
 545              		@ frame_needed = 0, uses_anonymous_args = 0
 546              		@ link register save eliminated.
 547              	.LVL2:
 548              	.LBB16:
 549              	.LBB17:
 550              		.loc 2 547 0
ARM GAS  /tmp/cccdc3nd.s 			page 38


 551 0000 4FF48053 		mov	r3, #4096
 552 0004 CEF20003 		movt	r3, 57344
 553              	.LBE17:
 554              	.LBE16:
 555              		.loc 1 127 0
 556 0008 0E4A     		ldr	r2, .L8
 557              	.LBB19:
 558              	.LBB18:
 559              		.loc 2 547 0
 560 000a 5968     		ldr	r1, [r3, #4]
 561              	.LBE18:
 562              	.LBE19:
 563              		.loc 1 125 0
 564 000c 30B4     		push	{r4, r5}
 565              	.LCFI0:
 566              		.cfi_def_cfa_offset 8
 567              		.cfi_offset 4, -8
 568              		.cfi_offset 5, -4
 569              	.LBB20:
 570              	.LBB21:
 571              		.loc 1 58 0
 572 000e 8468     		ldr	r4, [r0, #8]
 573              	.LBE21:
 574              	.LBE20:
 575              		.loc 1 127 0
 576 0010 136F     		ldr	r3, [r2, #112]
 577              	.LVL3:
 578              	.LBB24:
 579              	.LBB22:
 580              		.loc 1 57 0
 581 0012 C568     		ldr	r5, [r0, #12]
 582              		.loc 1 58 0
 583 0014 091B     		subs	r1, r1, r4
 584              	.LVL4:
 585 0016 C91A     		subs	r1, r1, r3
 586              		.loc 1 60 0
 587 0018 4468     		ldr	r4, [r0, #4]
 588              		.loc 1 59 0
 589 001a D0E90423 		ldrd	r2, [r0, #16]
 590              		.loc 1 57 0
 591 001e 0135     		adds	r5, r5, #1
 592              		.loc 1 59 0
 593 0020 5218     		adds	r2, r2, r1
 594 0022 43F10003 		adc	r3, r3, #0
 595              	.LVL5:
 596              		.loc 1 60 0
 597 0026 A142     		cmp	r1, r4
 598              		.loc 1 57 0
 599 0028 C560     		str	r5, [r0, #12]
 600              		.loc 1 58 0
 601 002a 8160     		str	r1, [r0, #8]
 602              		.loc 1 59 0
 603 002c C0E90423 		strd	r2, [r0, #16]
 604              		.loc 1 60 0
 605 0030 05D8     		bhi	.L7
 606              		.loc 1 62 0
 607 0032 0268     		ldr	r2, [r0, #0]
ARM GAS  /tmp/cccdc3nd.s 			page 39


 608 0034 9142     		cmp	r1, r2
 609              		.loc 1 63 0
 610 0036 38BF     		it	cc
 611 0038 0160     		strcc	r1, [r0, #0]
 612              	.L3:
 613              	.LBE22:
 614              	.LBE24:
 615              		.loc 1 128 0
 616 003a 30BC     		pop	{r4, r5}
 617 003c 7047     		bx	lr
 618              	.L7:
 619              	.LBB25:
 620              	.LBB23:
 621              		.loc 1 61 0
 622 003e 4160     		str	r1, [r0, #4]
 623 0040 FBE7     		b	.L3
 624              	.L9:
 625 0042 00BF     		.align	2
 626              	.L8:
 627 0044 00000000 		.word	ch
 628              	.LBE23:
 629              	.LBE25:
 630              		.cfi_endproc
 631              	.LFE174:
 632              		.size	chTMStopMeasurementX, .-chTMStopMeasurementX
 633 0048 AFF30080 		.section	.text._tm_init,"ax",%progbits
 633      AFF30080 
 634              		.align	2
 635              		.p2align 4,,15
 636              		.global	_tm_init
 637              		.thumb
 638              		.thumb_func
 639              		.type	_tm_init, %function
 640              	_tm_init:
 641              	.LFB171:
 642              		.loc 1 75 0
 643              		.cfi_startproc
 644              		@ args = 0, pretend = 0, frame = 24
 645              		@ frame_needed = 0, uses_anonymous_args = 0
 646 0000 10B5     		push	{r4, lr}
 647              	.LCFI1:
 648              		.cfi_def_cfa_offset 8
 649              		.cfi_offset 4, -8
 650              		.cfi_offset 14, -4
 651              		.loc 1 81 0
 652 0002 40F20004 		movw	r4, #:lower16:ch
 653              		.loc 1 75 0
 654 0006 86B0     		sub	sp, sp, #24
 655              	.LCFI2:
 656              		.cfi_def_cfa_offset 32
 657              		.loc 1 81 0
 658 0008 0023     		movs	r3, #0
 659 000a C0F20004 		movt	r4, #:upper16:ch
 660              	.LBB26:
 661              	.LBB27:
 662              		.loc 1 97 0
 663 000e 4FF0FF32 		mov	r2, #-1
ARM GAS  /tmp/cccdc3nd.s 			page 40


 664              		.loc 1 98 0
 665 0012 8DE80C00 		stmia	sp, {r2, r3}
 666              	.LBE27:
 667              	.LBE26:
 668              		.loc 1 83 0
 669 0016 6846     		mov	r0, sp
 670              	.LBB30:
 671              	.LBB28:
 672              		.loc 1 101 0
 673 0018 0022     		movs	r2, #0
 674              	.LBE28:
 675              	.LBE30:
 676              		.loc 1 81 0
 677 001a 2367     		str	r3, [r4, #112]
 678              	.LVL6:
 679              	.LBB31:
 680              	.LBB29:
 681              		.loc 1 99 0
 682 001c 0293     		str	r3, [sp, #8]
 683              		.loc 1 100 0
 684 001e 0393     		str	r3, [sp, #12]
 685              		.loc 1 101 0
 686 0020 0023     		movs	r3, #0
 687 0022 CDE90423 		strd	r2, [sp, #16]
 688              	.LBE29:
 689              	.LBE31:
 690              		.loc 1 83 0
 691 0026 FFF7FEFF 		bl	chTMStartMeasurementX
 692              	.LVL7:
 693              		.loc 1 84 0
 694 002a 6846     		mov	r0, sp
 695 002c FFF7FEFF 		bl	chTMStopMeasurementX
 696              	.LVL8:
 697              		.loc 1 85 0
 698 0030 029B     		ldr	r3, [sp, #8]
 699 0032 2367     		str	r3, [r4, #112]
 700              		.loc 1 86 0
 701 0034 06B0     		add	sp, sp, #24
 702 0036 10BD     		pop	{r4, pc}
 703              		.cfi_endproc
 704              	.LFE171:
 705              		.size	_tm_init, .-_tm_init
 706 0038 AFF30080 		.section	.text.chTMChainMeasurementToX,"ax",%progbits
 706      AFF30080 
 707              		.align	2
 708              		.p2align 4,,15
 709              		.global	chTMChainMeasurementToX
 710              		.thumb
 711              		.thumb_func
 712              		.type	chTMChainMeasurementToX, %function
 713              	chTMChainMeasurementToX:
 714              	.LFB175:
 715              		.loc 1 143 0
 716              		.cfi_startproc
 717              		@ args = 0, pretend = 0, frame = 0
 718              		@ frame_needed = 0, uses_anonymous_args = 0
 719              		@ link register save eliminated.
ARM GAS  /tmp/cccdc3nd.s 			page 41


 720              	.LVL9:
 721              	.LBB32:
 722              	.LBB33:
 723              		.loc 2 547 0
 724 0000 4FF48053 		mov	r3, #4096
 725 0004 CEF20003 		movt	r3, 57344
 726 0008 5A68     		ldr	r2, [r3, #4]
 727              	.LBE33:
 728              	.LBE32:
 729              		.loc 1 143 0
 730 000a 30B4     		push	{r4, r5}
 731              	.LCFI3:
 732              		.cfi_def_cfa_offset 8
 733              		.cfi_offset 4, -8
 734              		.cfi_offset 5, -4
 735              		.loc 1 146 0
 736 000c 8A60     		str	r2, [r1, #8]
 737              	.LVL10:
 738              	.LBB34:
 739              	.LBB35:
 740              		.loc 1 58 0
 741 000e 8168     		ldr	r1, [r0, #8]
 742              	.LVL11:
 743              		.loc 1 57 0
 744 0010 C568     		ldr	r5, [r0, #12]
 745              		.loc 1 58 0
 746 0012 511A     		subs	r1, r2, r1
 747              		.loc 1 60 0
 748 0014 4468     		ldr	r4, [r0, #4]
 749              		.loc 1 59 0
 750 0016 D0E90423 		ldrd	r2, [r0, #16]
 751              	.LVL12:
 752              		.loc 1 57 0
 753 001a 0135     		adds	r5, r5, #1
 754              		.loc 1 59 0
 755 001c 5218     		adds	r2, r2, r1
 756 001e 43F10003 		adc	r3, r3, #0
 757              		.loc 1 60 0
 758 0022 A142     		cmp	r1, r4
 759              		.loc 1 57 0
 760 0024 C560     		str	r5, [r0, #12]
 761              		.loc 1 58 0
 762 0026 8160     		str	r1, [r0, #8]
 763              		.loc 1 59 0
 764 0028 C0E90423 		strd	r2, [r0, #16]
 765              		.loc 1 60 0
 766 002c 05D8     		bhi	.L14
 767              		.loc 1 62 0
 768 002e 0368     		ldr	r3, [r0, #0]
 769 0030 9942     		cmp	r1, r3
 770              		.loc 1 63 0
 771 0032 38BF     		it	cc
 772 0034 0160     		strcc	r1, [r0, #0]
 773              	.L11:
 774              	.LBE35:
 775              	.LBE34:
 776              		.loc 1 150 0
ARM GAS  /tmp/cccdc3nd.s 			page 42


 777 0036 30BC     		pop	{r4, r5}
 778 0038 7047     		bx	lr
 779              	.L14:
 780              	.LBB37:
 781              	.LBB36:
 782              		.loc 1 61 0
 783 003a 4160     		str	r1, [r0, #4]
 784 003c FBE7     		b	.L11
 785              	.LBE36:
 786              	.LBE37:
 787              		.cfi_endproc
 788              	.LFE175:
 789              		.size	chTMChainMeasurementToX, .-chTMChainMeasurementToX
 790 003e 00BF     		.text
 791              	.Letext0:
 792              		.file 3 "/home/laurence/ARM-GCC/bin/../lib/gcc/arm-none-eabi/4.7.4/../../../../arm-none-eabi/inclu
 793              		.file 4 "../ChibiOS/os/rt/ports/ARMCMx/compilers/GCC/chtypes.h"
 794              		.file 5 "../ChibiOS/os/rt/include/chsystypes.h"
 795              		.file 6 "../ChibiOS/os/rt/include/chschd.h"
 796              		.file 7 "../ChibiOS/os/ext/CMSIS/include/core_cm3.h"
 797              		.file 8 "../ChibiOS/os/rt/ports/ARMCMx/chcore.h"
 798              		.file 9 "../ChibiOS/os/rt/include/chtm.h"
 799              		.file 10 "../ChibiOS/os/rt/include/chmtx.h"