ARM GAS  /tmp/cckjJ1oB.s 			page 1


   1              		.syntax unified
   2              		.cpu cortex-m3
   3              		.fpu softvfp
   4              		.eabi_attribute 20, 1
   5              		.eabi_attribute 21, 1
   6              		.eabi_attribute 23, 3
   7              		.eabi_attribute 24, 1
   8              		.eabi_attribute 25, 1
   9              		.eabi_attribute 26, 1
  10              		.eabi_attribute 30, 2
  11              		.eabi_attribute 34, 1
  12              		.eabi_attribute 18, 4
  13              		.thumb
  14              		.file	"crt0.c"
  15              		.text
  16              	.Ltext0:
  17              		.section	.gnu.lto_.jmpfuncs.68af015105bca391,"",%progbits
  18 0000 789C6362 		.ascii	"x\234cb`d`g\300\016\304\2404\013\003P\021\023\0033\204"
  18      60646067 
  18      C00EC4A0 
  18      340B0350 
  18      11130333 
  19 0015 570FC500 		.ascii	"W\017\305\000\013\242\001)"
  19      0BA20129 
  20              		.text
  21              		.section	.gnu.lto_.inline.68af015105bca391,"",%progbits
  22 0000 789C6362 		.ascii	"x\234cb`d\340e\300\016b\2414\013\003\0033\023#\003\023"
  22      6064E065 
  22      C00E62A1 
  22      340B0303 
  22      33132303 
  23 0015 90C9B640 		.ascii	"\220\311\266@\236\011\250\003\205\013\202\020.\013\220"
  23      9E09A803 
  23      850B8210 
  23      2E0B90
  24 0024 6466D07A 		.ascii	"df\320z\007\324\300ds\246U\011,\300\310\005\224A#\230"
  24      07D4C064 
  24      73A65509 
  24      2CC0C805 
  24      94412398 
  25 0038 F919A104 		.ascii	"\371\031\241\004\003\000\"\252\005F"
  25      030022AA 
  25      0546
  26              		.text
  27              		.section	.gnu.lto_.pureconst.68af015105bca391,"",%progbits
  28 0000 789C6362 		.ascii	"x\234cb`d`f``\340d\200\000\026\006\011F\011&\023f3\000"
  28      60646066 
  28      6060E064 
  28      80001606 
  28      09460926 
  29 0018 036400B4 		.ascii	"\003d\000\264"
  30              		.text
  31              		.section	.gnu.lto___early_init.68af015105bca391,"",%progbits
  32 0000 789C6362 		.ascii	"x\234cb`\004BL \011\304a@l\011\304\214\314\014\214L"
  32      6004424C 
  32      2009C461 
  32      406C09C4 
ARM GAS  /tmp/cckjJ1oB.s 			page 2


  32      8CCC0C8C 
  33 0015 13CE3130 		.ascii	"\023\316104*012\202\030@-\365L\214\365\241\020\235\247"
  33      342A3031 
  33      32821840 
  33      2DF54C8C 
  33      F5A1109D 
  34 002a 4E3D9791 		.ascii	"N=\227\221\330\317t\340\301\377z\006\006&\240\000+C"
  34      D8CF74E0 
  34      C1FF7A06 
  34      0626A000 
  34      2B43
  35 003c 4B438300 		.ascii	"KC\203\000C<\324\340@\020\015\322\026\304\310\004f0"
  35      433CD4E0 
  35      40100DD2 
  35      16C4C804 
  35      6630
  36 004e 9F031A10 		.ascii	"\237\003\032\020\313\270\200\221\025n_ ##X\012\244\335"
  36      CBB88091 
  36      156E5F20 
  36      2323580A 
  36      A4DD
  37 0060 5C4F4FDF 		.ascii	"\\OO\3379#3)\323?X?\277X?9?77?O\277 \277\250\244X\337"
  37      39233329 
  37      D33F583F 
  37      BF583F39 
  37      3F37373F 
  38 007c 31C8D7D9 		.ascii	"1\310\327\331\267\002$V\220\231\223ZT\254\357\356\354"
  38      B7022456 
  38      9099935A 
  38      54ACEFEE 
  38      EC
  39 008d AC9F5C54 		.ascii	"\254\237\\Tb\240\227\314\000\000\361\363'\236"
  39      62A097CC 
  39      0000F1F3 
  39      279E
  40              		.text
  41              		.section	.gnu.lto___late_init.68af015105bca391,"",%progbits
  42 0000 789C6362 		.ascii	"x\234cb`\004BL \011\304a@l\011\304\214\314\014\214L"
  42      6004424C 
  42      2009C461 
  42      406C09C4 
  42      8CCC0C8C 
  43 0015 13CE3130 		.ascii	"\023\316104*012\202\030@-\365L\214\365\241\020\235\247"
  43      342A3031 
  43      32821840 
  43      2DF54C8C 
  43      F5A1109D 
  44 002a EE2D9791 		.ascii	"\356-\227\221\330\317t\340\301\377z\006\006&\240\000"
  44      D8CF74E0 
  44      C1FF7A06 
  44      0626A000 
  45 003a 2B434B43 		.ascii	"+CKC\203\000C<\324\340@\020\015\322\026\304\310\004"
  45      8300433C 
  45      D4E04010 
  45      0DD216C4 
  45      C804
  46 004c 66309F03 		.ascii	"f0\237\003\032\020\313\270\200\221\025n_ ##X\012\244"
ARM GAS  /tmp/cckjJ1oB.s 			page 3


  46      1A10CBB8 
  46      8091156E 
  46      5F202323 
  46      580AA4
  47 005f DD5C4F4F 		.ascii	"\335\\OO\3379#3)\323?X?\277X?9?77?O\277 \277\250\244"
  47      DF392333 
  47      29D33F58 
  47      3FBF583F 
  47      393F3737 
  48 007a 58DF31C8 		.ascii	"X\3371\310\327\331\267\002$V\220\231\223ZT\254\357\356"
  48      D7D9B702 
  48      24569099 
  48      935A54AC 
  48      EFEE
  49 008c ECAC9F5C 		.ascii	"\354\254\237\\Tb\240\227\314\000\000\332\377'r"
  49      5462A097 
  49      CC0000DA 
  49      FF2772
  50              		.text
  51              		.section	.gnu.lto__default_exit.68af015105bca391,"",%progbits
  52 0000 789C6362 		.ascii	"x\234cb`\004BL\240\003\304A@l\011\304\214\254\014\214"
  52      6004424C 
  52      A003C441 
  52      406C09C4 
  52      8CAC0C8C 
  53 0014 4C13CE31 		.ascii	"L\023\316104*012\203\030\214\314\214,\020\001\026\210"
  53      30342A30 
  53      31328318 
  53      8CCC8C2C 
  53      10011688 
  54 0028 80222343 		.ascii	"\200\"#C=\0233\013c}(\304\260S?\227\313>\331\317\266"
  54      3D13330B 
  54      637D28C4 
  54      B0533F97 
  54      CB3ED9CF 
  55 003d 9FE9C083 		.ascii	"\237\351\300\203\377\365\014`\033X\031Z\032\032\004"
  55      FFF50C60 
  55      1B58195A 
  55      1A1A04
  56 004c 18E2A1B6 		.ascii	"\030\342\241\266\005\202hF \305\0042.\220\221\231\201"
  56      05826846 
  56      20C50432 
  56      2E909199 
  56      81
  57 005d 11681063 		.ascii	"\021h\020c #\013\214\001s\226\271\236\236\276sFfR\246"
  57      20230B8C 
  57      017396B9 
  57      9E9EBE73 
  57      466652A6 
  58 0071 7FB07E7E 		.ascii	"\177\260~~\261~r~nn~\236~A~QI\261\276c\220\257\263o"
  58      B17E727E 
  58      6E6E7E9E 
  58      7E417E51 
  58      49B1BE63 
  59 0089 0548AC20 		.ascii	"\005H\254 3'\265\250X\337\335\331Y?\271\250\304@/\231"
  59      3327B5A8 
  59      58DFDDD9 
ARM GAS  /tmp/cckjJ1oB.s 			page 4


  59      593FB9A8 
  59      C4402F99 
  60 009d 010007CB 		.ascii	"\001\000\007\313*D"
  60      2A44
  61              		.text
  62              		.section	.gnu.lto_Reset_Handler.68af015105bca391,"",%progbits
  63 0000 789CAD96 		.ascii	"x\234\255\226MlTU\024\307\317\271\357c>;\323\371(\204"
  63      4D6C5455 
  63      14C7CFB9 
  63      EF633E3B 
  63      D3F92884 
  64 0014 42EB0B89 		.ascii	"B\353\013\211\211\013\323A7\032\027FR\0234R\013U\023"
  64      890BD341 
  64      371A1746 
  64      52133452 
  64      0B5513
  65 0027 43322161 		.ascii	"C2!a\250:(\355d\206\005\351\002\206\217\005!.\210+4"
  65      A83A28ED 
  65      648605E9 
  65      02868F05 
  65      212E882B 
  66 003c 31713040 		.ascii	"1q0@\323\200UwF\215\030G,\245\266\233B\312\320\005\213"
  66      D3805577 
  66      468D1847 
  66      2CA5B69B 
  66      42CAD005 
  67 0051 2ED074D9 		.ascii	".\320t\331\205&\223\340y\347\336;s\037\035\221\022\247"
  67      852693E0 
  67      79E7DE3B 
  67      731F1D91 
  67      12A7
  68 0063 29E7F59E 		.ascii	")\347\365\236\363?\347\334\337=\357\016\002\220~\326"
  68      F33FE7DC 
  68      DF3DEF0E 
  68      02907ED6 
  69 0073 7FEED3EF 		.ascii	"\177\356\323\357\317q\200\263d\261\007P\234\233\007"
  69      CF7180B3 
  69      64B10750 
  69      9C9B07
  70 0082 38E109B4 		.ascii	"8\341\011\264\345\203%\037j\236-\254\217\177\003\250"
  70      E583251F 
  70      6A9E2DAC 
  70      8F7F03A8 
  71 0092 3EE39C0E 		.ascii	">\343\234\016Au\207\203!\177\035]ik^H\270\322\037f\177"
  71      41758783 
  71      217F1D5D 
  71      696B5E48 
  71      B8D21F66 
  72 00a7 18A3EC8F 		.ascii	"\030\243\354\217H[\363\242\"\"\3751\366\307\260\213"
  72      485BF3A2 
  72      2222FD31 
  72      F6C7B08B 
  73 00b7 FD71696B 		.ascii	"\375qik^\227\210K\177\202\375\011\354\226\015$\345C"
  73      5E97884B 
  73      7F82FD09 
  73      EC960D24 
  73      E543
ARM GAS  /tmp/cckjJ1oB.s 			page 5


  74 00c9 CDEB1649 		.ascii	"\315\353\026I\031\220\342\200\024fd@Z>\324\274\214H"
  74      1990E280 
  74      14666440 
  74      5A3ED4BC 
  74      8C48
  75 00db CB802C07 		.ascii	"\313\200,\007di\277\307\205e;n(\034\211\306\342]\211"
  75      6469BFC7 
  75      85653B6E 
  75      281C89C6 
  75      E25D89
  76 00ee 64772A9D 		.ascii	"dw*\235\311\342\361w\030Dl;\324\252\325O\316\375r\362"
  76      C9E2F177 
  76      18446C3B 
  76      D4AAD54F 
  76      CEFD72F2 
  77 0102 B593F71E 		.ascii	"\265\223\367\036<xj\324_\335\2170\373\327\037\311-0"
  77      3C786AD4 
  77      5FDD8F30 
  77      FBD71FC9 
  77      2D30
  78 0114 8A081EF8 		.ascii	"\212\010\036\370V\200\035D\266Ng\261n\356\316\201'\221"
  78      56801D44 
  78      B64E67B1 
  78      6EEECE81 
  78      2791
  79 0126 35F73D8E 		.ascii	"5\367=\216\352TU\253l\001/\241/\\\235)oL\351\010x\231"
  79      EA5455AB 
  79      6C012FA1 
  79      2F5C9D29 
  79      6F4CE908 
  80 013c 95F5DF13 		.ascii	"\225\365\337\023\033T\346\361\022\205\221tyh\3035wr"
  80      1B54E6F1 
  80      12859174 
  80      7968C335 
  80      7772
  81 014e CDE5F963 		.ascii	"\315\345\371c\033V\276\312\312\031\347I\233][\330\340"
  81      1B56BECA 
  81      CA19E749 
  81      9B5D5BD8 
  81      E0
  82 015f 3E5D01BB 		.ascii	">]\001\273\270fsib\203\312<~%\213\256>\372<Wf\376\304"
  82      B8667369 
  82      6283CA3C 
  82      7E258BAE 
  82      3EFA3C57 
  83 0176 E65DF727 		.ascii	"\346]\367'q\355\336\203\343\000\003\010y\274\210\333"
  83      71EDDE83 
  83      E3000308 
  83      79BC88DB 
  84 0186 4190BD4C 		.ascii	"A\220\275L\326\";I\326&;E\326!{\205\254K\366*\331\020"
  84      D6223B49 
  84      D6263B45 
  84      D6217B85 
  84      AC4BF62A 
  85 019c D969B261 		.ascii	"\331i\262a\262_\222\215+}R\351S\312\246\311~A6\243\362"
  85      B25F928D 
  85      2B7D52E9 
ARM GAS  /tmp/cckjJ1oB.s 			page 6


  85      53CAA6C9 
  85      7E4136A3 
  86 01b1 6455DE1E 		.ascii	"dU\336\036e7\251\365\315*\377\026\2625\262\275\252\316"
  86      6537A9F5 
  86      CD2AFF16 
  86      B235B2BD 
  86      AACE
  87 01c3 56B5BE8D 		.ascii	"V\265\276\215\354\005\262}\252.}\0348]\255v\013Y\277"
  87      EC05B27D 
  87      AA2E7D1C 
  87      385DAD76 
  87      0B59BF
  88 01d6 D37CBEA1 		.ascii	"\323|\276\241\346\363\022>\022\305~u\037\355\365-\275"
  88      E6F3123E 
  88      12C57E75 
  88      1FEDF52D 
  88      BD
  89 01e7 B2231442 		.ascii	"\262#\024B\326\272\011\327p\361F\"\217_\243\303\001"
  89      D6BA09D7 
  89      70F14622 
  89      8F5FA3C3 
  89      01
  90 01f8 C300B370 		.ascii	"\303\000\263pr\325Z\276\321/\027\013\030\236\200\277"
  90      72D55ABE 
  90      D12F170B 
  90      189E80BF 
  91 0208 AB613A6C 		.ascii	"\253a:l,\"\234\2678\354:\210\243\322/[\243(\200\233"
  91      2C229CB7 
  91      38EC3A88 
  91      A3D22F5B 
  91      A328809B 
  92 021c 70025774 		.ascii	"p\002Wt2\277\320>\213X\003\377\003\320\017\037~^=\377"
  92      32BFD03E 
  92      8B5803FF 
  92      03D00F1F 
  92      7E5E3DFF 
  93 0230 CA2886E8 		.ascii	"\312(\206\350\017\216\3474k7\373u\242o\230\015m\213"
  93      0F8EE734 
  93      6B37FB75 
  93      A26F980D 
  93      6D8B
  94 0242 057EB6FA 		.ascii	"\005~\266\372\234\221m\354_\263\265E\276\354\032\316"
  94      9C916DEC 
  94      5FB3B545 
  94      BEEC1ACE 
  95 0252 ED6E6FE8 		.ascii	"\355no\350\024I\347\300Z\231;\246\327\324v,\334\217"
  95      1449E7C0 
  95      5A993BA6 
  95      D7D4762C 
  95      DC8F
  96 0264 28B18CFA 		.ascii	"(\261\214\372\335P/\364\262\266\200_\354\004\234^\224"
  96      DD502FF4 
  96      B2B6805F 
  96      EC049C5E 
  96      94
  97 0275 33C8C4E1 		.ascii	"3\310\304\341\221\270\333\345\325\310\030\010\325I\\"
  97      91B8DBE5 
ARM GAS  /tmp/cckjJ1oB.s 			page 7


  97      D5C81808 
  97      D5495C
  98 0284 E731FC9E 		.ascii	"\3471\374\2367\376C0B\264\023\215\320\315\205t\323Z"
  98      37FE4330 
  98      42B4138D 
  98      D0CD8574 
  98      D35A
  99 0296 74282FAA 		.ascii	"t(/\252\370\317\340S\364\317\276\200|\346\252\216\202"
  99      F8CFE053 
  99      F4CFBE80 
  99      7CE6AA8E 
  99      82
 100 02a7 706BEAD6 		.ascii	"pk\352\326\224\2772\013\247\316ZJP\300\270\212\225\215"
 100      94BF320B 
 100      A7CE5A4A 
 100      50C0B88A 
 100      958D
 101 02b9 9AA52FF2 		.ascii	"\232\245/\362\341\305u5\033\220.x\213\"\020Z^z\374\025"
 101      E1C57535 
 101      1B902E78 
 101      8B22105A 
 101      5E7AFC15 
 102 02cd EA2BD84A 		.ascii	"\352+\330J\207\235\233\005\270\015\370\360N\205\237"
 102      879D9B05 
 102      B80DF8F0 
 102      4E859F
 103 02dc DEE2E40E 		.ascii	"\336\342\344\016\217\234\037\2252\242\254\345!\362\332"
 103      8F9C1F95 
 103      32A2ACE5 
 103      21F2DA
 104 02eb 1CE11A9B 		.ascii	"\034\341\032\233m\235\304\345\216'\221\307\037\345%"
 104      6D9DC4E5 
 104      8E2791C7 
 104      1FE525
 105 02fa F0D827D1 		.ascii	"\360\330'\321\346&\376\233[\2357\232T\261&\267:s\273"
 105      E626FE9B 
 105      5B9D379A 
 105      54B126B7 
 105      3A73BB
 106 030d CC64929A 		.ascii	"\314d\222\232[\210\271\241\346&\275\242\315M\246\023"
 106      5B88B9A1 
 106      E626BDA2 
 106      CD4DA613 
 107 031d E69B14E4 		.ascii	"\346\233\024\344F]\245\034\244\214.\347\013\267P\365"
 107      465DA51C 
 107      A48C2EE7 
 107      0BB750F5 
 108 032d 181A7B75 		.ascii	"\030\032{u\376\020\271Cg\254\333\260\311Xw\326\364\272"
 108      FE10B943 
 108      67ACDBB0 
 108      C95877D6 
 108      F4BA
 109 033f AF8DB420 		.ascii	"\257\215\264 ~\347\324\027\216\2658\372W\221\274\210"
 109      7EE7D417 
 109      8EB538FA 
 109      5791BC88 
 110 034f 0C28054C 		.ascii	"\014(\005L\267\271X&\027\276\010^_\262\3628\033\030"
ARM GAS  /tmp/cckjJ1oB.s 			page 8


 110      B7B95826 
 110      17BE085E 
 110      5FB2F238 
 110      1B18
 111 0361 3A5B071D 		.ascii	":[\007\035\225r\305lR\005\0260\243bLh\263\014m\212\261"
 111      9572C56C 
 111      52051630 
 111      A3624C68 
 111      B30C6D8A 
 112 0376 64B4C2D1 		.ascii	"d\264\302\321\212\254*\275^1\311\212\254\306\034\015"
 112      8AAC2ABD 
 112      5E31C98A 
 112      ACC61C0D 
 113 0386 6296F96C 		.ascii	"b\226\371l\226\360\202\014\267\024\367\346\374\230\256"
 113      96F0820C 
 113      B714F7E6 
 113      FC98AE
 114 0395 601BB4DC 		.ascii	"`\033\264\334\363N\000\275U\300\2360\241\317F\352\013"
 114      F34E00BD 
 114      55C09E30 
 114      A1CF46EA 
 114      0B
 115 03a6 53781BEC 		.ascii	"Sx\033\354\002n\362\377\316D&\231g\254u\026[\215,!\372"
 115      026EF2FF 
 115      CE442699 
 115      67AC7516 
 115      5B8D2C21 
 116 03bb C6237994 		.ascii	"\306#y\224\373\212w\232\333+\377\373\334:\353\347\026"
 116      FB8A779A 
 116      DB2BFFFB 
 116      DC3AEBE7 
 116      16
 117 03cc 8C995DE0 		.ascii	"\214\231]\340\255nVq&\314\005\324\337m\344\3270\273"
 117      AD6E5671 
 117      26CC05D4 
 117      DF6DE4D7 
 117      30BB
 118 03de 8230A5D7 		.ascii	"\2020\245\327i\317\254L\347\030{\016\007g\326)\340\326"
 118      69CFAC4C 
 118      E7187B0E 
 118      0767D629 
 118      E0D6
 119 03f0 1881DA1C 		.ascii	"\030\201\332\034\347|\011\346Dw\355\342\322D\207\273"
 119      E77C09E6 
 119      4477EDE2 
 119      D24487BB 
 120 0400 5604EFDA 		.ascii	"V\004\357\332\346\273\022\024\312\357\300\300\215y\265"
 120      E6BB1214 
 120      CAEFC0C0 
 120      8D79B5
 121 040f 7D1F46A8 		.ascii	"}\037F\250ld\246}`#\364\316\265\307\233\376\037\230"
 121      6C64A67D 
 121      6023F4CE 
 121      B5C79BFE 
 121      1F98
 122 0421 C745EE73 		.ascii	"\307E\356s\213\304\024%L\256\277}\267%\241\216\374)"
 122      8BC41425 
ARM GAS  /tmp/cckjJ1oB.s 			page 9


 122      4CAEBF7D 
 122      B725A18E 
 122      FC29
 123 0433 5EE4FC14 		.ascii	"^\344\374\024\250z`j\213w\016\351\004\275Jhr[dnW\231"
 123      A87A606A 
 123      8B770EE9 
 123      04BD4A68 
 123      725B646E 
 124 0449 4CAF6EA0 		.ascii	"L\257n\240;xGJ\257\253\270\325\357\214\351\204\256\261"
 124      3B78474A 
 124      AFABB8D5 
 124      EF8CE984 
 124      AEB1
 125 045b 85E86470 		.ascii	"\205\350dp\346L_\244\271\364\255\317&q\237&\2617I-\371"
 125      E64C5FA4 
 125      B9F4ADCF 
 125      26719F26 
 125      B137492D 
 126 0470 55529A66 		.ascii	"UR\232f\275\321\337\201\246\025\244\271\332\230h\341"
 126      BDD1DF81 
 126      A615A4B9 
 126      DA9868E1 
 127 0480 9C7E18E7 		.ascii	"\234~\030\347t\020g,\2003m\340l6\010g\203\233\337\326"
 127      7410672C 
 127      80336DE0 
 127      6C360867 
 127      839BDFD6 
 128 0494 C619EA88 		.ascii	"\306\031\352\210\263\241pn3q\326\357\036\322\011\372"
 128      B3A1706E 
 128      3371D6EF 
 128      1ED209FA 
 129 04a4 94D0C4D9 		.ascii	"\224\320\304\331`\234\323\014\254O7\220\011\342\224"
 129      609CD30C 
 129      AC4F3790 
 129      09E294
 130 04b3 DE90C2B9 		.ascii	"\336\220\302\271\326\030\323\011C\306\026\342\017\341"
 130      D618D309 
 130      43C616E2 
 130      0FE1
 131 04c1 347DB1D5 		.ascii	"4}\261\325\006\343L\3718\373\322\324\222_%\253q\256"
 131      06E34CF9 
 131      38FBD2D4 
 131      925F25AB 
 131      71AE
 132 04d3 DDBD801D 		.ascii	"\335\275\200\035x\332\232gL\346\334\253\277\247\341"
 132      78DA9A67 
 132      4CE6DCAB 
 132      BFA7E1
 133 04e2 858181DC 		.ascii	"\205\201\201\334\340\007\305\003\305\341\267r\343\225"
 133      E007C503 
 133      C5E1B772 
 133      E395
 134 04f0 5C61FCF0 		.ascii	"\\a\374\360\341\361\261\\i\274|\244\222\3339248t\324"
 134      E1F1B15C 
 134      69BC7CA4 
 134      92DB3932 
 134      343874D4 
ARM GAS  /tmp/cckjJ1oB.s 			page 10


 135 0504 5F2B153F 		.ascii	"_+\025?\032-Wr\273\006\007s\205\362\221\035\003\005"
 135      1A2D5772 
 135      BB060773 
 135      85F2911D 
 135      0305
 136 0516 B04A9592 		.ascii	"\260J\225\222(='\216\224\304\301\222\365^\251d\225G"
 136      283D278E 
 136      94C4C192 
 136      F55EA964 
 136      9547
 137 0528 DF8F164A 		.ascii	"\337\217\026J\225\342A\317\363\212\320}\270R\366\374"
 137      95E241CF 
 137      F38AD07D 
 137      B852F6FC 
 138 0538 CF9EB7F6 		.ascii	"\317\236\267\366<\353=\275\003D\031\262zmp\370\315\267"
 138      3CEB3DBD 
 138      034419B2 
 138      7A6D70F8 
 138      CDB7
 139 054a 478677F3 		.ascii	"G\206w\363\272]\254\034\000Qz\376\037Er\272\357"
 139      BA5DAC1C 
 139      00517AFE 
 139      1F4572BA 
 139      EF
 140              		.text
 141              		.section	.gnu.lto_.cgraph.68af015105bca391,"",%progbits
 142 0000 789C458C 		.ascii	"x\234E\214\241\021\2000\020\004\357\377\203\246\204"
 142      A1118030 
 142      1004EFFF 
 142      83A684
 143 000f B4433974 		.ascii	"\264C9t\360\221H\006\201@\320\004\032\023<\006\201\006"
 143      F0914806 
 143      8140D004 
 143      1A133C06 
 143      8106
 144 0021 9D1A8004 		.ascii	"\235\032\200\0042\303\231\3355\307 \010\200\032y\014"
 144      32C399DD 
 144      35C72008 
 144      801A790C 
 145 0031 05DA15AA 		.ascii	"\005\332\025\252cCLJ\177\260r\216\212E\345\363\276\242"
 145      63434C4A 
 145      7FB0728E 
 145      8A45E5F3 
 145      BEA2
 146 0043 52CDEBCE 		.ascii	"R\315\353\316\221\304\257\363\270\"\011\276\013V\304"
 146      91C4AFF3 
 146      B82209BE 
 146      0B56C4
 147 0052 60E91319 		.ascii	"`\351\023\031~\010\326\010\246\355\236\213\304=\022"
 147      7E08D608 
 147      A6ED9E8B 
 147      C43D12
 148 0061 0F9D2824 		.ascii	"\017\235($%"
 148      25
 149              		.text
 150              		.section	.gnu.lto_.vars.68af015105bca391,"",%progbits
 151 0000 789C25C4 		.ascii	"x\234%\304\331\015\000\020\000D\301u\337BK\032\323\272"
ARM GAS  /tmp/cckjJ1oB.s 			page 11


 151      D90D0010 
 151      0044C175 
 151      DF424B1A 
 151      D3BA
 152 0012 97988FB1 		.ascii	"\227\230\217\2612r\222\216\276\341\245\253h(XJ\216\262"
 152      3272928E 
 152      BEE1A5AB 
 152      6828584A 
 152      8EB2
 153 0024 A712A846 		.ascii	"\247\022\250Fj\211z\246YhT\332\215V\247\007\374\"\007"
 153      6A897AA6 
 153      596854DA 
 153      8D56A707 
 153      FC2207
 154 0037 9B       		.ascii	"\233"
 155              		.text
 156              		.section	.gnu.lto_.refs.68af015105bca391,"",%progbits
 157 0000 789C25C5 		.ascii	"x\234%\305\267\015\000 \000\300\260PB\0277\360\377\225"
 157      B70D0020 
 157      00C0B050 
 157      421737F0 
 157      FF95
 158 0012 08E1C591 		.ascii	"\010\341\305\221@\002\016\337Nb0\372\316j\261\332\354"
 158      40020EDF 
 158      4E6230FA 
 158      CE6AB1DA 
 158      EC
 159 0023 0EA70B2E 		.ascii	"\016\247\013.\0207\000\314"
 159      103700CC 
 160              		.text
 161              		.section	.gnu.lto_.statics.68af015105bca391,"",%progbits
 162 0000 789C6362 		.ascii	"x\234cb`d`b\300\016@\342\214\020&\000\000\375\000\011"
 162      60646062 
 162      C00E40E2 
 162      8C102600 
 162      00FD0009 
 163              		.text
 164              		.section	.gnu.lto_.decls.68af015105bca391,"",%progbits
 165 0000 789C9D96 		.ascii	"x\234\235\226Ml\033E\024\307g6Im7N\372\201\032\245\247"
 165      4D6C1B45 
 165      14C76736 
 165      496D374E 
 165      FA811AA5 
 166 0015 44482048 		.ascii	"DH H\211\027\225H\205C\004\310\207\372\322\"\265\344"
 166      89179548 
 166      854304C8 
 166      87FAD222 
 166      B5E4
 167 0027 688DD6EB 		.ascii	"h\215\326\353\011Ye\275k\355\256Kz[Z\304GO\006T\004"
 167      095965BD 
 167      6BEDAE4B 
 167      7A5B5AC4 
 167      474F0654 
 168 003c 42424E21 		.ascii	"BBN!\012U\270\264\210\213\251D\370h\032\300\205F\012"
 168      0A55B8B4 
 168      888BA944 
 168      F8681AC0 
ARM GAS  /tmp/cckjJ1oB.s 			page 12


 168      85460A
 169 004f B4851439 		.ascii	"\264\205\0249U\2518T\234\250\004\022\222y\263\237^{"
 169      55A93854 
 169      9CA80412 
 169      9279B39F 
 169      5E7B
 170 0061 D78B18F9 		.ascii	"\327\213\030\371\037\317\316\314\373\375\337\274\335"
 170      1FCFCECC 
 170      FBFDDFBC 
 170      DD
 171 006e D9984318 		.ascii	"\331\230C\030\261V\206\257\026\264\203)\204\356B\177"
 171      B15686AF 
 171      16B48329 
 171      84EE427F 
 172 007e 00C6A691 		.ascii	"\000\306\246\221\337\330u\015\264\014Z\001]\000\325"
 172      DFD8750D 
 172      B40C5A01 
 172      5D00D5
 173 008d 4143A0CF 		.ascii	"AC\240\317@\253\240/A_\203\326@\353\240oA\015\320\367"
 173      40ABA02F 
 173      415F83D6 
 173      40EBA06F 
 173      410DD0F7 
 174 00a1 A06BA09F 		.ascii	"\240k\240\237@7@?\243`\253\265\365q\307\265\333\226"
 174      4037403F 
 174      A360ABB5 
 174      F571C7B5 
 174      DB96
 175 00b3 3BD62C87 		.ascii	";\326,\207\254Y\351X\263\022\262\206\345\235\006%@\303"
 175      AC59E958 
 175      B312B286 
 175      E59D0625 
 175      40C3
 176 00c5 4E7F1374 		.ascii	"N\177\023t\011\264\005\272\005\332\006-\202\232\240"
 176      09B405BA 
 176      05DA062D 
 176      829AA0
 177 00d4 0DD05D27 		.ascii	"\015\320]'v\300\211\2579\376u\307\303\255\001\333\377"
 177      76C089AF 
 177      39FE75C7 
 177      C3AD01DB 
 177      FF
 178 00e5 2A8AAE01 		.ascii	"*\212\256\001\333?\253\003\333\377\215\216\274\306\320"
 178      DB3FAB03 
 178      DBFF8D8E 
 178      BCC6D0
 179 00f4 FB66F35A 		.ascii	"\373f\363Z\365\264\271>\376W\253\225\030AgMh\265WL\023"
 179      F5B4B93E 
 179      FE57AB95 
 179      1841674D 
 179      68B5574C 
 180 0109 1B793CBD 		.ascii	"\033y<\275\017\355Gy<\0147g\334\352\245\241\327o\005"
 180      0FED4779 
 180      3C0C3767 
 180      DCEAA5A1 
 180      D76F05
 181 011c E6F1221E 		.ascii	"\346\361\"\036qz\317\367\3310\016q\030M\240\363\246"
ARM GAS  /tmp/cckjJ1oB.s 			page 13


 181      717ACFF7 
 181      D9300E71 
 181      184DA0F3 
 181      A6
 182 012d D5B05F11 		.ascii	"\325\260_\021h\273P\375\374\337S\254\327\007\353\340"
 182      68BB50FD 
 182      FCDF53AC 
 182      D707EBE0 
 183 013d 73D49940 		.ascii	"s\324\231@\017\243%\266|\365\324\250e\310\2005<\026"
 183      0FA325B6 
 183      7CF5D4A8 
 183      65C88035 
 183      3C16
 184 014f C8328FCF 		.ascii	"\3102\217\317a\256G\332v2\034:\216a\351\007x\002\375"
 184      61AE47DA 
 184      76321C3A 
 184      8E61E907 
 184      7802FD
 185 0162 39ED39E5 		.ascii	"9\3559\345\361\222\027\033b\265\334e\365Q\210\325F\227"
 185      F192171B 
 185      62B5DC65 
 185      F55188D5 
 185      4697
 186 0174 1571AD1A 		.ascii	"\025q\255\032OwYag\213%w\213a\306+]\306\037w\033\327"
 186      4F775961 
 186      678B2577 
 186      8B61C62B 
 186      5DC61F77 
 187 018a B6C13807 		.ascii	"\266\3018\007\276\257&]\343\023\256\361\235\\[5_\306"
 187      BEAF265D 
 187      E313AEF1 
 187      9D5C5B35 
 187      5FC6
 188 019c CC8B73AE 		.ascii	"\314\213s\256\316`\333\331\271|\013\367J\344BW\"\027"
 188      CE60DBD9 
 188      B97C0BF7 
 188      4AE44257 
 188      2217
 189 01ae 432A50AD 		.ascii	"C*P\255\236\256\345\374\002\344\361\014\347\326\272"
 189      9EAEE5FC 
 189      02E4F10C 
 189      E7D6BA
 190 01bd 7E22183E 		.ascii	"~\"\030>\023\210~\020-\232\3157Y\264\331l\265\306R\350"
 190      13887E10 
 190      2D9ACD37 
 190      59B4D96C 
 190      B5C652E8 
 191 01d1 35D33CC5 		.ascii	"5\323<\305\236\260\334:\034\204\360\307\353!\364\241"
 191      9EB0DC3A 
 191      1C84F0C7 
 191      EB21F4A1 
 192 01e1 6956D933 		.ascii	"iV\3313\224\307\227p\012\266\360\036v\267}\361\355\215"
 192      94C79770 
 192      0AB6F01E 
 192      76B77DF1 
 192      ED8D
 193 01f3 35DEB54A 		.ascii	"5\336\265J\244\202\326pm\257\262\311\366\264\333c\357"
ARM GAS  /tmp/cckjJ1oB.s 			page 14


 193      A482D670 
 193      6DAFB2C9 
 193      F6B4DB63 
 193      EF
 194 0204 995D5679 		.ascii	"\231]Vy8\027V\177\367z\203\213~\304?\367\013\321\261"
 194      3817567F 
 194      F77A838B 
 194      7EC43FF7 
 194      0BD1B1
 195 0217 0D37AF9A 		.ascii	"\0157\257\232\207\332z4\232\363E,\347\023\237\363H4"
 195      87DA7A34 
 195      9AF3452C 
 195      E7139FF3 
 195      4834
 196 0229 E7AB58CE 		.ascii	"\347\253X\316\025\217\2639\021\315\271\034\313\371\325"
 196      158FB339 
 196      11CDB91C 
 196      CBF9D5
 197 0238 E3FC7320 		.ascii	"\343\374s \232s%\226\363\273\307\271\367X4\347\233X"
 197      9A732596 
 197      F3BBC7B9 
 197      F75834E7 
 197      9B58
 198 024a CE1F7E7D 		.ascii	"\316\037~}&\2439\337\305r\356{\234F&\232s5\226c\366"
 198      26A339DF 
 198      C572EE7B 
 198      9C46269A 
 198      73359663 
 199 025f 79F5E9C1 		.ascii	"y\365\351\301\371!\2223\210\316\370\307\300>R\361Ga"
 199      F9219233 
 199      88CEF8C7 
 199      C03E52F1 
 199      4761
 200 0271 030F82F5 		.ascii	"\003\017\202\365\353\236\365\235\263;m\370\177\246\261"
 200      EB9EF59D 
 200      B33B6DF8 
 200      7FA6B1
 201 0280 A43681E2 		.ascii	"\2446\201\342\036\222`\353\232\343\320\033\236\331\326"
 201      1E9260EB 
 201      9AE3D01B 
 201      9ED9D6
 202 028f 93D1C81F 		.ascii	"\223\321\310\037{\324\313N\372\234\307\271\307Gs\256"
 202      7BD4CB4E 
 202      FA9CC7B9 
 202      C74773AE 
 203 029f C7723EF5 		.ascii	"\307r>\365\353\376T4\347f,g\315\3434zp~\3619\035%fO"
 203      EBFE5434 
 203      E7662C67 
 203      CDE3347A 
 203      707EF139 
 204 02b7 4174DC16 		.ascii	"At\334\026x\204\3071\367\370\033}\313\312\361\246_\263"
 204      7884C731 
 204      F7F81B7D 
 204      CBCAF1A6 
 204      5FB3
 205 02c9 FBE1373A 		.ascii	"\373\3417:\232\306\262h\366\270\321\035s{P\325\372\277"
 205      9AC6B268 
ARM GAS  /tmp/cckjJ1oB.s 			page 15


 205      F6B8D11D 
 205      737B50D5 
 205      FABF
 206 02db FFCC3BC3 		.ascii	"\377\314;\303\316\013\272\271d\216\216\372\357\347\244"
 206      CE0BBAB9 
 206      648E8EFA 
 206      EFE7A4
 207 02ea 47C76EAE 		.ascii	"G\307n\256\246\235\353m\353<\334\356c\343\270\313\211"
 207      A69DEB6D 
 207      EB3CDCEE 
 207      63E3B8CB 
 207      89
 208 02fb 79B115AC 		.ascii	"y\261\025\254\355\367\373^\267\205}\217\335\236\007"
 208      EDF7FB5E 
 208      B7857D8F 
 208      DD9E07
 209 030a E7446EE3 		.ascii	"\347Dn\343=V\317\312\311\364\266\235\356U\373\337\332"
 209      3D56CFCA 
 209      C9F4B69D 
 209      EE55FBDF 
 209      DA
 210 031b DCD2A9F6 		.ascii	"\334\322\251\366\236\233\235\365#\347\245\377\373#\007"
 210      9E9B9DF5 
 210      23E7A5FF 
 210      FB2307
 211 032a A509A182 		.ascii	"\245\011\241\202&\237$\222\"\031;\016\037\235\031\317"
 211      269F2492 
 211      22193B0E 
 211      1F9D19CF 
 212 033a A243990C 		.ascii	"\242C\231\014\237\235\223\012\322s\307yU\347E\265TR"
 212      9F9D930A 
 212      D273C779 
 212      55E745B5 
 212      5452
 213 034c 15BEAC6A 		.ascii	"\025\276\254j\206\316?{\354H\366\310\002\033+K2\325"
 213      86CE3F7B 
 213      EC48F6C8 
 213      021B2B4B 
 213      32D5
 214 035e 74FE7036 		.ascii	"t\376p6\313\213\232\361xFD\375/Ra~\220\020Y0\250\305"
 214      CB8B9AF1 
 214      784644FD 
 214      2F52617E 
 214      90105930 
 215 0374 1B22453A 		.ascii	"\033\"E:+Td\203\320\005\311H*\252F\215\212\246\014\035"
 215      2B546483 
 215      D005C948 
 215      2AAA468D 
 215      8AA60C1D 
 216 0388 A33A3548 		.ascii	"\243:5HNP\212\200\030P\204yZ\204II\221%\205&\024U\224"
 216      4E508A80 
 216      18508479 
 216      5A844949 
 216      91258526 
 217 039f 5585262B 		.ascii	"U\205&+\222b<q\220\030\224\237SK\224\227\205\212F\025"
 217      92623C71 
 217      9018949F 
ARM GAS  /tmp/cckjJ1oB.s 			page 16


 217      534B9497 
 217      858A4615 
 218 03b3 91B20C26 		.ascii	"\221\262\014&\231iARxHT\226\012\374\013\242\310\013"
 218      99694152 
 218      78485496 
 218      0AFC0BA2 
 218      C80B
 219 03c5 5A695281 		.ascii	"ZiR\201\270I*\024$~*s(3\305\246\275Op^RD\271R\244\274"
 219      B8492A14 
 219      247E2A73 
 219      2833C5A6 
 219      BD4F705E 
 220 03df 6E14C126 		.ascii	"n\024\301&3\207\366\021R\326T\221\352:\321\015A\234"
 220      3387F611 
 220      52D65491 
 220      EA3AD10D 
 220      419C
 221 03f1 27542912 		.ascii	"'T)\022\262\227\220\222 )\355C\017\004\206\012\202N"
 221      B2979092 
 221      2029ED43 
 221      0F04860A 
 221      824E
 222 0403 0919E90C 		.ascii	"\011\031\351\014\266\207S\220\374\202Q\024\014a\200"
 222      B6875390 
 222      FC825114 
 222      0C6180
 223 0412 B0BF3B08 		.ascii	"\260\277;\010e_;I\301^\250\031I\253\013\334\304lE\021"
 223      655F3B49 
 223      C15EA819 
 223      49AB0BDC 
 223      C46C4511 
 224 0426 CBC4D84D 		.ascii	"\313\304\330M\254\302\021A\323\204\223lbo`\300\012\202"
 224      ACC21141 
 224      D384936C 
 224      626F60C0 
 224      0A82
 225 0438 35B33016 		.ascii	"5\2630\026X\3236`\203-\036\000\373\3059A\373\027\264"
 225      58D33660 
 225      832D1E00 
 225      FBC53941 
 225      FB17B4
 226 044b 698962   		.ascii	"i\211b"
 227              		.text
 228              		.section	.gnu.lto_.symtab.68af015105bca391,"",%progbits
 229 0000 5F5F6561 		.ascii	"__early_init\000\000\001\000\000\000\000\000\000\000"
 229      726C795F 
 229      696E6974 
 229      00000100 
 229      00000000 
 230 0016 0000A000 		.ascii	"\000\000\240\000\000\000__late_init\000\000\001\000"
 230      00005F5F 
 230      6C617465 
 230      5F696E69 
 230      74000001 
 231 002b 00000000 		.ascii	"\000\000\000\000\000\000\000\000\247\000\000\000_de"
 231      00000000 
 231      A7000000 
ARM GAS  /tmp/cckjJ1oB.s 			page 17


 231      5F6465
 232 003a 6661756C 		.ascii	"fault_exit\000\000\001\000\000\000\000\000\000\000\000"
 232      745F6578 
 232      69740000 
 232      01000000 
 232      00000000 
 233 004f 00AB0000 		.ascii	"\000\253\000\000\000Reset_Handler\000\000\000\000\000"
 233      00526573 
 233      65745F48 
 233      616E646C 
 233      65720000 
 234 0066 00000000 		.ascii	"\000\000\000\000\000\000\000\261\000\000\000main\000"
 234      000000B1 
 234      0000006D 
 234      61696E00 
 235 0076 00020000 		.ascii	"\000\002\000\000\000\000\000\000\000\000\000\272\000"
 235      00000000 
 235      000000BA 
 235      00
 236 0083 00005F5F 		.ascii	"\000\000__process_stack_end__\000\000\002\000\000\000"
 236      70726F63 
 236      6573735F 
 236      73746163 
 236      6B5F656E 
 237 00a0 00000000 		.ascii	"\000\000\000\000\000\000\273\000\000\000__main_stac"
 237      0000BB00 
 237      00005F5F 
 237      6D61696E 
 237      5F737461 
 238 00b5 6B5F656E 		.ascii	"k_end__\000\000\002\000\000\000\000\000\000\000\000"
 238      645F5F00 
 238      00020000 
 238      00000000 
 238      0000
 239 00c7 00C00000 		.ascii	"\000\300\000\000\000__main_stack_base__\000\000\002"
 239      005F5F6D 
 239      61696E5F 
 239      73746163 
 239      6B5F6261 
 240 00e2 00000000 		.ascii	"\000\000\000\000\000\000\000\000\000\302\000\000\000"
 240      00000000 
 240      00C20000 
 240      00
 241 00ef 5F5F7072 		.ascii	"__process_stack_base__\000\000\002\000\000\000\000\000"
 241      6F636573 
 241      735F7374 
 241      61636B5F 
 241      62617365 
 242 010d 00000000 		.ascii	"\000\000\000\000\304\000\000\000_textdata\000\000\002"
 242      C4000000 
 242      5F746578 
 242      74646174 
 242      61000002 
 243 0121 00000000 		.ascii	"\000\000\000\000\000\000\000\000\000\306\000\000\000"
 243      00000000 
 243      00C60000 
 243      00
ARM GAS  /tmp/cckjJ1oB.s 			page 18


 244 012e 5F646174 		.ascii	"_data\000\000\002\000\000\000\000\000\000\000\000\000"
 244      61000002 
 244      00000000 
 244      00000000 
 244      00
 245 013f C8000000 		.ascii	"\310\000\000\000_edata\000\000\002\000\000\000\000\000"
 245      5F656461 
 245      74610000 
 245      02000000 
 245      0000
 246 0151 00000000 		.ascii	"\000\000\000\000\312\000\000\000_bss_start\000\000\002"
 246      CA000000 
 246      5F627373 
 246      5F737461 
 246      72740000 
 247 0166 00000000 		.ascii	"\000\000\000\000\000\000\000\000\000\314\000\000\000"
 247      00000000 
 247      00CC0000 
 247      00
 248 0173 5F627373 		.ascii	"_bss_end\000\000\002\000\000\000\000\000\000\000\000"
 248      5F656E64 
 248      00000200 
 248      00000000 
 248      000000
 249 0186 00CE0000 		.ascii	"\000\316\000\000\000__init_array_end\000\000\002\000"
 249      005F5F69 
 249      6E69745F 
 249      61727261 
 249      795F656E 
 250 019f 00000000 		.ascii	"\000\000\000\000\000\000\000\000\320\000\000\000__i"
 250      00000000 
 250      D0000000 
 250      5F5F69
 251 01ae 6E69745F 		.ascii	"nit_array_start\000\000\002\000\000\000\000\000\000"
 251      61727261 
 251      795F7374 
 251      61727400 
 251      00020000 
 252 01c6 000000D6 		.ascii	"\000\000\000\326\000\000\000__fini_array_end\000\000"
 252      0000005F 
 252      5F66696E 
 252      695F6172 
 252      7261795F 
 253 01df 02000000 		.ascii	"\002\000\000\000\000\000\000\000\000\000\330\000\000"
 253      00000000 
 253      0000D800 
 253      00
 254 01ec 005F5F66 		.ascii	"\000__fini_array_start\000\000\002\000\000\000\000\000"
 254      696E695F 
 254      61727261 
 254      795F7374 
 254      61727400 
 255 0207 00000000 		.ascii	"\000\000\000\000\332\000\000\000"
 255      DA000000 
 256              		.text
 257              		.section	.gnu.lto_.opts,"",%progbits
 258 0000 272D6444 		.ascii	"'-dD''-mcpu=cortex-m3''-mno-thumb-interwork''-mthum"
ARM GAS  /tmp/cckjJ1oB.s 			page 19


 258      27272D6D 
 258      6370753D 
 258      636F7274 
 258      65782D6D 
 259 0033 6227272D 		.ascii	"b''-ggdb''-g3''-O2''-fomit-frame-pointer''-falign-f"
 259      67676462 
 259      27272D67 
 259      3327272D 
 259      4F322727 
 260 0066 756E6374 		.ascii	"unctions=16''-ffunction-sections''-fdata-sections''"
 260      696F6E73 
 260      3D313627 
 260      272D6666 
 260      756E6374 
 261 0099 2D666E6F 		.ascii	"-fno-common''-flto'\000"
 261      2D636F6D 
 261      6D6F6E27 
 261      272D666C 
 261      746F2700 
 262              		.text
 263              		.cfi_sections	.debug_frame
 264              		.section	.text.__early_init,"ax",%progbits
 265              		.align	2
 266              		.p2align 4,,15
 267              		.weak	__early_init
 268              		.thumb
 269              		.thumb_func
 270              		.type	__early_init, %function
 271              	__early_init:
 272              	.LFB0:
 273              		.file 1 "../ChibiOS/os/common/ports/ARMCMx/compilers/GCC/crt0.c"
 274              		.loc 1 226 0
 275              		.cfi_startproc
 276              		@ args = 0, pretend = 0, frame = 0
 277              		@ frame_needed = 0, uses_anonymous_args = 0
 278              		@ link register save eliminated.
 279 0000 7047     		bx	lr
 280              		.cfi_endproc
 281              	.LFE0:
 282              		.size	__early_init, .-__early_init
 283 0002 00BFAFF3 		.section	.text.__late_init,"ax",%progbits
 283      0080AFF3 
 283      0080AFF3 
 283      0080
 284              		.align	2
 285              		.p2align 4,,15
 286              		.weak	__late_init
 287              		.thumb
 288              		.thumb_func
 289              		.type	__late_init, %function
 290              	__late_init:
 291              	.LFB1:
 292              		.loc 1 238 0
 293              		.cfi_startproc
 294              		@ args = 0, pretend = 0, frame = 0
 295              		@ frame_needed = 0, uses_anonymous_args = 0
 296              		@ link register save eliminated.
ARM GAS  /tmp/cckjJ1oB.s 			page 20


 297 0000 7047     		bx	lr
 298              		.cfi_endproc
 299              	.LFE1:
 300              		.size	__late_init, .-__late_init
 301 0002 00BFAFF3 		.section	.text._default_exit,"ax",%progbits
 301      0080AFF3 
 301      0080AFF3 
 301      0080
 302              		.align	2
 303              		.p2align 4,,15
 304              		.weak	_default_exit
 305              		.thumb
 306              		.thumb_func
 307              		.type	_default_exit, %function
 308              	_default_exit:
 309              	.LFB2:
 310              		.loc 1 249 0
 311              		.cfi_startproc
 312              		@ Volatile: function does not return.
 313              		@ args = 0, pretend = 0, frame = 0
 314              		@ frame_needed = 0, uses_anonymous_args = 0
 315              		@ link register save eliminated.
 316              	.L4:
 317 0000 FEE7     		b	.L4
 318              		.cfi_endproc
 319              	.LFE2:
 320              		.size	_default_exit, .-_default_exit
 321 0002 00BFAFF3 		.section	.text.Reset_Handler,"ax",%progbits
 321      0080AFF3 
 321      0080AFF3 
 321      0080
 322              		.align	2
 323              		.p2align 4,,15
 324              		.global	Reset_Handler
 325              		.thumb
 326              		.thumb_func
 327              		.type	Reset_Handler, %function
 328              	Reset_Handler:
 329              	.LFB3:
 330              		.loc 1 260 0
 331              		.cfi_startproc
 332              		@ Naked Function: prologue and epilogue provided by programmer.
 333              		@ args = 0, pretend = 0, frame = 0
 334              		@ frame_needed = 0, uses_anonymous_args = 0
 335              		.loc 1 266 0
 336              	@ 266 "../ChibiOS/os/common/ports/ARMCMx/compilers/GCC/crt0.c" 1
 337 0000 72B6     		cpsid   i
 338              	@ 0 "" 2
 339              		.loc 1 267 0
 340              		.thumb
 341 0002 634C     		ldr	r4, .L67
 342              	.LVL0:
 343              		.loc 1 268 0
 344              	@ 268 "../ChibiOS/os/common/ports/ARMCMx/compilers/GCC/crt0.c" 1
 345 0004 84F30988 		msr     PSP, r4
 346              	@ 0 "" 2
 347              	.LVL1:
ARM GAS  /tmp/cckjJ1oB.s 			page 21


 348              		.loc 1 288 0
 349              		.thumb
 350 0008 0223     		movs	r3, #2
 351              	@ 288 "../ChibiOS/os/common/ports/ARMCMx/compilers/GCC/crt0.c" 1
 352 000a 83F31488 		msr     CONTROL, r3
 353              	@ 0 "" 2
 354              		.loc 1 289 0
 355              	@ 289 "../ChibiOS/os/common/ports/ARMCMx/compilers/GCC/crt0.c" 1
 356 000e BFF36F8F 		isb
 357              	@ 0 "" 2
 358              		.loc 1 292 0
 359              		.thumb
 360 0012 FFF7FEFF 		bl	__early_init
 361              	.LVL2:
 362              	.LBB2:
 363              		.loc 1 296 0
 364 0016 5F48     		ldr	r0, .L67+4
 365 0018 5F49     		ldr	r1, .L67+8
 366 001a 8842     		cmp	r0, r1
 367 001c 18D2     		bcs	.L10
 368              	.LBE2:
 369              	.LBB3:
 370              		.loc 1 260 0
 371 001e CA1C     		adds	r2, r1, #3
 372 0020 051D     		adds	r5, r0, #4
 373 0022 561B     		subs	r6, r2, r5
 374 0024 26F00307 		bic	r7, r6, #3
 375 0028 0346     		mov	r3, r0
 376 002a 3818     		adds	r0, r7, r0
 377              	.LBE3:
 378              	.LBB4:
 379              		.loc 1 296 0
 380 002c 4FF05531 		mov	r1, #1431655765
 381 0030 8342     		cmp	r3, r0
 382 0032 1960     		str	r1, [r3, #0]
 383              	.LVL3:
 384 0034 C7F38002 		ubfx	r2, r7, #2, #1
 385 0038 0AD0     		beq	.L10
 386 003a 1AB1     		cbz	r2, .L9
 387 003c 8542     		cmp	r5, r0
 388 003e 2B46     		mov	r3, r5
 389 0040 2960     		str	r1, [r5, #0]
 390 0042 05D0     		beq	.L10
 391              	.L9:
 392 0044 1D1D     		adds	r5, r3, #4
 393              		.loc 1 296 0 is_stmt 0 discriminator 2
 394 0046 5960     		str	r1, [r3, #4]
 395 0048 0833     		adds	r3, r3, #8
 396 004a 8342     		cmp	r3, r0
 397 004c 6960     		str	r1, [r5, #4]
 398 004e F9D1     		bne	.L9
 399              	.L10:
 400              	.LVL4:
 401              	.LBE4:
 402              	.LBB5:
 403              		.loc 1 299 0 is_stmt 1
 404 0050 524E     		ldr	r6, .L67+12
ARM GAS  /tmp/cckjJ1oB.s 			page 22


 405 0052 A642     		cmp	r6, r4
 406 0054 18D2     		bcs	.L8
 407              	.LBE5:
 408              	.LBB6:
 409              		.loc 1 260 0
 410 0056 5249     		ldr	r1, .L67+16
 411 0058 371D     		adds	r7, r6, #4
 412 005a C81B     		subs	r0, r1, r7
 413 005c 20F00302 		bic	r2, r0, #3
 414 0060 3346     		mov	r3, r6
 415 0062 9519     		adds	r5, r2, r6
 416              	.LBE6:
 417              	.LBB7:
 418              		.loc 1 299 0
 419 0064 4FF05534 		mov	r4, #1431655765
 420 0068 AB42     		cmp	r3, r5
 421 006a 3460     		str	r4, [r6, #0]
 422              	.LVL5:
 423 006c C2F38006 		ubfx	r6, r2, #2, #1
 424 0070 0AD0     		beq	.L8
 425 0072 1EB1     		cbz	r6, .L13
 426 0074 AF42     		cmp	r7, r5
 427 0076 3B46     		mov	r3, r7
 428 0078 3C60     		str	r4, [r7, #0]
 429 007a 05D0     		beq	.L8
 430              	.L13:
 431 007c 1F1D     		adds	r7, r3, #4
 432              		.loc 1 299 0 is_stmt 0 discriminator 2
 433 007e 5C60     		str	r4, [r3, #4]
 434 0080 0833     		adds	r3, r3, #8
 435 0082 AB42     		cmp	r3, r5
 436 0084 7C60     		str	r4, [r7, #4]
 437 0086 F9D1     		bne	.L13
 438              	.L8:
 439              	.LVL6:
 440              	.LBE7:
 441              	.LBB8:
 442              		.loc 1 311 0 is_stmt 1
 443 0088 4649     		ldr	r1, .L67+20
 444 008a 4748     		ldr	r0, .L67+24
 445 008c 8142     		cmp	r1, r0
 446 008e 1BD2     		bcs	.L12
 447              	.LBE8:
 448              	.LBB9:
 449              		.loc 1 260 0
 450 0090 C21C     		adds	r2, r0, #3
 451 0092 0C1D     		adds	r4, r1, #4
 452 0094 151B     		subs	r5, r2, r4
 453 0096 454F     		ldr	r7, .L67+28
 454 0098 25F00300 		bic	r0, r5, #3
 455              	.LBE9:
 456              	.LBB10:
 457              		.loc 1 312 0
 458 009c 3A68     		ldr	r2, [r7, #0]
 459 009e 061D     		adds	r6, r0, #4
 460 00a0 0423     		movs	r3, #4
 461              		.loc 1 311 0
ARM GAS  /tmp/cckjJ1oB.s 			page 23


 462 00a2 B342     		cmp	r3, r6
 463              		.loc 1 312 0
 464 00a4 0A60     		str	r2, [r1, #0]
 465              	.LVL7:
 466 00a6 C0F38005 		ubfx	r5, r0, #2, #1
 467              		.loc 1 311 0
 468 00aa 0DD0     		beq	.L12
 469 00ac 25B1     		cbz	r5, .L16
 470              		.loc 1 312 0
 471 00ae 7868     		ldr	r0, [r7, #4]
 472 00b0 0823     		movs	r3, #8
 473              		.loc 1 311 0
 474 00b2 B342     		cmp	r3, r6
 475              		.loc 1 312 0
 476 00b4 2060     		str	r0, [r4, #0]
 477              		.loc 1 311 0
 478 00b6 07D0     		beq	.L12
 479              	.L16:
 480              		.loc 1 312 0
 481 00b8 DD59     		ldr	r5, [r3, r7]
 482 00ba 1A1D     		adds	r2, r3, #4
 483 00bc 5D50     		str	r5, [r3, r1]
 484 00be BC58     		ldr	r4, [r7, r2]
 485 00c0 0833     		adds	r3, r3, #8
 486              		.loc 1 311 0
 487 00c2 B342     		cmp	r3, r6
 488              		.loc 1 312 0
 489 00c4 8C50     		str	r4, [r1, r2]
 490              		.loc 1 311 0
 491 00c6 F7D1     		bne	.L16
 492              	.L12:
 493              	.LVL8:
 494              	.LBE10:
 495              	.LBB11:
 496              		.loc 1 318 0
 497 00c8 394F     		ldr	r7, .L67+32
 498 00ca 3A49     		ldr	r1, .L67+36
 499 00cc 8F42     		cmp	r7, r1
 500 00ce 17D2     		bcs	.L15
 501              	.LBE11:
 502              	.LBB12:
 503              		.loc 1 260 0
 504 00d0 CE1C     		adds	r6, r1, #3
 505 00d2 3D1D     		adds	r5, r7, #4
 506 00d4 701B     		subs	r0, r6, r5
 507 00d6 20F00302 		bic	r2, r0, #3
 508 00da 3B46     		mov	r3, r7
 509 00dc D719     		adds	r7, r2, r7
 510              	.LBE12:
 511              	.LBB13:
 512              		.loc 1 318 0
 513 00de 0024     		movs	r4, #0
 514 00e0 BB42     		cmp	r3, r7
 515 00e2 1C60     		str	r4, [r3, #0]
 516              	.LVL9:
 517 00e4 C2F38001 		ubfx	r1, r2, #2, #1
 518 00e8 0AD0     		beq	.L15
ARM GAS  /tmp/cckjJ1oB.s 			page 24


 519 00ea 19B1     		cbz	r1, .L19
 520 00ec BD42     		cmp	r5, r7
 521 00ee 2B46     		mov	r3, r5
 522 00f0 2C60     		str	r4, [r5, #0]
 523 00f2 05D0     		beq	.L15
 524              	.L19:
 525 00f4 1E1D     		adds	r6, r3, #4
 526              		.loc 1 318 0 is_stmt 0 discriminator 2
 527 00f6 5C60     		str	r4, [r3, #4]
 528 00f8 0833     		adds	r3, r3, #8
 529 00fa BB42     		cmp	r3, r7
 530 00fc 7460     		str	r4, [r6, #4]
 531 00fe F9D1     		bne	.L19
 532              	.L15:
 533              	.LBE13:
 534              		.loc 1 322 0 is_stmt 1
 535 0100 FFF7FEFF 		bl	__late_init
 536              	.LVL10:
 537              	.LBB14:
 538              		.loc 1 328 0
 539 0104 2C4D     		ldr	r5, .L67+40
 540 0106 2D48     		ldr	r0, .L67+44
 541 0108 8542     		cmp	r5, r0
 542 010a 1CD2     		bcs	.L18
 543              	.LBE14:
 544              	.LBB15:
 545              		.loc 1 260 0
 546 010c C21C     		adds	r2, r0, #3
 547 010e 2E1D     		adds	r6, r5, #4
 548 0110 941B     		subs	r4, r2, r6
 549 0112 A108     		lsrs	r1, r4, #2
 550 0114 4F1C     		adds	r7, r1, #1
 551 0116 0124     		movs	r4, #1
 552              	.LBE15:
 553              	.LBB16:
 554              		.loc 1 329 0
 555 0118 2B68     		ldr	r3, [r5, #0]
 556 011a 01EA0408 		and	r8, r1, r4
 557 011e 9847     		blx	r3
 558              	.LVL11:
 559              		.loc 1 328 0
 560 0120 BC42     		cmp	r4, r7
 561 0122 10D0     		beq	.L18
 562 0124 B8F1000F 		cmp	r8, #0
 563 0128 05D0     		beq	.L22
 564              		.loc 1 329 0
 565 012a 3068     		ldr	r0, [r6, #0]
 566 012c 0224     		movs	r4, #2
 567 012e 8047     		blx	r0
 568              	.LVL12:
 569              		.loc 1 328 0
 570 0130 BC42     		cmp	r4, r7
 571 0132 3546     		mov	r5, r6
 572 0134 07D0     		beq	.L18
 573              	.L22:
 574              		.loc 1 329 0
 575 0136 6A68     		ldr	r2, [r5, #4]
ARM GAS  /tmp/cckjJ1oB.s 			page 25


 576 0138 9047     		blx	r2
 577              	.LVL13:
 578 013a 0234     		adds	r4, r4, #2
 579 013c AE68     		ldr	r6, [r5, #8]
 580 013e B047     		blx	r6
 581              	.LVL14:
 582 0140 0835     		adds	r5, r5, #8
 583              		.loc 1 328 0
 584 0142 BC42     		cmp	r4, r7
 585 0144 F7D1     		bne	.L22
 586              	.L18:
 587              	.LBE16:
 588              		.loc 1 336 0
 589 0146 FFF7FEFF 		bl	main
 590              	.LVL15:
 591              	.LBB17:
 592              		.loc 1 342 0
 593 014a 1D4D     		ldr	r5, .L67+48
 594 014c 1D49     		ldr	r1, .L67+52
 595 014e 8D42     		cmp	r5, r1
 596 0150 1CD2     		bcs	.L21
 597              	.LBE17:
 598              		.loc 1 260 0
 599 0152 CF1C     		adds	r7, r1, #3
 600 0154 2E1D     		adds	r6, r5, #4
 601 0156 BB1B     		subs	r3, r7, r6
 602 0158 9808     		lsrs	r0, r3, #2
 603 015a 471C     		adds	r7, r0, #1
 604 015c 0124     		movs	r4, #1
 605              	.LBB18:
 606              		.loc 1 343 0
 607 015e 2A68     		ldr	r2, [r5, #0]
 608 0160 00EA0408 		and	r8, r0, r4
 609 0164 9047     		blx	r2
 610              	.LVL16:
 611              		.loc 1 342 0
 612 0166 BC42     		cmp	r4, r7
 613 0168 10D0     		beq	.L21
 614 016a B8F1000F 		cmp	r8, #0
 615 016e 05D0     		beq	.L23
 616              		.loc 1 343 0
 617 0170 3168     		ldr	r1, [r6, #0]
 618 0172 0224     		movs	r4, #2
 619 0174 8847     		blx	r1
 620              	.LVL17:
 621              		.loc 1 342 0
 622 0176 BC42     		cmp	r4, r7
 623 0178 3546     		mov	r5, r6
 624 017a 07D0     		beq	.L21
 625              	.L23:
 626              		.loc 1 343 0
 627 017c 6E68     		ldr	r6, [r5, #4]
 628 017e B047     		blx	r6
 629              	.LVL18:
 630 0180 0234     		adds	r4, r4, #2
 631 0182 AB68     		ldr	r3, [r5, #8]
 632 0184 9847     		blx	r3
ARM GAS  /tmp/cckjJ1oB.s 			page 26


 633              	.LVL19:
 634 0186 0835     		adds	r5, r5, #8
 635              		.loc 1 342 0
 636 0188 BC42     		cmp	r4, r7
 637 018a F7D1     		bne	.L23
 638              	.L21:
 639              	.LBE18:
 640              		.loc 1 350 0
 641 018c FFF7FEFF 		bl	_default_exit
 642              	.LVL20:
 643              	.L68:
 644              		.align	2
 645              	.L67:
 646 0190 00000000 		.word	__process_stack_end__
 647 0194 00000000 		.word	__main_stack_base__
 648 0198 00000000 		.word	__main_stack_end__
 649 019c 00000000 		.word	__process_stack_base__
 650 01a0 03000000 		.word	__process_stack_end__+3
 651 01a4 00000000 		.word	_data
 652 01a8 00000000 		.word	_edata
 653 01ac 00000000 		.word	_textdata
 654 01b0 00000000 		.word	_bss_start
 655 01b4 00000000 		.word	_bss_end
 656 01b8 00000000 		.word	__init_array_start
 657 01bc 00000000 		.word	__init_array_end
 658 01c0 00000000 		.word	__fini_array_start
 659 01c4 00000000 		.word	__fini_array_end
 660              		.cfi_endproc
 661              	.LFE3:
 662              		.size	Reset_Handler, .-Reset_Handler
 663 01c8 AFF30080 		.text
 663      AFF30080 
 664              	.Letext0:
 665              		.file 2 "/home/laurence/ARM-GCC/bin/../lib/gcc/arm-none-eabi/4.7.4/../../../../arm-none-eabi/inclu