ARM GAS  /tmp/ccvAjtcb.s 			page 1


   1              		.syntax unified
   2              		.cpu cortex-m3
   3              		.fpu softvfp
   4              		.eabi_attribute 20, 1
   5              		.eabi_attribute 21, 1
   6              		.eabi_attribute 23, 3
   7              		.eabi_attribute 24, 1
   8              		.eabi_attribute 25, 1
   9              		.eabi_attribute 26, 1
  10              		.eabi_attribute 30, 2
  11              		.eabi_attribute 34, 1
  12              		.eabi_attribute 18, 4
  13              		.thumb
  14              		.file	"nvic.c"
  15              		.text
  16              	.Ltext0:
  17              		.section	.gnu.lto_.jmpfuncs.f8b534c8bfdef4f0,"",%progbits
  18 0000 789C6362 		.ascii	"x\234cb`d`g\300\0168\24043\0033##\0233\003\000\002\205"
  18      60646067 
  18      C00E38A0 
  18      34330333 
  18      23231333 
  19 0018 0020     		.ascii	"\000 "
  20              		.text
  21              		.section	.gnu.lto_.inline.f8b534c8bfdef4f0,"",%progbits
  22 0000 789C6362 		.ascii	"x\234cb`d\340e\300\016\302\24043\003\003\027'#\023#"
  22      6064E065 
  22      C00EC2A0 
  22      34330303 
  22      17272313 
  23 0015 23900DC4 		.ascii	"#\220\015\304,l\037\364\030\330\026\310310]\340ga\000"
  23      2C6C1FF4 
  23      18D816C8 
  23      3331305D 
  23      E0676100 
  24 0029 F23880C2 		.ascii	"\3628\200\302\034\354@y\240,3\313\002y\210,P\202\205"
  24      1CEC4079 
  24      A02C33CB 
  24      0279882C 
  24      508285
  25 003c 81898195 		.ascii	"\201\211\201\225\205\221\021\244\225\031\250\032I\033"
  25      859111A4 
  25      9519A81A 
  25      491B
  26 004a 0300A17F 		.ascii	"\003\000\241\177\011\352"
  26      09EA
  27              		.text
  28              		.section	.gnu.lto_.pureconst.f8b534c8bfdef4f0,"",%progbits
  29 0000 789C6362 		.ascii	"x\234cb`d`f```g\200\000f\006)F)&)\000\002\003\000b"
  29      60646066 
  29      60606067 
  29      80006606 
  29      29462926 
  30              		.text
  31              		.section	.gnu.lto_nvicEnableVector.f8b534c8bfdef4f0,"",%progbits
  32 0000 789CAD92 		.ascii	"x\234\255\222\277k\024A\024\307\277of6\233\273\005\021"
  32      BF6B1441 
ARM GAS  /tmp/ccvAjtcb.s 			page 2


  32      14C7BF6F 
  32      66369BBB 
  32      0511
  33 0012 0B496C12 		.ascii	"\013Il\022\202\235x\253 \006\354$M,\202$by\212.\201"
  33      829D78AB 
  33      2006EC24 
  33      4D2C8224 
  33      62798A2E 
  34 0027 1C98DB90 		.ascii	"\034\230\333\220\210\244\273u/\177\300\221&\230B\214"
  34      88A4BB75 
  34      2F7FC091 
  34      2698428C 
  35 0037 A21E31A4 		.ascii	"\242\0361\244V\033\345l\344\010ica\221\302\"B\012\213"
  35      561BE56C 
  35      E4086963 
  35      6191C222 
  35      420A8B
  36 004a EB2CCEF7 		.ascii	"\353,\316\367fw5\334]$\011\231e\370\316\314{\237\367"
  36      667735DC 
  36      5D240999 
  36      65F8CECC 
  36      7B9FF7
  37 005d 63761488 		.ascii	"cv\024\210\277\3561\310\363\271\001n\260\222\006\251"
  37      BFEE31C8 
  37      F3B9016E 
  37      B09206A9 
  38 006d DA36F074 		.ascii	"\3326\360tX\021\311\202\221\212\242\312]K\346F\260\026"
  38      5811C982 
  38      918AA2CA 
  38      5D4BE646 
  38      B016
  39 007f 45CBBF1A 		.ascii	"E\313\277\032\361@\274\333n\017M\313\351}B\363\367G"
  39      F140BCDB 
  39      6E0F4DCB 
  39      E97D42F3 
  39      F747
  40 0091 1AC43411 		.ascii	"\032\3044\021\372!\252:\023\035\302\341\010P\355K<\236"
  40      FA21AA3A 
  40      131DC2E1 
  40      0850ED4B 
  40      3C9E
  41 00a3 42DA423F 		.ascii	"B\332B?V\362\0116\234b\246\007V;\200\031\205+$d\335"
  41      56F20936 
  41      9C62A607 
  41      563B8019 
  41      852B2464 
  42 00b8 3D2678B0 		.ascii	"=&x\260\310S\207\272;\333s\216G9\226j\255\366\235\004"
  42      C85387BA 
  42      3BDB738E 
  42      4739966A 
  42      ADF69D04 
  43 00cc FB7F855B 		.ascii	"\373\177\205[;\027Z\243\237\324\347\335v\345\"^\011"
  43      3B175AA3 
  43      9FD4E7DD 
  43      76E5225E 
  43      09
  44 00dd 5F8DC619 		.ascii	"_\215\306\031U\270f\257rk\345\\7O\035\256\327\255\353"
ARM GAS  /tmp/ccvAjtcb.s 			page 3


  44      55B866AF 
  44      726BE55C 
  44      374F1DAE 
  44      D7ADEB
  45 00f0 57AF4726 		.ascii	"W\257G&\251B\346yB\221\3524\002EE\332\340\000\232\367"
  45      A942E679 
  45      4291EA34 
  45      024545DA 
  45      E0009AF7 
  46 0104 2F786F58 		.ascii	"/xoX\327X\035>_\347s\227\367/y\237c}\315\232g}\303\352"
  46      D7581D3E 
  46      5FE77397 
  46      F72F799F 
  46      637DCD9A 
  47 011c B1BE65E5 		.ascii	"\261\276e\345\341`)\212\316\332\336dL\212\312\023\236"
  47      E160298A 
  47      CEDADE64 
  47      4C8ACA13 
  47      9E
  48 012d E2A4B2D0 		.ascii	"\342\244\262\320M\304?\365\367\035\257H\233\234: \035"
  48      4DC43FF5 
  48      F71DAF48 
  48      9B9C3A20 
  48      1D
  49 013e 88A589EA 		.ascii	"\210\245\211\352;\311\232\234\031>\226:\373l\235M4n"
  49      3BC99A9C 
  49      193E963A 
  49      FB6C9D4D 
  49      346E
  50 0150 A5261F9B 		.ascii	"\245&\037\233\321\022\261\301\\\302\272]\271z\025\317"
  50      D112B1C1 
  50      5CC2BA5D 
  50      B97A15CF 
  51 0160 58FB9500 		.ascii	"X\373\225\0009D\215jt\006\311\032X\344y/{\321\201\\"
  51      39448D6A 
  51      7406C91A 
  51      58E4792F 
  51      7BD1815C 
  52 0174 3AF05EDB 		.ascii	":\360^\333\265\261I74\277\344,\255\313\036B\03286m\365"
  52      B5B14937 
  52      34BFE42C 
  52      ADCB1E42 
  52      1A38366D 
  53 0189 83AEBBE2 		.ascii	"\203\256\273\342K\251\301\301\2205\304\373\377j\315"
  53      4BA9C1C1 
  53      9035C4FB 
  53      FF6ACD
  54 0198 B1B9B3FE 		.ascii	"\261\271\263\376|\022\205\304\234\372\3579\231\321c"
  54      7C1285C4 
  54      9CFAEF39 
  54      99D163
  55 01a7 7BCFA6F2 		.ascii	"{\317\246\362\177\233\362\216\320\024eM\271\"\337\222"
  55      7F9BF28E 
  55      D014654D 
  55      B922DF92 
  56 01b7 A6BC24F0 		.ascii	"\246\274$\360~v\275'\013\255\016\011\275\015j\215&\201"
  56      7E76BD27 
ARM GAS  /tmp/ccvAjtcb.s 			page 4


  56      0BAD0E09 
  56      BD0D6A8D 
  56      2681
  57 01c9 B3312975 		.ascii	"\2631)u\360o\025\344r\241\340\217\315\224\036\226n\337"
  57      F06F15E4 
  57      72A1E08F 
  57      CD941E96 
  57      6EDF
  58 01db F1C3057F 		.ascii	"\361\303\005\177\346\301#\177.\234\177\274\340\007\341"
  58      E6C1237F 
  58      2E9C7FBC 
  58      E007E1
  59 01ea EC6C58F6 		.ascii	"\354lX\366oNM\214M,\372\345'\245\240\020@\227\013W\251"
  59      6F4E4D8C 
  59      4D2CFAE5 
  59      27A5A010 
  59      40970B57 
  60 01ff 6CE6E64B 		.ascii	"l\346\346K\341\037\211\375\364\314"
  60      E11F89FD 
  60      F4CC
  61              		.text
  62              		.section	.gnu.lto_nvicDisableVector.f8b534c8bfdef4f0,"",%progbits
  63 0000 789CB552 		.ascii	"x\234\265R=,\004Q\020\376\346\275\333]DD\241Q\021\321"
  63      3D2C0451 
  63      10FEE6BD 
  63      DB5D4444 
  63      A15111D1 
  64 0014 895B05A1 		.ascii	"\211[\005\241\025\015\205\010\242D\330\\\342\022\356"
  64      150D8508 
  64      A244D85C 
  64      E212EE
  65 0023 0411DDAD 		.ascii	"\004\021\335\255\273\353]Tw*\234\177\242P\241!\250D"
  65      BBEB5D54 
  65      772A9C7F 
  65      A250A121 
  65      A844
  66 0035 D44AA5E2 		.ascii	"\324J\245\342J\245\344\314\274\275\363\023\"\024f\263"
  66      4AA5E4CC 
  66      BCBDF313 
  66      221466B3 
  67 0045 F9E6CD37 		.ascii	"\371\346\3157\3377\273\357=\005\342\347k\324\363\333"
  67      DF37BBEF 
  67      3D05E2E7 
  67      6BD4F3DB 
  68 0055 A9810E46 		.ascii	"\251\201\016F\322 \225\271\007\226\033\025\221$,I(J"
  68      D22095B9 
  68      07961B15 
  68      91242C49 
  68      284A
  69 0067 8C18A5DD 		.ascii	"\214\030\245\335\204\015\337_\315\\'{\223\217\305bC"
  69      840DDF5F 
  69      CD5C277B 
  69      938FC562 
  69      43
  70 0078 44AAE384 		.ascii	"D\252\343\204\333\225|]=\"Dh\204\240B\350\363\014\243"
  70      DB957C5D 
  70      3D224468 
ARM GAS  /tmp/ccvAjtcb.s 			page 5


  70      84A042E8 
  70      F30CA3
  71 008b CB7CD069 		.ascii	"\313|\320i\2056\022\351\236\363G\241\031\210\177\022"
  71      853612E9 
  71      9EF347A1 
  71      19887F12 
  72 009b 7DFDB527 		.ascii	"}\375\265'\353o\252\220Q=\257\331?\312\012\331\023u"
  72      EB6FAA90 
  72      513DAFD9 
  72      3FCA0AD9 
  72      1375
  73 00ad 97B32FD4 		.ascii	"\227\263/\324\345c1\321\214\274x\244\374^\226+\264\233"
  73      E56331D1 
  73      8CBC78A4 
  73      FC5E962B 
  73      B49B
  74 00bf 7D296477 		.ascii	"})dw\3247\0262\240\2320J;\324\004E\243\264K\315\320"
  74      D4371632 
  74      A09A304A 
  74      3BD40445 
  74      A3B44BCD 
  75 00d4 BC5EE7B5 		.ascii	"\274^\347\265\305\230g\264\031\267\030\035\306mF\016"
  75      C59867B4 
  75      19B7181D 
  75      C66D460E 
  76 00e4 0B69DFAF 		.ascii	"\013i\337\2575\273 1((\307;\304\306\222\350[\244\216"
  76      35BB2031 
  76      2828C73B 
  76      C4C692E8 
  76      5BA48E
  77 00f7 F44B7693 		.ascii	"\364Kv\223-\367\311\202G\332#\363\001\232\265\000\323"
  77      2DF7C982 
  77      47DA23F3 
  77      019AB500 
  77      D3
  78 0108 677ACF01 		.ascii	"gz\317\001\023T\"Bh0D\262 \363\003\221\305\264i>|\257"
  78      13542242 
  78      683044B2 
  78      20F30391 
  78      C5B4693E 
  79 011e D9810B09 		.ascii	"\331\201\013\011]\352\177\262\312\244\303\274\024\257"
  79      5DEA7FB2 
  79      CAA4C3BC 
  79      14AF
  80 012c FA4AFD2E 		.ascii	"\372J\375.\216\3754E\310\012\265\340\300d\266^C\216"
  80      8EFD3445 
  80      C80AB5E0 
  80      C064B65E 
  80      438E
  81 013e D131532B 		.ascii	"\3211S+\340_\245\374\032\0049\260\304\357X\371Z{r\322"
  81      E05FA5FC 
  81      1A0439B0 
  81      C4EF58F9 
  81      5A7B72D2 
  82 0152 C08336B9 		.ascii	"\300\2036\271c\214\273nr\347\364\331\273\362\315\273"
  82      638CBB6E 
  82      72E7F4D9 
ARM GAS  /tmp/ccvAjtcb.s 			page 6


  82      BBF2CDBB 
  83 0162 EA17DE54 		.ascii	"\352\027\336T\366V\002\247\032\301E\2524\325{\020\237"
  83      F65602A7 
  83      1AC145AA 
  83      34D57B10 
  83      9F
  84 0173 63605F8E 		.ascii	"c`_\216A\221\360\236J\177k8\354\366LE'\243\003\303n"
  84      4191F09E 
  84      4A7F6B38 
  84      ECF64C45 
  84      27A303C3 
  85 0188 7CDE9D9A 		.ascii	"|\336\235\232\230vg\343s\013\363\256\027\237\231\211"
  85      987667E3 
  85      730BF3AE 
  85      179F9989 
  86 0198 C7DCEEA1 		.ascii	"\307\334\356\241\376\236\376%7\266\030\365\302\036t"
  86      FE9EFE25 
  86      37B618F5 
  86      C21E74
  87 01a7 2CDC46B1 		.ascii	",\334F\261W\376\267\260\243"
  87      57FEB7B0 
  87      A3
  88              		.text
  89              		.section	.gnu.lto_nvicSetSystemHandlerPriority.f8b534c8bfdef4f0,"",%progbits
  90 0000 789C7D50 		.ascii	"x\234}P=K\003A\020\235\331\275|\024\242Vb*C\260\023"
  90      3D4B0341 
  90      109DD9BD 
  90      7C14A256 
  90      622A43B0 
  91 0015 B3961636 		.ascii	"\263\226\0266\222F\213 \211XF\211\347\301\035$\271\020"
  91      92468B20 
  91      89584689 
  91      E7C11D24 
  91      B910
  92 0027 45ECB226 		.ascii	"E\354\262&\371\001\301\316\253\214\212\205\242\205\205"
  92      F901C1CE 
  92      AB8C8A85 
  92      A28585
  93 0036 D829298F 		.ascii	"\330))\217\220\302\322*`\243`!b\037g\367\222&A\347\030"
  93      90C2D22A 
  93      60A36021 
  93      621F67F7 
  93      922641E7 
  94 004b DE6366DE 		.ascii	"\336cf\336\333\271a\200\364\215G\214\362\205\032+\204"
  94      DBB96180 
  94      F48D478C 
  94      F2851A2B 
  94      84
  95 005c C80159B3 		.ascii	"\310\001Y\263\013p\034g\210\212\220\244\312\260\272"
  95      0B701C67 
  95      888A90A4 
  95      CAB0BA
  96 006b A5952C01 		.ascii	"\245\225,\001-)O\276\332\265\331Z\257\337\237\263Tu"
  96      2D294FBE 
  96      DAB5D95A 
  96      AFDF9FB3 
  96      5475
ARM GAS  /tmp/ccvAjtcb.s 			page 7


  97 007d 07C1BF7D 		.ascii	"\007\301\277}\233\211\201\205\010QP\310F\037\372C\007"
  97      9B898185 
  97      085150C8 
  97      461FFA43 
  97      07
  98 008e FF8A3ADE 		.ascii	"\377\212:\336\375\304\217\027~b\317\275~u\036.\310\241"
  98      FDC48F17 
  98      7E62CFBD 
  98      7E751E2E 
  98      C8A1
  99 00a0 59976B16 		.ascii	"Y\227k\026r\006K\250\364\035\357\233\005\026\361\201"
  99      72064BA8 
  99      F41DEF9B 
  99      0516F181 
 100 00b0 85A1361E 		.ascii	"\205\2416\036\231]\326\263\357S\343\223D\270\316(\303"
 100      995DD6B3 
 100      EF53E393 
 100      44B8CE28 
 100      C3
 101 00c1 1C5E9290 		.ascii	"\034^\222\220C\016\3170A\335\034\266\010CT?\247:E\010"
 101      430ECF30 
 101      41DD1CB6 
 101      0843543F 
 101      A73A4508 
 102 00d5 1A524EA3 		.ascii	"\032RN\243\243\335td\024\252#e\311O\021\356C\355\203"
 102      A3DD7464 
 102      14AA2365 
 102      C94F11EE 
 102      43ED83
 103 00e8 7F7A0FA4 		.ascii	"\177z\017\244\272\302\020\230\310M\325\362\241~\243"
 103      BAC21098 
 103      C84DD5F2 
 103      A17EA3
 104 00f7 9C839A41 		.ascii	"\234\203\232Ae\265\203\241w\360\241\275>h\011\270\223"
 104      65B583A1 
 104      77F0A1BD 
 104      3E6809B8 
 104      93
 105 0108 0DA486B1 		.ascii	"\015\244\206\261\000\327\232\205\270\007\247\204a\375"
 105      00D79A85 
 105      B807A784 
 105      61FD
 106 0116 9B1190AF 		.ascii	"\233\021\220\257u9\011\001\007\260)\267\207G3\311\200"
 106      75390901 
 106      07B029B7 
 106      874733C9 
 106      80
 107 0127 E2916B4E 		.ascii	"\342\221kN\316]@\272^\340<\214\014\035@-J;\301b2)R\266"
 107      CE5D40BA 
 107      5EE03C8C 
 107      0C1D402D 
 107      4A3BC162 
 108 013f B3EB6C6C 		.ascii	"\263\353ll\012w_\330\371\202(\273\225\203}a\272\305"
 108      0A775FD8 
 108      F98228BB 
 108      95837D61 
 108      BAC5
ARM GAS  /tmp/ccvAjtcb.s 			page 8


 109 0151 A25B12AB 		.ascii	"\242[\022\253\331t*}$J\207\216\2314!b\347K{\005\253"
 109      D9742A7D 
 109      244A878E 
 109      99342162 
 109      E74B7B05 
 110 0166 62942B8E 		.ascii	"b\224+\216\373\013\205\254q\276"
 110      FB0B85AC 
 110      71BE
 111              		.text
 112              		.section	.gnu.lto_.cgraph.f8b534c8bfdef4f0,"",%progbits
 113 0000 789C6362 		.ascii	"x\234cb`d`f``\320a\200\002\246\343\214\365\014\014\023"
 113      60646066 
 113      6060D061 
 113      8002A6E3 
 113      8CF50C0C 
 114 0015 CE31D4D7 		.ascii	"\3161\324\327\317\353`d:\301X\317\210\340\235d\254g"
 114      CFEB6064 
 114      3AC158CF 
 114      88E09D64 
 114      AC67
 115 0027 82F31800 		.ascii	"\202\363\030\000F\214\016\235"
 115      468C0E9D 
 116              		.text
 117              		.section	.gnu.lto_.vars.f8b534c8bfdef4f0,"",%progbits
 118 0000 789C6362 		.ascii	"x\234cb`d`f`\000\222P\000\000\000r\000\010"
 118      60646066 
 118      60009250 
 118      00000072 
 118      0008
 119              		.text
 120              		.section	.gnu.lto_.refs.f8b534c8bfdef4f0,"",%progbits
 121 0000 789C6362 		.ascii	"x\234cb`d`f```b\200\001\000\000\204\000\011"
 121      60646066 
 121      60606062 
 121      80010000 
 121      840009
 122              		.text
 123              		.section	.gnu.lto_.statics.f8b534c8bfdef4f0,"",%progbits
 124 0000 789C6362 		.ascii	"x\234cb`d`b\300\016@\342\214\020&\000\000\375\000\011"
 124      60646062 
 124      C00E40E2 
 124      8C102600 
 124      00FD0009 
 125              		.text
 126              		.section	.gnu.lto_.decls.f8b534c8bfdef4f0,"",%progbits
 127 0000 789CAD59 		.ascii	"x\234\255YmL\024G\030\236\331;>\256(~D-54b\243\266\261"
 127      6D4C1447 
 127      189ED93B 
 127      3EAE287E 
 127      442D3534 
 128 0018 81B58AD5 		.ascii	"\201\265\212\325?&\236\007\312\375\000\311\035\222T"
 128      3F269E07 
 128      CAFD00C9 
 128      1D9254
 129 0027 B239E13C 		.ascii	"\2629\341<\313%pG\216\243\321\177[0\006\215i\251\305"
 129      CB257047 
 129      8EA3D17F 
ARM GAS  /tmp/ccvAjtcb.s 			page 9


 129      5B30068D 
 129      69A9C5
 130 003a 94A68D39 		.ascii	"\224\246\2159\202\032\245-M[\354\2075\024\033Tj\260"
 130      821AA52D 
 130      4D5BEC87 
 130      35141B54 
 130      6AB0
 131 004c 92565BB5 		.ascii	"\222V[\265\246\022K\255\021\244Z\2611-\226\316\314\356"
 131      A6124BAD 
 131      11A45AB1 
 131      312D96CE 
 131      CCEE
 132 005e CEDCDEDD 		.ascii	"\316\334\336\335\334\336]\3340\357\315\356\316<\363"
 132      DCDE5DDC 
 132      30EFCDEE 
 132      CE3CF3
 133 006d BCCFCC3B 		.ascii	"\274\317\314;\373\356\"\000\010\360Q\210~\246\321\261"
 133      FBEE2200 
 133      08F05188 
 133      7EA6D1B1 
 134 007d 6421000B 		.ascii	"d!\000\013\004\000\314\350\332:\300\016\023*!TzP\351"
 134      0400CCE8 
 134      DA3AC00E 
 134      132A2154 
 134      7A50E9
 135 0090 05D107BE 		.ascii	"\005\321\007\2767\003\025\214\226\255\3263\200\202\323"
 135      3703158C 
 135      96ADD633 
 135      8082D3
 136 009f 85CA4954 		.ascii	"\205\312IT\372P9\215\312\035T\006Q9\247\342\336D\345"
 136      FA50398D 
 136      CA1D5406 
 136      5139A7E2 
 136      DE44E5
 137 00b2 0A2A67D5 		.ascii	"\012*g\325\376\241\030\370x\334,\025S\303\327\2605,"
 137      FEA118F8 
 137      78DC2C15 
 137      53C3D7B0 
 137      352C
 138 00c4 0D5B1B0B 		.ascii	"\015[\033\013\271\001\206U|\250bD\036\330\227\314\010"
 138      B9018655 
 138      7CA86244 
 138      1ED897CC 
 138      08
 139 00d5 DE1ADF31 		.ascii	"\336\032\3371T&PY\006\225\373@\375\355U\333?\017\365"
 139      54265059 
 139      0695FB40 
 139      FDED55DB 
 139      3F0FF5
 140 00e8 588BC021 		.ascii	"X\213\300!94\322\326\"\227<\232\236\316X\000\016\312"
 140      3934D2D6 
 140      22973C9A 
 140      9ECE5800 
 140      0ECA
 141 00fa E808ED91 		.ascii	"\350\010\355\221e\030\224\340\272\371\340\031 \301l"
 141      651894E0 
 141      BAF9E019 
ARM GAS  /tmp/ccvAjtcb.s 			page 10


 141      20C16C
 142 0109 0B0079A4 		.ascii	"\013\000y\2446\303\242x\000P\275\023.PU\306\234\201"
 142      36C3A278 
 142      0050BD13 
 142      2E5055C6 
 142      9C81
 143 011b 05B4CA72 		.ascii	"\005\264\312r3\356Z2\210H\305\356\267\024\034\226\345"
 143      33EE5A32 
 143      8848C5EE 
 143      B7141C96 
 143      E5
 144 012c 36340294 		.ascii	"64\002\224`\027\264\240\236\002\004\313\301q\231\034"
 144      6017B4A0 
 144      9E0204CB 
 144      C171991C 
 145 013c 2A35F527 		.ascii	"*5\365'\013t\357=1%\000u\270\014K8mr.\301\243p9P\306"
 145      0B74EF3D 
 145      31250075 
 145      B80C4B38 
 145      6D722EC1 
 146 0155 526E6B35 		.ascii	"Rnk5\274*f!1Un\312`\370\267\302\244\002\010`'T\001n"
 146      BC2A6621 
 146      31556ECA 
 146      60F8B7C2 
 146      A4020860 
 147 016d B53F58AD 		.ascii	"\265?X\255\\\\\002\272d\371\000\026C\243\367\005\304"
 147      5C5C02BA 
 147      64F90016 
 147      43A3F705 
 147      C4
 148 017e AD427011 		.ascii	"\255Bp\021h\265\304v\011Fw\372\212v\032\314\342\350"
 148      68B5C476 
 148      094677FA 
 148      8A761ACC 
 148      E2E8
 149 0190 A732527F 		.ascii	"\2472R\177\226\201#\330\377\376\346\034\2429P{\327\352"
 149      968123D8 
 149      FFFEE61C 
 149      A239507B 
 149      D7EA
 150 01a2 1C3E0685 		.ascii	"\034>\006\205'3q\037\353'N\341\000u\332\364AM\234\361"
 150      2733711F 
 150      EB274EE1 
 150      0075DAF4 
 150      414D9CF1 
 151 01b6 9CD8D248 		.ascii	"\234\330\322H\260\033\361\221`\017\342\331\301\221&"
 151      B01BF191 
 151      600FE2D9 
 151      C19126
 152 01c5 8E7B3D51 		.ascii	"\216{=Q\356}\022\317=e\265\011`\230\362\032Z\310\233"
 152      EE7D12CF 
 152      3D65B509 
 152      6098F21A 
 152      5AC89B
 153 01d8 B2BBA44D 		.ascii	"\262\273\244Mo\034\365\243\246L\202\037\022gp\247\333"
 153      6F1CF5A3 
 153      A64C821F 
ARM GAS  /tmp/ccvAjtcb.s 			page 11


 153      126770A7 
 153      DB
 154 01e9 B3529DB2 		.ascii	"\263R\235\262\336(\237N\350}\"!\322\"\217\034\221s:"
 154      DE289F4E 
 154      E87D2221 
 154      D2228F1C 
 154      91733A
 155 01fc C2422493 		.ascii	"\302B$\223\216\003u!\242FT\374\346\022\374\032.E\026"
 155      8E037521 
 155      A24654FC 
 155      E612FC1A 
 155      2E4516
 156 020f EAC301D2 		.ascii	"\352\303\001\322p\300\265i\210'\365!\025\257\373\370"
 156      70C0B569 
 156      8827F521 
 156      15AFFBF8 
 157 021f D8D31A47 		.ascii	"\330\323\032G\030\021W\206@s\000f'\347udK\360$\272\250"
 157      18115786 
 157      40730066 
 157      27E77564 
 157      4BF024BA 
 158 0234 F1926751 		.ascii	"\361\222gQb\367\224\020\016oy*nK\011~\003\3470\215d"
 158      62F79410 
 158      0E6F792A 
 158      6E4B097E 
 158      03E7308D 
 159 0249 751B216D 		.ascii	"u\033!m\370\013\271_\345\256]g\265?\241\316'\255!\230"
 159      F80BB95F 
 159      E5AE5D67 
 159      B53FA1CE 
 159      27AD2198 
 160 025d 0BDE228C 		.ascii	"\013\336\"\214\302w\250\320\010\244\375v\347\002\375"
 160      C277A8D0 
 160      08A4FD76 
 160      E702FD
 161 026c 26751ACE 		.ascii	"&u\032\316E\312=\246\312\365\035\276\361\2439\011,<"
 161      45CA3DA6 
 161      CAF51DBE 
 161      F1A33909 
 161      2C3C
 162 027e FA00C250 		.ascii	"\372\000\302Pz\023dYA\306W\201z}\340\302\016\020}\314"
 162      7A136459 
 162      41C65781 
 162      7A7DE0C2 
 162      0E107DCC 
 163 0292 5C0C42F2 		.ascii	"\\\014B\362\356\327\021\223\222tM\312\301lu\021\305"
 163      EED71193 
 163      92744DCA 
 163      C16C7511 
 163      C5
 164 02a3 DF672578 		.ascii	"\337g%x\230\254\212D6I:+\002\205\310\323M\037\236\207"
 164      98AC8A44 
 164      36493A2B 
 164      0285C8D3 
 164      4D1F9E87 
 165 02b7 AEF0E98B 		.ascii	"\256\360\351\213l(\301\357R\230\275\363\334\331\313"
 165      6C28C1EF 
ARM GAS  /tmp/ccvAjtcb.s 			page 12


 165      5298BDF3 
 165      DCD9CB
 166 02c6 D04D9ED6 		.ascii	"\320M\236\326\016\315\303g\002T\365\274t\341(\344\360"
 166      0ECDC367 
 166      0254F5BC 
 166      74E128E4 
 166      F0
 167 02d7 61781A66 		.ascii	"ax\032f6[\342XR2\271\341\222F\270\227N!\266\251\024"
 167      365BE258 
 167      5232B9E1 
 167      9246B897 
 167      4E21B6A9 
 168 02ec 2EA4E0DE 		.ascii	".\244\340\336\367\\\367\324\320C\376|I\375\271^\312"
 168      F75CF7D4 
 168      D043FE7C 
 168      49FDB95E 
 168      CA
 169 02fd 195EAF74 		.ascii	"\031^\257t\014o\324\005\"\301s\210\244\000\276\245\220"
 169      0C6FD405 
 169      22C17388 
 169      A400BEA5 
 169      90
 170 030e A3A50602 		.ascii	"\243\245\006\002\251\317[\276B\212\343\0028G1\307\215"
 170      A9CF5BBE 
 170      428AE302 
 170      384731C7 
 170      8D
 171 031f 6886B898 		.ascii	"h\206\270\230\021<\207)\346\244!O!A\236\227)\346\224"
 171      113C8729 
 171      E6A4214F 
 171      21419E97 
 171      29E694
 172 0332 214F2E66 		.ascii	"!O.f\004\317\033\024s\240\314\210\247)A\236\243\024"
 172      04CF1B14 
 172      73A0CC88 
 172      A729419E 
 172      A314
 173 0344 73A8CC88 		.ascii	"s\250\314\210'\0273\202\347\004\013\015C\236\346T##"
 173      27173382 
 173      E7040B0D 
 173      439EE654 
 173      2323
 174 0356 9B628C68 		.ascii	"\233b\214h\373\366\215\024Bc\204\033\032khh<`\241Q\306"
 174      FBF68D14 
 174      4263841B 
 174      1A6B6868 
 174      3C60A151 
 175 036b 1B9F8AC4 		.ascii	"\033\237\212\304u\210\210\224\203D\352#\"=f\301\301"
 175      75888894 
 175      8344EA23 
 175      223D66C1 
 175      C1
 176 037c 40231E46 		.ascii	"@#\036FT\245\364TU\352d\317\200\266y\252\313\277\247"
 176      54A5F454 
 176      55EA64CF 
 176      80B679AA 
 176      CBBFA7
ARM GAS  /tmp/ccvAjtcb.s 			page 13


 177 038f 20D32DAE 		.ascii	" \323-\256L-iT'\331Dc\263\214\313\200:\230\301\025\252"
 177      4C2D6954 
 177      27D94463 
 177      B38CCB80 
 177      3A98C115 
 178 03a4 05674348 		.ascii	"\005gCH\250A\222C\355\243\250\223e\261\011R\231rcAF"
 178      A8419243 
 178      EDA3A893 
 178      65B10952 
 178      99726341 
 179 03b9 1FE18F41 		.ascii	"\037\341\217A\011\236AO\247\231\022<\013\027\243\223"
 179      099E414F 
 179      A799123C 
 179      0B17A393 
 180 03c9 21628789 		.ascii	"!b\207\211\375\201\330K\304\376D\354\025b\257\021{\235"
 180      FD81D84B 
 180      C4FE44EC 
 180      1562AF11 
 180      7B9D
 181 03db D85F89BD 		.ascii	"\330_\211\275I\354(\261\267\221U\217,\260\217\275\206"
 181      49EC28B1 
 181      B791558F 
 181      2CB08FBD 
 181      86
 182 03ec 28CF6FBE 		.ascii	"(\317o\276\302w`\226\326\217\227\325l\243\235fD\265"
 182      C2776096 
 182      D68F97D5 
 182      6CA39D66 
 182      44B5
 183 03fe 3B15A79D 		.ascii	";\025\247\235\004\307S\230\362\273\334)\247Du\355b&"
 183      04C75398 
 183      F2BBDC29 
 183      A74475ED 
 183      6226
 184 0410 21232C43 		.ascii	"!#,C\334\257\317(%8A\362\2317MZ>3\365Kv\342@x\344\373"
 184      DCAFCF28 
 184      253841F2 
 184      99374D5A 
 184      3E33F54B 
 185 042a 319399FB 		.ascii	"1\223\231\373\341\311\314\325X\311\314|\274\312\332"
 185      E1C9CCD5 
 185      58C9CC7C 
 185      BCCADA
 186 0439 95554653 		.ascii	"\225UFS\230\376'\224\302\010\240\203x\204i\\\272\312"
 186      98FE2794 
 186      C208A083 
 186      7884695C 
 186      BACA
 187 044b 3283D84B 		.ascii	"2\203\330K\026$\030\004\207(\346\365W\222A\314\343\""
 187      16241804 
 187      8728E6F5 
 187      579241CC 
 187      E322
 188 045d 7651C451 		.ascii	"vQ\304Q\003\304\314\0049\036\243\210\343I!\3629\366"
 188      03C4CC04 
 188      391EA388 
 188      E34921F2 
ARM GAS  /tmp/ccvAjtcb.s 			page 14


 188      39F6
 189 046f 50C44903 		.ascii	"P\304I\003\304\331\011r\374\224\"N%\205\030\316Q\333"
 189      C4D90972 
 189      FC94224E 
 189      258518CE 
 189      51DB
 190 0481 C7C7C83E 		.ascii	"\307\307\310>\3769E\034\330\032;\000\265zN\202\034O"
 190      FE39451C 
 190      D81A3B00 
 190      B57A4E82 
 190      1C4F
 191 0493 52C4A1AD 		.ascii	"R\304\241\255\3619\346%\250c?[\221\006\210/$\310\361"
 191      F139E625 
 191      A8633F5B 
 191      9106882F 
 191      24C8F1
 192 04a6 0C5B8F49 		.ascii	"\014[\217I!\3629\236g\353\321\000qE\202\034/\262\365"
 192      21F2399E 
 192      67EBD100 
 192      7145821C 
 192      2FB2F5
 193 04b9 9814229F 		.ascii	"\230\024\"\237\343e\266\036\015\020\327&\310\361\032"
 193      E365B61E 
 193      0D10D726 
 193      C8F11A
 194 04c8 5B8F4921 		.ascii	"[\217I!\206ql\327\275\225\205\326\343\215}2\354i\260"
 194      86716CD7 
 194      BD9585D6 
 194      E38D7D32 
 194      EC69B0
 195 04db 3E22EC74 		.ascii	">\"\354t\015\273\3424\224\340\001!\371\307\306\333\002"
 195      0DBBE234 
 195      94E00121 
 195      F9C7C6DB 
 195      02
 196 04ec EFB1A17F 		.ascii	"\357\261\241\177\017\326\332\341\274\226\205PUl2Z}="
 196      0FD6DAE1 
 196      BC968550 
 196      556C325A 
 196      7D3D
 197 04fe 4FD6764D 		.ascii	"O\326vM\326I\"\353o,\204\252\342\313Z\222 \342\037,"
 197      D64922EB 
 197      6F2C84AA 
 197      E2CB5A92 
 197      20E21F2C 
 198 0512 849242E4 		.ascii	"\204\222B\344NT^\344<\311,Q\232\035>Q\321I]dC\011\276"
 198      4E545EE4 
 198      3CC92C51 
 198      9A1D3E51 
 198      D1495D64 
 199 0529 97C244BD 		.ascii	"\227\302D\275\317\235(\355\333\233\276\035\022a\214"
 199      CF9D28ED 
 199      DB9BBE1D 
 199      12618C
 200 0538 457D1587 		.ascii	"E}\025\207\215V/\347\352\032_\205\020\203\233\027W\205"
 200      8D562FE7 
 200      EA1A5F85 
ARM GAS  /tmp/ccvAjtcb.s 			page 15


 200      10839B17 
 200      5785
 201 054a A886120C 		.ascii	"\250\206\022\014\245\240B'W\005\263N\205N\246\302=\266"
 201      A5A04227 
 201      5705B34E 
 201      854EA6C2 
 201      3DB6
 202 055c 535571D8 		.ascii	"SUq\330h\365m<\025\350[\030\346,\301\213\344\223\037"
 202      68F56D3C 
 202      15E85B18 
 202      E62CC18B 
 202      E4931F
 203 056f D9AA8C20 		.ascii	"\331\252\214 \033x\313+bgy\310\366*\203\005\333\032"
 203      1B78CB2B 
 203      626779C8 
 203      F62A8305 
 203      DB1A
 204 0581 F33D39FA 		.ascii	"\363=9\372\010O\270$\370\027\312\210\346K\360\001Iz"
 204      084FB824 
 204      F817CA88 
 204      E64BF001 
 204      497A
 205 0593 FF26F611 		.ascii	"\377&\366\021\261\377\020;E\354\177\304\312\002\266"
 205      B1FF103B 
 205      45EC7FC4 
 205      CA02B6
 206 05a2 CDC4EE26 		.ascii	"\315\304\356&v\017\261\255\304\356#v?\261o\020\333F"
 206      760FB1AD 
 206      C4EE2376 
 206      3FB16F10 
 206      DB46
 207 05b4 EC4162DF 		.ascii	"\354Ab\337!\366]b\017\021\333E\354a\201\227fO\304M\263"
 207      21F65D62 
 207      0F11DB45 
 207      EC618197 
 207      664FC44D 
 208 05c9 8F0A347B 		.ascii	"\217\0124{}\016t\312\303\303mrsN\363\310\364\364\"\226"
 208      7D0E74CA 
 208      C3C36D72 
 208      734EF3C8 
 208      F4F42296 
 209 05dd 4DD38F9D 		.ascii	"M\323\217\235\375F\337F\345\210o\2439\274\326\022\354"
 209      FD46DF46 
 209      E5886FA3 
 209      39BCD612 
 209      EC
 210 05ee 167006F9 		.ascii	"\026p\006\371A\330rS\353\264\252|\031\375\327\204\333"
 210      41D87253 
 210      EBB4AA7C 
 210      19FDD784 
 210      DB
 211 05ff 47FC6744 		.ascii	"G\374gD%o\324[\033\3736[:\317\352\202\010\277)\340\326"
 211      256FD45B 
 211      1BFB365B 
 211      3ACFEA82 
 211      08BF29E0 
 212 0614 DC8612FC 		.ascii	"\334\206\022\374(\205 \352\341\006Q\256\216\177\017"
ARM GAS  /tmp/ccvAjtcb.s 			page 16


 212      288520EA 
 212      E10651AE 
 212      8E7F0F
 213 0623 0B22D9AC 		.ascii	"\013\"\331\254}\031\277\325\376\363Y\023\227\220\000"
 213      7D19BFD5 
 213      FEF35913 
 213      979000
 214 0632 F69AB57C 		.ascii	"\366\232\265|\377)\\\311l\362\372\202\253V\272\202\351"
 214      FF295CC9 
 214      6CF2FA82 
 214      AB56BA82 
 214      E9
 215 0643 9BCAB6E4 		.ascii	"\233\312\266\344\331\200G\254\365\327{\304\272\352\246"
 215      D98047AC 
 215      F5D77BC4 
 215      BAEAA6
 216 0652 80C7E7F6 		.ascii	"\200\307\347\366\210VGi\376&\233M\254\361\372\304\202"
 216      88564769 
 216      FE269B4D 
 216      ACF1FAC4 
 216      82
 217 0663 02B1CE5B 		.ascii	"\002\261\316[#\276\352v\213\325\201\372|\237\337\347"
 217      23BEEA76 
 217      8BD581FA 
 217      7C9FDFE7 
 218 0673 C9F754D7 		.ascii	"\311\367T\327x\305\302\2025\005\205\3706\375\323\337"
 218      78C5C282 
 218      350585F8 
 218      36FDD3DF 
 219 0683 F7FADC75 		.ascii	"\367\372\334uM\333=bcp;\032\255\240\026\314\366\275"
 219      4DDB3D62 
 219      63703B1A 
 219      ADA016CC 
 219      F6BD
 220 0695 E67517FB 		.ascii	"\346u\027\373\252k\352<\225\036w\320\037\310G}l\265"
 220      AA6BEA3C 
 220      951E77D0 
 220      1FC8477D 
 220      6CB5
 221 06a7 DE1AEF66 		.ascii	"\336\032\357f\247\350o\024k\253\353\304\006\177 \330"
 221      A7E86F14 
 221      6BABEBC4 
 221      067F20D8 
 222 06b7 28BAFDF5 		.ascii	"(\272\375\365\365~\037\246a+\335)\342n\005n\000}\346"
 222      F57E1FA6 
 222      612BDD29 
 222      E26E056E 
 222      007DE6
 223 06ca 8680D73F 		.ascii	"\206\200\327?\007\237\026y\033\031L.\276\342\364\004"
 223      079F1679 
 223      1B194C2E 
 223      BEE2F404 
 224 06da 9DBB1A83 		.ascii	"\235\273\032\203\236\372\222j\337\366:O\240\0345\015"
 224      9EFA926A 
 224      DFF63A4F 
 224      A01C350D 
 225 06ea 7883BB32 		.ascii	"x\203\2732j\225\363\014\354\362ZW\320RVi\267\271*v5"
ARM GAS  /tmp/ccvAjtcb.s 			page 17


 225      6A95F30C 
 225      ECF25A57 
 225      D0525669 
 225      B7B92A76 
 226 06ff 785ED48F 		.ascii	"x^\324\217\356\331\031\024m\245N\273\223\022w\373\003"
 226      EED91914 
 226      6DA54EBB 
 226      931277FB 
 226      03
 227 0710 1E97BB7E 		.ascii	"\036\227\273~\025\242n\266;\213\035\026G1\262\225\305"
 227      15A26EB6 
 227      3B8B1D16 
 227      4731B295 
 227      C5
 228 0721 452BCC76 		.ascii	"E+\314v[\261#\323\241\234\275\204n\226\263\233+\321"
 228      5BB123D3 
 228      A19CBD84 
 228      6E96B39B 
 228      2BD1
 229 0733 CDB0D355 		.ascii	"\315\260\323Uf\273u\003;-\024\354\345\364d\265\331Y"
 229      66BB7503 
 229      3B2D14EC 
 229      E5F464B5 
 229      D959
 230 0745 6177643A 		.ascii	"awd:m\033\010\2414[\371\026{\021\352\356t\230++6;\322"
 230      6D1B08A1 
 230      345BF916 
 230      7B11EAEE 
 230      74982B2B 
 231 075c AC7687CD 		.ascii	"\254v\207\315ar\242b\303\277%\345i\316\022|\323\266"
 231      6172A262 
 231      C3BF25E5 
 231      69CE127C 
 231      D3B6
 232 076e 1199126C 		.ascii	"\021\231\022l\212\220I+-\335hu\2307`cE\347\246\362\215"
 232      8A90492B 
 232      2DDD6875 
 232      98376063 
 232      45E7A6F2 
 233 0783 0E53112A 		.ascii	"\016S\021*\326\"\207\031\335s ~V\007\002\267\332\034"
 233      D6228719 
 233      DD73207E 
 233      560702B7 
 233      DA1C
 234 0795 66776D75 		.ascii	"fwmu \323\345\332\321\344s\273\\3\265J\301\313k\327"
 234      20D3E5DA 
 234      D1E473BB 
 234      5C33B54A 
 234      C1CB6BD7 
 235 07a9 ACFC1FA8 		.ascii	"\254\374\037\250\356\260\232"
 235      EEB09A
 236              		.text
 237              		.section	.gnu.lto_.symtab.f8b534c8bfdef4f0,"",%progbits
 238 0000 6E766963 		.ascii	"nvicEnableVector\000\000\000\000\000\000\000\000\000"
 238      456E6162 
 238      6C655665 
 238      63746F72 
ARM GAS  /tmp/ccvAjtcb.s 			page 18


 238      00000000 
 239 0019 000000A0 		.ascii	"\000\000\000\240\000\000\000nvicDisableVector\000\000"
 239      0000006E 
 239      76696344 
 239      69736162 
 239      6C655665 
 240 0033 00000000 		.ascii	"\000\000\000\000\000\000\000\000\000\000\256\000\000"
 240      00000000 
 240      0000AE00 
 240      00
 241 0040 006E7669 		.ascii	"\000nvicSetSystemHandlerPriority\000\000\000\000\000"
 241      63536574 
 241      53797374 
 241      656D4861 
 241      6E646C65 
 242 0062 00000000 		.ascii	"\000\000\000\000\000\000\000\264\000\000\000"
 242      000000B4 
 242      000000
 243              		.text
 244              		.section	.gnu.lto_.opts,"",%progbits
 245 0000 272D6444 		.ascii	"'-dD''-mcpu=cortex-m3''-mno-thumb-interwork''-mthum"
 245      27272D6D 
 245      6370753D 
 245      636F7274 
 245      65782D6D 
 246 0033 6227272D 		.ascii	"b''-ggdb''-g3''-O2''-fomit-frame-pointer''-falign-f"
 246      67676462 
 246      27272D67 
 246      3327272D 
 246      4F322727 
 247 0066 756E6374 		.ascii	"unctions=16''-ffunction-sections''-fdata-sections''"
 247      696F6E73 
 247      3D313627 
 247      272D6666 
 247      756E6374 
 248 0099 2D666E6F 		.ascii	"-fno-common''-flto'\000"
 248      2D636F6D 
 248      6D6F6E27 
 248      272D666C 
 248      746F2700 
 249              		.text
 250              		.cfi_sections	.debug_frame
 251              		.section	.text.nvicEnableVector,"ax",%progbits
 252              		.align	2
 253              		.p2align 4,,15
 254              		.global	nvicEnableVector
 255              		.thumb
 256              		.thumb_func
 257              		.type	nvicEnableVector, %function
 258              	nvicEnableVector:
 259              	.LFB199:
 260              		.file 1 "../ChibiOS/os/hal/ports/common/ARMCMx/nvic.c"
 261              		.loc 1 57 0
 262              		.cfi_startproc
 263              		@ args = 0, pretend = 0, frame = 0
 264              		@ frame_needed = 0, uses_anonymous_args = 0
 265              		@ link register save eliminated.
ARM GAS  /tmp/ccvAjtcb.s 			page 19


 266              	.LVL0:
 267 0000 30B4     		push	{r4, r5}
 268              	.LCFI0:
 269              		.cfi_def_cfa_offset 8
 270              		.cfi_offset 4, -8
 271              		.cfi_offset 5, -4
 272              		.loc 1 60 0
 273 0002 00F01F03 		and	r3, r0, #31
 274 0006 0124     		movs	r4, #1
 275 0008 04FA03F4 		lsl	r4, r4, r3
 276              		.loc 1 59 0
 277 000c 4FF46143 		mov	r3, #57600
 278 0010 CEF20003 		movt	r3, 57344
 279              		.loc 1 60 0
 280 0014 4209     		lsrs	r2, r0, #5
 281              		.loc 1 59 0
 282 0016 0901     		lsls	r1, r1, #4
 283              	.LVL1:
 284 0018 C9B2     		uxtb	r1, r1
 285 001a 1818     		adds	r0, r3, r0
 286              	.LVL2:
 287              		.loc 1 60 0
 288 001c 02F16005 		add	r5, r2, #96
 289              		.loc 1 59 0
 290 0020 80F80013 		strb	r1, [r0, #768]
 291              		.loc 1 60 0
 292 0024 43F82540 		str	r4, [r3, r5, lsl #2]
 293              		.loc 1 61 0
 294 0028 43F82240 		str	r4, [r3, r2, lsl #2]
 295              		.loc 1 62 0
 296 002c 30BC     		pop	{r4, r5}
 297 002e 7047     		bx	lr
 298              		.cfi_endproc
 299              	.LFE199:
 300              		.size	nvicEnableVector, .-nvicEnableVector
 301              		.section	.text.nvicDisableVector,"ax",%progbits
 302              		.align	2
 303              		.p2align 4,,15
 304              		.global	nvicDisableVector
 305              		.thumb
 306              		.thumb_func
 307              		.type	nvicDisableVector, %function
 308              	nvicDisableVector:
 309              	.LFB200:
 310              		.loc 1 69 0
 311              		.cfi_startproc
 312              		@ args = 0, pretend = 0, frame = 0
 313              		@ frame_needed = 0, uses_anonymous_args = 0
 314              		@ link register save eliminated.
 315              	.LVL3:
 316              		.loc 1 71 0
 317 0000 00F01F03 		and	r3, r0, #31
 318 0004 0121     		movs	r1, #1
 319 0006 01FA03F1 		lsl	r1, r1, r3
 320 000a 4209     		lsrs	r2, r0, #5
 321 000c 4FF46143 		mov	r3, #57600
 322 0010 CEF20003 		movt	r3, 57344
ARM GAS  /tmp/ccvAjtcb.s 			page 20


 323 0014 2032     		adds	r2, r2, #32
 324 0016 43F82210 		str	r1, [r3, r2, lsl #2]
 325              		.loc 1 72 0
 326 001a 1818     		adds	r0, r3, r0
 327              	.LVL4:
 328 001c 0021     		movs	r1, #0
 329 001e 80F80013 		strb	r1, [r0, #768]
 330 0022 7047     		bx	lr
 331              		.cfi_endproc
 332              	.LFE200:
 333              		.size	nvicDisableVector, .-nvicDisableVector
 334 0024 AFF30080 		.section	.text.nvicSetSystemHandlerPriority,"ax",%progbits
 334      AFF30080 
 334      AFF30080 
 335              		.align	2
 336              		.p2align 4,,15
 337              		.global	nvicSetSystemHandlerPriority
 338              		.thumb
 339              		.thumb_func
 340              		.type	nvicSetSystemHandlerPriority, %function
 341              	nvicSetSystemHandlerPriority:
 342              	.LFB201:
 343              		.loc 1 81 0
 344              		.cfi_startproc
 345              		@ args = 0, pretend = 0, frame = 0
 346              		@ frame_needed = 0, uses_anonymous_args = 0
 347              		@ link register save eliminated.
 348              	.LVL5:
 349              		.loc 1 85 0
 350 0000 0901     		lsls	r1, r1, #4
 351              	.LVL6:
 352 0002 00F16040 		add	r0, r0, #-536870912
 353              	.LVL7:
 354 0006 CAB2     		uxtb	r2, r1
 355 0008 00F56D43 		add	r3, r0, #60672
 356 000c 1A76     		strb	r2, [r3, #24]
 357 000e 7047     		bx	lr
 358              		.cfi_endproc
 359              	.LFE201:
 360              		.size	nvicSetSystemHandlerPriority, .-nvicSetSystemHandlerPriority
 361              		.text
 362              	.Letext0:
 363              		.file 2 "/home/laurence/ARM-GCC/bin/../lib/gcc/arm-none-eabi/4.7.4/../../../../arm-none-eabi/inclu
 364              		.file 3 "../ChibiOS/os/rt/ports/ARMCMx/compilers/GCC/chtypes.h"
 365              		.file 4 "../ChibiOS/os/rt/include/chsystypes.h"
 366              		.file 5 "../ChibiOS/os/rt/include/chschd.h"
 367              		.file 6 "../ChibiOS/os/ext/CMSIS/include/core_cm3.h"
 368              		.file 7 "../ChibiOS/os/rt/ports/ARMCMx/chcore.h"
 369              		.file 8 "../ChibiOS/os/rt/ports/ARMCMx/chcore_v7m.h"
 370              		.file 9 "../ChibiOS/os/rt/include/chtm.h"
 371              		.file 10 "../ChibiOS/os/rt/include/chmtx.h"