ARM GAS  /tmp/cce5Sjpb.s 			page 1


   1              		.syntax unified
   2              		.cpu cortex-m3
   3              		.fpu softvfp
   4              		.eabi_attribute 20, 1
   5              		.eabi_attribute 21, 1
   6              		.eabi_attribute 23, 3
   7              		.eabi_attribute 24, 1
   8              		.eabi_attribute 25, 1
   9              		.eabi_attribute 26, 1
  10              		.eabi_attribute 30, 2
  11              		.eabi_attribute 34, 1
  12              		.eabi_attribute 18, 4
  13              		.thumb
  14              		.file	"pal.c"
  15              		.text
  16              	.Ltext0:
  17              		.section	.gnu.lto_.jmpfuncs.1f90fc634173e640,"",%progbits
  18 0000 789C6362 		.ascii	"x\234cb`d`g\300\016\004\24043\003##3\02333\003\003\013"
  18      60646067 
  18      C00E04A0 
  18      34330323 
  18      23331333 
  19 0018 03036309 		.ascii	"\003\003c\011\003\000\005_\000\244"
  19      0300055F 
  19      00A4
  20              		.text
  21              		.section	.gnu.lto_.inline.1f90fc634173e640,"",%progbits
  22 0000 789C6362 		.ascii	"x\234cb`d\340e\300\016\334\24143\003\003'\007#\003\023"
  22      6064E065 
  22      C00EDCA1 
  22      34330303 
  22      27072303 
  23 0015 E70A3706 		.ascii	"\347\0127\006\316\033fL@-|\274\214@\000\224\022|\321"
  23      CE1B664C 
  23      402D7CBC 
  23      8C400094 
  23      127CD1
  24 0028 C2081164 		.ascii	"\302\010\021d\272\300\317\302\300\304\300-\014T\311"
  24      BAC0CFC2 
  24      C0C4C02D 
  24      0C54C9
  25 0037 DAA10E11 		.ascii	"\332\241\016\021d\001\232\315<\301\017\004\031\000W"
  25      64019ACD 
  25      3CC10F04 
  25      190057
  26 0046 C80ABC   		.ascii	"\310\012\274"
  27              		.text
  28              		.section	.gnu.lto_.pureconst.1f90fc634173e640,"",%progbits
  29 0000 789C6362 		.ascii	"x\234cb`d`f```g\200\000f\006)F)&I\000\002\002\000a"
  29      60646066 
  29      60606067 
  29      80006606 
  29      29462926 
  30              		.text
  31              		.section	.gnu.lto_palReadBus.1f90fc634173e640,"",%progbits
  32 0000 789C9D93 		.ascii	"x\234\235\223OK\002A\030\207\337wf\335\335\254CW!P\304"
  32      4F4B0241 
ARM GAS  /tmp/cce5Sjpb.s 			page 2


  32      1887DF77 
  32      66DDDDAC 
  32      43572150 
  33 0015 53827BED 		.ascii	"S\202{\355\336\305[Tx\021,t[\320\020\212\244\263\333"
  33      DEC55B54 
  33      78112C74 
  33      5BD0108A 
  33      A4B3DB
  34 0028 EA07583A 		.ascii	"\352\007X:\255\236R\373O\347\240SQ\235\226\3603\010"
  34      AD9E52FB 
  34      4FE7A053 
  34      519D96F0 
  34      3308
  35 003a 79EC3BD8 		.ascii	"y\354;\330;\203\272J\011\352,\3133\014\363\314of\366"
  35      3B83BA4A 
  35      09EA2CCB 
  35      330CF3CC 
  35      6F66F6
  36 004d 5D0648CF 		.ascii	"]\006H\317\337\026\241\367\210\003\304\211\310\001\231"
  36      DF16A1F7 
  36      8803C489 
  36      C80199
  37 005c DB05B888 		.ascii	"\333\005\270\2101D\321!\245\312\260\232\221\246\026"
  37      3144D121 
  37      A5CAB09A 
  37      91A616
  38 006b 87966D37 		.ascii	"\207\226m7\335\017'\355\364\006\203\250%F\017\021|\357"
  38      DD0F27ED 
  38      F40683A8 
  38      25460F11 
  38      7CEF
  39 007d 1B236021 		.ascii	"\033#`!B\014\004\031(\323\031\322\273\234\360\270\364"
  39      420C0419 
  39      28D319D2 
  39      BB9CF0B8 
  39      F4
  40 008e EEF96296 		.ascii	"\356\371b\226\"-XL\012\315+\271\023\222\272L\322R\333"
  40      222D584C 
  40      0ACD2BB9 
  40      1392BA4C 
  40      D252DB
  41 00a1 9B47EA7B 		.ascii	"\233G\352{\317\354\253\241\276\262\267\336\240\232\200"
  41      CFECABA1 
  41      BEB2B7DE 
  41      A09A80
  42 00b0 8E58A166 		.ascii	"\216X\241f\247-\324\030DQ\370}\257\315\376Y\202f@\030"
  42      A72DD418 
  42      4451F87D 
  42      AFCDFE59 
  42      82664018 
  43 00c4 31877798 		.ascii	"1\207w\230\000\0069la\0348\261MT\210\035b\210xMT\211"
  43      0006396C 
  43      611C38B1 
  43      4D54881D 
  43      6288784D 
  44 00da 37448D78 		.ascii	"7D\215xK\324\211W(\312\202\246\324m{\035K2K\266]AQ "
  44      4BD48957 
ARM GAS  /tmp/cce5Sjpb.s 			page 3


  44      28CA82A6 
  44      D46D7B1D 
  44      4B324BB6 
  45 00f2 7B94253A 		.ascii	"{\224%:\334\007'\373\3318\316\341\003]\271\211,\011"
  45      DC0727FB 
  45      D938CEE1 
  45      035DB989 
  45      2C09
  46 0104 9B16EABC 		.ascii	"\233\026\352\274\011\015\264p\205\231(KD\033\036\351"
  46      090DB470 
  46      8599284B 
  46      441B1EE9 
  47 0114 2028451F 		.ascii	" (E\037\336\2630\322x\022\036\355:\031\341\241\271J"
  47      DEB330D2 
  47      78121EED 
  47      3A19E1A1 
  47      B94A
  48 0126 A63C9A3E 		.ascii	"\246<\232>610\235\300Td\340\332\354@6\241\375\360\261"
  48      3631309D 
  48      C05464E0 
  48      DAEC4036 
  48      A1FDF0B1 
  49 013a 1732C537 		.ascii	"\0272\3057\360\241\366\024\214\251\264\021ST\316T\202"
  49      F0A1F614 
  49      8CA9B411 
  49      5354CE54 
  49      82
  50 014b 26136076 		.ascii	"&\023`v\002\017\022j/|k\344\351rA\232\326\245\277i<"
  50      020F126A 
  50      2F7C6BE4 
  50      E972419A 
  50      D6A5BF69 
  51 0160 38BA4794 		.ascii	"8\272G\224\327'6\267\221J\031\333\305R\241\264\263o"
  51      D72736B7 
  51      914A19DB 
  51      C552A1B4 
  51      B36F
  52 0172 9C548C62 		.ascii	"\234T\214b\276lT\316L\3434_N\231\300\013\347\225_\277"
  52      BE6C54CE 
  52      4CE3345F 
  52      4E99C00B 
  52      E7955FBF 
  53 0186 82A70D   		.ascii	"\202\247\015"
  54              		.text
  55              		.section	.gnu.lto_palWriteBus.1f90fc634173e640,"",%progbits
  56 0000 789CCD93 		.ascii	"x\234\315\223\313J\303@\024\206\317\231I\322\213\245"
  56      CB4AC340 
  56      1486CF99 
  56      49D28BA5 
  57 0010 2DB81204 		.ascii	"-\270\022\004E\005A\241y\0107\272\022-n\204*6\004,\010"
  57      450541A1 
  57      790837BA 
  57      122D6E84 
  57      2A36042C 
  58 0025 8AD57563 		.ascii	"\212\325uc\365\001\212;\255\013\257\365\212\272T7\212"
  58      F5018A3B 
  58      AD0BAFF5 
ARM GAS  /tmp/cce5Sjpb.s 			page 4


  58      8ABA5437 
  58      8A
  59 0036 AE1471E5 		.ascii	"\256\024q\345\003\010\202\253\276C\375gl\233Zu)tB\370"
  59      030882AB 
  59      BE43FD67 
  59      6C9B5A75 
  59      297442F8 
  60 004a 664ECEFF 		.ascii	"fN\316\377\3179\223D\020\343\3729:p'M\242~\220%\261"
  60      CF399344 
  60      10E3FA39 
  60      3A70274D 
  60      A27E9025 
  61 005f 28BC10AD 		.ascii	"(\274\020\255t\013f5\201$'87\241\225\221\036\332\361"
  61      740B6635 
  61      81242738 
  61      37A19591 
  61      1EDAF1
  62 0072 BCF5C243 		.ascii	"\274\365\302C~8\377V\251t\271*:\315\364\364\370\316"
  62      7E38FF56 
  62      A974B92A 
  62      3ACDF4F4 
  62      F8CE
  63 0084 1DE43253 		.ascii	"\035\3442S7)\0122\276\357\361C'\265\216ZUd\374\253\250"
  63      37290A32 
  63      BEEFF143 
  63      27B58E5A 
  63      5564FCAB 
  64 0099 D020325B 		.ascii	"\320 2[\357 Z\267\274r\261$_\267\254[q\367V\311\365"
  64      EF205AB7 
  64      BC72B124 
  64      5FB7AC5B 
  64      71F756C9 
  65 00ae D19E7258 		.ascii	"\321\236rX\365\206]\266\004u\261\322\227\213\037\277"
  65      F5865DB6 
  65      0475B1D2 
  65      978B1FBF 
  66 00be 7C89DC98 		.ascii	"|\211\334\230\033\020\324\253s\257\332~\331\014\317"
  66      1B10D4AB 
  66      73AFDA7E 
  66      D90CCF
  67 00cd 715BD4CE 		.ascii	"q[\324\316\234\3423\010\005\245x\233{Hb}\216\265\201"
  67      9CE23308 
  67      05A5789B 
  67      7B48627D 
  67      8EB581
  68 00e0 F50ED626 		.ascii	"\365\016\326&\270\013Z\340\036\030\000\367\301 x\000"
  68      B80B5AE0 
  68      1E1800F7 
  68      C1207800 
  69 00f0 86C01218 		.ascii	"\206\300\022\030\006\017\301\010x\004F\301c0\006\236"
  69      060FC108 
  69      780446C1 
  69      6330069E 
  70 0100 8071F014 		.ascii	"\200q\360\024\3040i\315\363\342\234\321\325\3511\246"
  70      C43069CD 
  70      F3E29CD1 
  70      D5E931A6 
ARM GAS  /tmp/cce5Sjpb.s 			page 5


  71 0110 A87EC371 		.ascii	"\250~\303q\324\247&\362\211\362\223\317[\321\024_\342"
  71      D4A726F2 
  71      89F293CF 
  71      5BD1145F 
  71      E2
  72 0121 DD382C06 		.ascii	"\3358,\006i\300\345\240\334\244\015v9$\034\326\355["
  72      69C0E5A0 
  72      DCA40D76 
  72      39241CD6 
  72      ED5B
  73 0133 D5039BF2 		.ascii	"\325\003\233\362\177x\010o$\325t\206\243\016\\\231\325"
  73      7F78086F 
  73      24D57486 
  73      A30E5C99 
  73      D5
  74 0144 43A6B60A 		.ascii	"C\246\266\012\374m\305\276\325\352\265oei7\263\311-"
  74      FC6DC5BE 
  74      D5EAB56F 
  74      656937B3 
  74      C92D
  75 0156 A0DDC27F 		.ascii	"\240\335\302\177\273\211\006\267\\]\026\204R\345\205"
  75      BB8906B7 
  75      5C5D1684 
  75      52E585
  76 0165 712EDAB1 		.ascii	"q.\332\261\354o\024\302c\235~\352\307\302z\377PsM\021"
  76      EC6F14C2 
  76      639D7EEA 
  76      C7C27AFF 
  76      50734D11 
  77 0179 B457ABA9 		.ascii	"\264W\253\251\301!\012\367f\207\230\316\216\352\360"
  77      C1210AF7 
  77      668798CE 
  77      8EEAF0
  78 0188 851F8E6B 		.ascii	"\205\037\216k\357\230\012\337\217T\243\203t\342\255"
  78      EF980ADF 
  78      8F54A383 
  78      74E2AD
  79 0197 A19BB66A 		.ascii	"\241\233\266jW\021t%T\265\301zW\362k\002=\321\0131>"
  79      57117425 
  79      54B5C17A 
  79      57F26B02 
  79      3DD10B31 
  80 01ac D62F696D 		.ascii	"\326/im\214\251S\304{T\335w&\022\366\320l&\235\031M"
  80      8CA953C4 
  80      7B54DD77 
  80      2612F6D0 
  80      6C269D19 
  81 01c1 DAF3597B 		.ascii	"\332\363Y{vf\316\316.:\366\302\314\\\302!\231^\316\032"
  81      7666CECE 
  81      2E3AF6C2 
  81      CC5CC221 
  81      995ECE1A 
  82 01d5 E9CC52F6 		.ascii	"\351\314R\366\023\366\021\003'"
  82      13F61103 
  82      27
  83              		.text
  84              		.section	.gnu.lto_palSetBusMode.1f90fc634173e640,"",%progbits
ARM GAS  /tmp/cce5Sjpb.s 			page 6


  85 0000 789C9D92 		.ascii	"x\234\235\222\315JBA\024\307\317\177\356\207\246\025"
  85      CD4A4241 
  85      14C7CF7F 
  85      EE87A615 
  86 0010 6D8540B1 		.ascii	"m\205@\261 (\360>D\033wQ\321&0\321\333\005\005\303H"
  86      2028F03E 
  86      441B7751 
  86      D12630D1 
  86      DB0505C3 
  87 0025 DAB4F1A6 		.ascii	"\332\264\361\246=\200\264\252\026\232YD\364\020\005"
  87      3D80B4AA 
  87      169A5944 
  87      F41005
  88 0034 B512F119 		.ascii	"\265\022\361\031\204\\F\353\"\310\316\014\232\206\012"
  88      845C46EB 
  88      22C8CE0C 
  88      9A860A
  89 0043 D65C86FF 		.ascii	"\326\\\206\377p\356\371\315\371\032A\340ox\005x\177"
  89      70EEF9CD 
  89      F91A41E0 
  89      6F780578 
  89      7F
  90 0054 0AA22556 		.ascii	"\012\242%Vh\004Qj\022\035\207\004 \017\214\344\005\362"
  90      6804516A 
  90      121D8704 
  90      200F8CE4 
  90      05F2
  91 0066 5B8A34C2 		.ascii	"[\2124\302Tu\335\323\322S!Zhu:AGZ\343\240\372\373\013"
  91      5475DDD3 
  91      D253215A 
  91      68753A41 
  91      475AE3A0 
  92 007d 02E40014 		.ascii	"\002\344\000\024\"\251\202\364\3371\2068Mq\3647H\237"
  92      22A982F4 
  92      DF318638 
  92      4D71F437 
  92      489F
  93 008f 142A0D40 		.ascii	"\024*\015@\306\177\"M\222^\273\374%\032\025\363A<\266"
  93      C67F224D 
  93      925EBBFC 
  93      251A15F3 
  93      413CB6
  94 00a2 3AF945AA 		.ascii	":\371E\252\311\033\212n\324\201)(\010\311\267\313o#"
  94      C91B8A6E 
  94      D4812928 
  94      08C9B7CB 
  94      6F23
  95 00b4 DA82415F 		.ascii	"\332\202A_\217\240\005\345{\346\037\021\214\377\363"
  95      8FA005E5 
  95      7BE61F11 
  95      8CFFF3
  96 00c3 36C907C4 		.ascii	"6\311\007\304p\303\240\240\030.\021&\215\265\312\252"
  96      70C3A0A0 
  96      182E1126 
  96      8DB5CAAA 
  97 00d3 B35EB11A 		.ascii	"\263^\261\032\2545V\223\365\232\325\303\376\267\354"
  97      AC355693 
ARM GAS  /tmp/cce5Sjpb.s 			page 7


  97      F59AD5C3 
  97      FEB7EC
  98 00e2 2F674627 		.ascii	"/gF'\256;\207\264\212\242\326\272T9\333\015\216#\017"
  98      AE3B87B4 
  98      8AA2D6BA 
  98      5439DB0D 
  98      8E230F
  99 00f5 5A9D0ADB 		.ascii	"Z\235\012\333\317\225\331\030\356\270]6\304\012-;\360"
  99      CF95D918 
  99      EEB85D36 
  99      C40A2D3B 
  99      F0
 100 0106 6A17740E 		.ascii	"j\027t\016\007S\302\206*\303\354\026\276\323\177E\022"
 100      0753C286 
 100      2AC3EC16 
 100      BED37F45 
 100      12
 101 0117 A41EA629 		.ascii	"\244\036\246)\3147\036\303HLW\230\177<&\006\260W\355"
 101      CC371EC3 
 101      484C5798 
 101      7F3C2606 
 101      B057ED
 102 012a 87336CF9 		.ascii	"\2073l\371 \352T\274\357\333L\316\302\226#o\250VH#\321"
 102      20EA54BC 
 102      EFDB4CCE 
 102      C296236F 
 102      A8564823 
 103 013f 117DB85E 		.ascii	"\021}\270^\007\323\210\243\233\002\227\250|=\016f\210"
 103      07D388A3 
 103      9B0297A8 
 103      7C3D0E66 
 103      88
 104 0150 9A049E63 		.ascii	"\232\004\236c\317\273\327#\250\326\310\330\363\221\210"
 104      CFBBD723 
 104      A8D6C8D8 
 104      F39188
 105 015f B59A4A27 		.ascii	"\265\232J'\323k\233V6g\245\022\031+w`[\373\211L\304"
 105      D36B9B56 
 105      3667A512 
 105      192B7760 
 105      5BFB894C 
 106 0174 262D7998 		.ascii	"&-y\230\323\367\262\273\3167Qo\225\356"
 106      D3F7B2BB 
 106      CE37516F 
 106      95EE
 107              		.text
 108              		.section	.gnu.lto_.cgraph.1f90fc634173e640,"",%progbits
 109 0000 789C45C7 		.ascii	"x\234E\307\271\015\200@\024C\301g\377\312\250\314\033"
 109      B90D8040 
 109      1443C167 
 109      FFCAA8CC 
 109      1B
 110 0011 12520109 		.ascii	"\022R\001\011\305p\004\333\003\215 $\204`\2621\242\200"
 110      C57004DB 
 110      038D2024 
 110      8460B231 
 110      A280
ARM GAS  /tmp/cce5Sjpb.s 			page 8


 111 0023 81975705 		.ascii	"\201\227W\005\246N2\217\362\246\350\337\256\370\233"
 111      A64E328F 
 111      F2A6E8DF 
 111      AEF89B
 112 0032 0EA59EB5 		.ascii	"\016\245\236\265\246r\261\234\227\270\001\312\326\025"
 112      A672B19C 
 112      97B801CA 
 112      D615
 113 0040 69       		.ascii	"i"
 114              		.text
 115              		.section	.gnu.lto_.vars.1f90fc634173e640,"",%progbits
 116 0000 789C6362 		.ascii	"x\234cb`d`f`\000\222P\000\000\000r\000\010"
 116      60646066 
 116      60009250 
 116      00000072 
 116      0008
 117              		.text
 118              		.section	.gnu.lto_.refs.1f90fc634173e640,"",%progbits
 119 0000 789C6362 		.ascii	"x\234cb`d`f```b\200\001\000\000\204\000\011"
 119      60646066 
 119      60606062 
 119      80010000 
 119      840009
 120              		.text
 121              		.section	.gnu.lto_.statics.1f90fc634173e640,"",%progbits
 122 0000 789C6362 		.ascii	"x\234cb`d`b\300\016@\342\214\020&\000\000\375\000\011"
 122      60646062 
 122      C00E40E2 
 122      8C102600 
 122      00FD0009 
 123              		.text
 124              		.section	.gnu.lto_.decls.1f90fc634173e640,"",%progbits
 125 0000 789CAD57 		.ascii	"x\234\255Wml\024E\030\236\331\275\322^{-\037\021R\224"
 125      6D6C1445 
 125      189ED9BD 
 125      D25E7B2D 
 125      1F115294 
 126 0014 4031A286 		.ascii	"@1\242\206\204\256\320\006\312\017~\3105\241\325\326"
 126      84AED006 
 126      CA0F7EC8 
 126      35A1D5D6 
 127 0024 9A2B46FF 		.ascii	"\232+F\377l\316\353u\217^\274\3365w{\006\023\177lZC"
 127      6CCEEB75 
 127      8F5EBCDE 
 127      35777B06 
 127      137F6C5A 
 128 0039 088949D1 		.ascii	"\010\211I\321 %\004,\225j\200\244|\030\344C\304F\001"
 128      2025042C 
 128      956A80A4 
 128      7C18E443 
 128      C44601
 129 004c 9BDA26A0 		.ascii	"\233\332&\240VC4\265)JTH4J\200\230\226\363\235\331\331"
 129      564334B5 
 129      294A5448 
 129      344A8098 
 129      96F39DD9 
 130 0061 B9DDBDDB 		.ascii	"\271\335\275\333\273\036qr\357\336\314\316\314\363>"
ARM GAS  /tmp/cce5Sjpb.s 			page 9


 130      BB1E7172 
 130      EFDECCCE 
 130      CCF33E
 131 0070 CF3BEFCC 		.ascii	"\317;\357\314\356\012\010#R\336\204\277\024\224\305"
 131      EE0A0823 
 131      52DE84BF 
 131      1494C5
 132 007f 0B107209 		.ascii	"\013\020r\011`po\023J\027\322\356\007\233\000\233\004"
 132      60706F13 
 132      4A17D2EE 
 132      079B009B 
 132      04
 133 0090 FB036516 		.ascii	"\373\003e\026\322_\0166\000V\001\346\001\033\001+\006"
 133      D25F0E36 
 133      005601E6 
 133      011B012B 
 133      06
 134 00a1 2B621847 		.ascii	"+b\030G\301N\202\035\003;\013v\012l\234\365\235\000"
 134      C14E821D 
 134      033B0B76 
 134      0A6C9CF5 
 134      9D00
 135 00b3 BB003606 		.ascii	"\273\0006\0066\012\206\031&\371\377\313\346k\202\371"
 135      360A8619 
 135      26F9FFCB 
 135      E66B82F9 
 136 00c3 1A31F9B2 		.ascii	"\0321\371\262\373\0310\371\0327\3713|\2152_\303\314"
 136      FB1930F9 
 136      1A37F933 
 136      7C8D325F 
 136      C3CC
 137 00d5 C704FBFF 		.ascii	"\307\004\373\377\327\346k\222\371\310\345k\332\344k"
 137      D7E66B92 
 137      F9C8E56B 
 137      DAE46B
 138 00e4 80F94B81 		.ascii	"\200\371K\201\335\002\023m\376\004S\014i\364\261\325"
 138      DD02136D 
 138      FE04530C 
 138      69F4B1D5 
 139 00f4 DF0A7450 		.ascii	"\337\012tP\353\237\352\355\321\032\356\247R\305K\320"
 139      EB9FEAED 
 139      D11AEEA7 
 139      52C54BD0 
 140 0104 1E0D4AFF 		.ascii	"\036\015J\377\016M\303\252\033\355\324\264n\322h\030"
 140      0E4DC3AA 
 140      1BEDD4B4 
 140      6ED26818 
 141 0114 012A4B91 		.ascii	"\001*K\221\214+\334\010U\321\232\307\255\363Y\205\016"
 141      8C2BDC08 
 141      55D19AC7 
 141      ADF35985 
 141      0E
 142 0125 6B5A2FCC 		.ascii	"kZ/\314\3012\036\300n\360'`\264\032\035\321ha\316\330"
 142      C1321EC0 
 142      6EF02760 
 142      B41A1DD1 
 142      6861CED8 
ARM GAS  /tmp/cce5Sjpb.s 			page 10


 143 0139 DF7C74FE 		.ascii	"\337|t\376\372\247\337\011z\243`\364\017)\372s\030\272"
 143      FAA7DF09 
 143      7AA360F4 
 143      0F29FA73 
 143      18BA
 144 014b 07F16A34 		.ascii	"\007\361j4\364\366\265+\222\016%\343b\267Y\023m\353"
 144      F4F6B52B 
 144      920E25E3 
 144      62B75913 
 144      6DEB
 145 015d A37460BD 		.ascii	"\243t`\275\333\250\221\324\233\217\012\237\220\235\""
 145      DBA891D4 
 145      9B8F0A9F 
 145      909D22
 146 016c 997D082F 		.ascii	"\231}\010/\2415\221\206\033\225\241]ii\213\320n\022"
 146      A1359186 
 146      1B95A15D 
 146      69698BD0 
 146      6E12
 147 017e 892AB3C8 		.ascii	"\211*\263\310W9\202\307&\362\030^\004\030\347\260\241"
 147      573982C7 
 147      26F2185E 
 147      0418E7B0 
 147      A1
 148 018f F2C1DE73 		.ascii	"\362\301\336s\243\242N2?\020\2412\004\000\372T\012\253"
 148      A3A24E32 
 148      3F10A132 
 148      0400FA54 
 148      0AAB
 149 01a1 E9B0E42E 		.ascii	"\351\260\344.b\367o\277\037B\231E\\\211\372\2014I\204"
 149      62F76FBF 
 149      1F429945 
 149      5C89FA81 
 149      344984
 150 01b4 7979F94F 		.ascii	"yy\371Oa\356w\231M\300)*`\212\013\270{p\"U\347,\300"
 150      61EE7799 
 150      4DC0292A 
 150      608A0BB8 
 150      7B702255 
 151 01cb 8644389E 		.ascii	"\206D8\236\316\252\340\264I\301\330\354\015O\026\011"
 151      CEAAE0B4 
 151      49C1D8EC 
 151      0D4F1609 
 152 01db C544C25B 		.ascii	"\305D\302[=T\002\315\256\236<\331%\343\217\360\2529"
 152      3D5402CD 
 152      AE9E3CD9 
 152      25E38FF0 
 152      AA39
 153 01ed 2EBE80F6 		.ascii	".\276\200\366\010\230\261\373i\366\306#\331\021\215"
 153      0898B1FB 
 153      69F6C623 
 153      D9118D
 154 01fc BA5E8C31 		.ascii	"\272^\2141\254\230\350\311\370,\315\346}\034\363\227"
 154      AC98E8C9 
 154      F82CCDE6 
 154      7D1CF397 
 155 020c 59B110C8 		.ascii	"Y\261\020\310*G\310\003\034\362v>\310\2229\262<\304"
ARM GAS  /tmp/cce5Sjpb.s 			page 11


 155      2A47C803 
 155      1CF2763E 
 155      C89239B2 
 155      3CC4
 156 021e 21EF1406 		.ascii	"!\357\024\006\351\314r\220C\316\344\203\\0G\226G9\344"
 156      E9CC7290 
 156      43CEE483 
 156      5C304796 
 156      4739E4
 157 0231 A5070541 		.ascii	"\245\007\005A:\263\034\342\220c\371 +\263\261\314,\346"
 157      3AB31CE2 
 157      9063F920 
 157      2BB3B1CC 
 157      2CE6
 158 0243 F496F127 		.ascii	"\364\226\361'\220~\3052>\203WB\343<\275^\240\327\213"
 158      907EC532 
 158      3E835742 
 158      E33CBD5E 
 158      A0D78B
 159 0256 F43A4CAF 		.ascii	"\364:L\257_\320\353%\270f\344\200\323Qy\022\227\001"
 159      5FD0EB25 
 159      B866E480 
 159      D3517912 
 159      9701
 160 0268 FB8F0563 		.ascii	"\373\217\005c\023\236?\362\371%v\212X\366\266\276]\235"
 160      139E3FF2 
 160      F925768A 
 160      58F6B6BE 
 160      5D9D
 161 027a CFB511C0 		.ascii	"\317\265\021\3001v\206]\207\255O@\027\251;r\322<\330"
 161      3176865D 
 161      87AD4F40 
 161      17A93B72 
 161      D23CD8
 162 028d FBEEE8C6 		.ascii	"\373\356\350\306\207\334 \354\0102\036&\2279\350\314"
 162      87DC20EC 
 162      08321E26 
 162      9739E8CC 
 163 029d D30FB93F 		.ascii	"\323\017\271?\030b\301\317\233qJ`TH?pv\177]g\250/\262"
 163      1862C1CF 
 163      9B714A60 
 163      54483F70 
 163      767F5D67 
 164 02b4 3D708AAC 		.ascii	"=p\212\254GH\021?B\212\314G\310\017\246\020\235\311"
 164      4748113F 
 164      428ACC47 
 164      C80FA610 
 164      9DC9
 165 02c6 17A2ACBB 		.ascii	"\027\242\254\2733[F\015\2312\3528d\224(\343\0234gF\351"
 165      335B460D 
 165      9932EA38 
 165      649428E3 
 165      13346746 
 166 02db 752C5FE6 		.ascii	"u,_\346\020\214\243\260\232\254\200\364\255,Y\200\362"
 166      108CA3B0 
 166      9AAC80F4 
 166      AD2C5980 
ARM GAS  /tmp/cce5Sjpb.s 			page 12


 166      F2
 167 02ec 24D77F73 		.ascii	"$\327\177sh\337\225\345\372\355'\320\007\232\366\016"
 167      68DF95E5 
 167      FAED27D0 
 167      079AF60E 
 168 02fc 09AB3E53 		.ascii	"\011\253>S@;D2\254\037\257@;\335\016^\230\223'\321 "
 168      403B4432 
 168      AC1FAF40 
 168      3BDD0E5E 
 168      989327D1 
 169 0311 59922FBB 		.ascii	"Y\222/\273\033\3645Fl\336o\016\033\214\021\274\206\005"
 169      1BF43546 
 169      6CDE6F0E 
 169      1B8C11BC 
 169      8605
 170 0323 B3EA1CAF 		.ascii	"\263\352\034\257-2\336\2648\207\322\357\255\317j&\200"
 170      2D32DEB4 
 170      3887D2EF 
 170      ADCF6A26 
 170      80
 171 0334 B70C4AA6 		.ascii	"\267\014J\246\020\354\022\215\020\334\336\377h\366\000"
 171      10EC128D 
 171      10DCDEFF 
 171      68F600
 172 0343 C8F85BE0 		.ascii	"\310\370[\340'\343\011\020\322W\234\33596O\322\263\373"
 172      27E30910 
 172      D2579CDD 
 172      39364FD2 
 172      B3FB
 173 0355 3D8A4C26 		.ascii	"=\212L&\235-s\214\032ed\016\236\246\015wWR\225\210\315"
 173      9D2D738C 
 173      1A65640E 
 173      9EA60D77 
 173      57529588 
 174 036a EEB0E4C3 		.ascii	"\356\260\344\303\365\377+T?\347\012U\301\373i\232J\336"
 174      F5FF2B54 
 174      3FE70A55 
 174      C1FB699A 
 174      4ADE
 175 037c 2FA60FA5 		.ascii	"/\246\017\245\317\214wA\375\345\316\"bnop\226u:,\246"
 175      CF8C7741 
 175      FDE5CE22 
 175      626E6F70 
 175      96753A2C 
 176 0391 53F5FA57 		.ascii	"S\365\372W\363r\257\324$\011\372\\VJ\247}\212b\223I"
 176      F372AFD4 
 176      2409FA5C 
 176      564AA77D 
 176      8A629349 
 177 03a5 7DCE2B35 		.ascii	"}\316+5\235{\245&3V\352\327\314\225\232\352\355\355"
 177      9D7BA526 
 177      3356EAD7 
 177      CC959AEA 
 177      EDED
 178 03b7 E92F78A5 		.ascii	"\351/x\245n\331W\212<\001D[R\363\346tf\216\237I/\313"
 178      6ED9578A 
 178      3C01445B 
ARM GAS  /tmp/cce5Sjpb.s 			page 13


 178      52F3E674 
 178      668E9F49 
 179 03cd B993972D 		.ascii	"\271\223\227-\337\0102\376\323J\363qtH\273z\265W\353"
 179      DF0832FE 
 179      D34AF371 
 179      7448BB7A 
 179      B557EB
 180 03e0 AEEC9E4A 		.ascii	"\256\354\236J\245V,D\275\364\265\256\257\202\245\304"
 180      A5562C44 
 180      BDF4B5AE 
 180      AF82A5C4 
 181 03f0 D4E07065 		.ascii	"\324\340pe\237)%J8]l\244\004}\251\343\303\265\312J\247"
 181      9F29254A 
 181      385D6CA4 
 181      047DA9E3 
 181      C3B5CA4A 
 182 0405 D132FE87 		.ascii	"\3212\376\207\276\242\335a\371\2614]\347\325\024&\012"
 182      BEA2DD61 
 182      F9B1345D 
 182      E7D51426 
 182      0A
 183 0416 C64532DE 		.ascii	"\306E2\336\366u\303\004\344\233m\370~\205\373\326O\303"
 183      F675C304 
 183      E49B6DF8 
 183      7E85FBD6 
 183      4FC3
 184 0428 B4347DB0 		.ascii	"\2644}\260\3238\031\337\305\013i\215j\322\370\343\325"
 184      D33819DF 
 184      C50B698D 
 184      6AD2F8E3 
 184      D5
 185 0439 E3CEB168 		.ascii	"\343\316\261h\367L\254<ns\255\324\302\336\030\007\""
 185      F74CAC3C 
 185      6E73ADD4 
 185      C2DE1807 
 185      22
 186 044a BFE1C7EC 		.ascii	"\277\341\307\354\315\241\003WD'>\002\372Q\304lv)\316"
 186      CDA10357 
 186      44273E02 
 186      FA51C46C 
 186      7629CE
 187 045d B16232FE 		.ascii	"\261b2\376\333$\313\3765\341$?\363\253c\346!\344\317"
 187      DB24CBFE 
 187      35E1243F 
 187      F3AB63E6 
 187      21E4CF
 188 0470 3ACAE78F 		.ascii	":\312\347\217\"\3138\250\336\347\207\354\314cNd\004"
 188      22CB38A8 
 188      DEE787EC 
 188      CC634E64 
 188      04
 189 0481 F4BB45BB 		.ascii	"\364\273E\273\355\205\207\354\024gN\251\364cp\2161\353"
 189      ED8587EC 
 189      14674EA9 
 189      F463708E 
 189      31EB
 190 0493 E2181539 		.ascii	"\342\030\0259cf\037'\343n\241\360\230\365\010N1+\267"
ARM GAS  /tmp/cce5Sjpb.s 			page 14


 190      63661F27 
 190      E36EA1F0 
 190      98F5084E 
 190      312BB7
 191 04a6 C4CC18C7 		.ascii	"\304\314\030\307cF\316\236;\313\235\310\010\350\236"
 191      6346CE9E 
 191      3BCB9DC8 
 191      08E89E
 192 04b5 2566C813 		.ascii	"%f\310\023\216u\305\342jg \361\232_\235\267\345\205"
 192      8E75C5E2 
 192      6A6720F1 
 192      9A5F9DB7 
 192      E585
 193 04c7 97AABCA8 		.ascii	"\227\252\274\250\246\272Z\362v\204\333\302-\255R,!u"
 193      A6BA5AF2 
 193      7684DBC2 
 193      2DAD522C 
 193      2175
 194 04d9 04221219 		.ascii	"\004\"\022\031\223\220Z\2676\327\254\223\232\232\352"
 194      93905AB7 
 194      36D7AC93 
 194      9A9AEA
 195 04e8 A52D2F36 		.ascii	"\245-/6\266\274\276V\352\012D\374\221H{u\007*I\206\243"
 195      B6BCBE56 
 195      EA0A44FC 
 195      91487B75 
 195      072A4986 
 196 04fd 6ACD3ABF 		.ascii	"j\315:\277\252H\035\261NE\212\004\222q%\032T\244g}\315"
 196      AA481DB1 
 196      4E458A04 
 196      9271251A 
 196      54A4677D 
 197 0512 6BB678BD 		.ascii	"k\266x\275R[8*\001n$\334&m\013\006\245@\274sM4\026U"
 197      525B382A 
 197      016E24DC 
 197      266D0B06 
 197      A540BC73 
 198 052a D62881B6 		.ascii	"\326(\201\266\260T[\275\241\272\226t\363\237\265?\034"
 198      B0545BBD 
 198      A1BA9674 
 198      F39FB53F 
 198      1C
 199 053b 0D4692ED 		.ascii	"\015F\222\355\212\224P\333\301\015\270+jl\331\234LT"
 199      8A9450DB 
 199      C10DB82B 
 199      6A6CD99C 
 199      4C54
 200 054d 65123546 		.ascii	"e\0225F\0023\030\346!<\375[\337\350R\352\225\320S\326"
 200      023318E6 
 200      213CFD5B 
 200      DFE852EA 
 200      95D053D6 
 201 0561 D1CA7655 		.ascii	"\321\312vU\3626\2676\266\202,\000\356\254Y\027Z\373"
 201      F236B736 
 201      B6822C00 
 201      EEAC5917 
 201      5AFB
ARM GAS  /tmp/cce5Sjpb.s 			page 15


 202 0573 CC769824 		.ascii	"\314v\230$z}M`\015bc\275Ol\251\367\2716\267\372|\342"
 202      7A7D4D60 
 202      0D6263BD 
 202      4F6CA9F7 
 202      B936B7FA 
 203 0589 669FCFD5 		.ascii	"f\237\317\325\344}\336W\252\007,\334\016\341\322+.\022"
 203      E47DDE57 
 203      AA072CDC 
 203      0EE1D22B 
 203      2E12
 204 059b 3C0FD1EF 		.ascii	"<\017\321\357\017\005\022j\035t\304B\241\204\242\226"
 204      0F05126A 
 204      1D74C442 
 204      A184A296 
 205 05ab 02099F12 		.ascii	"\002\011\237\022h\007\246\3132\231&\342A\3122\210\304"
 205      6807A6CB 
 205      329926E2 
 205      41CA3288 
 205      C4
 206 05bc B664A20C 		.ascii	"\266d\242\014\252/\307\303\252\002\203]ma5Q\022\216"
 206      AA2FC7C3 
 206      AA02835D 
 206      6D613551 
 206      128E
 207 05ce 75C6DA15 		.ascii	"u\306\332\025\277Z\016=\255\212\012\367\233\241\355"
 207      BF5A0E3D 
 207      AD8A0AF7 
 207      9BA1ED
 208 05dd 223717FB 		.ascii	"\"7\027\373Y\340\375\340e[<\226\354\"w]\301\216@\274"
 208      59E0FDE0 
 208      655B3C96 
 208      EC22775D 
 208      C18E40BC 
 209 05f1 C4EF0F25 		.ascii	"\304\357\017%\243A\277\277\334\250T\257\257[_kim4\267"
 209      A341BFBF 
 209      DCA854AF 
 209      AF5B5F6B 
 209      696D34B7 
 210 0605 36D4FE07 		.ascii	"6\324\376\007\027\340q\025"
 210      17E07115 
 211              		.text
 212              		.section	.gnu.lto_.symtab.1f90fc634173e640,"",%progbits
 213 0000 70616C52 		.ascii	"palReadBus\000\000\000\000\000\000\000\000\000\000\000"
 213      65616442 
 213      75730000 
 213      00000000 
 213      00000000 
 214 0015 00A00000 		.ascii	"\000\240\000\000\000palWriteBus\000\000\000\000\000"
 214      0070616C 
 214      57726974 
 214      65427573 
 214      00000000 
 215 002a 00000000 		.ascii	"\000\000\000\000\000\000\000\325\000\000\000palSetB"
 215      000000D5 
 215      00000070 
 215      616C5365 
 215      7442
ARM GAS  /tmp/cce5Sjpb.s 			page 16


 216 003c 75734D6F 		.ascii	"usMode\000\000\000\000\000\000\000\000\000\000\000\000"
 216      64650000 
 216      00000000 
 216      00000000 
 216      0000
 217 004e DE000000 		.ascii	"\336\000\000\000_pal_lld_setgroupmode\000\000\002\000"
 217      5F70616C 
 217      5F6C6C64 
 217      5F736574 
 217      67726F75 
 218 006b 00000000 		.ascii	"\000\000\000\000\000\000\000\000\352\000\000\000"
 218      00000000 
 218      EA000000 
 219              		.text
 220              		.section	.gnu.lto_.opts,"",%progbits
 221 0000 272D6444 		.ascii	"'-dD''-mcpu=cortex-m3''-mno-thumb-interwork''-mthum"
 221      27272D6D 
 221      6370753D 
 221      636F7274 
 221      65782D6D 
 222 0033 6227272D 		.ascii	"b''-ggdb''-g3''-O2''-fomit-frame-pointer''-falign-f"
 222      67676462 
 222      27272D67 
 222      3327272D 
 222      4F322727 
 223 0066 756E6374 		.ascii	"unctions=16''-ffunction-sections''-fdata-sections''"
 223      696F6E73 
 223      3D313627 
 223      272D6666 
 223      756E6374 
 224 0099 2D666E6F 		.ascii	"-fno-common''-flto'\000"
 224      2D636F6D 
 224      6D6F6E27 
 224      272D666C 
 224      746F2700 
 225              		.text
 226              		.cfi_sections	.debug_frame
 227              		.section	.text.palReadBus,"ax",%progbits
 228              		.align	2
 229              		.p2align 4,,15
 230              		.global	palReadBus
 231              		.thumb
 232              		.thumb_func
 233              		.type	palReadBus, %function
 234              	palReadBus:
 235              	.LFB199:
 236              		.file 1 "../ChibiOS/os/hal/src/pal.c"
 237              		.loc 1 68 0
 238              		.cfi_startproc
 239              		@ args = 0, pretend = 0, frame = 0
 240              		@ frame_needed = 0, uses_anonymous_args = 0
 241              		@ link register save eliminated.
 242              	.LVL0:
 243              		.loc 1 72 0
 244 0000 0368     		ldr	r3, [r0, #0]
 245 0002 8268     		ldr	r2, [r0, #8]
 246 0004 9968     		ldr	r1, [r3, #8]
ARM GAS  /tmp/cce5Sjpb.s 			page 17


 247 0006 4368     		ldr	r3, [r0, #4]
 248 0008 21FA02F0 		lsr	r0, r1, r2
 249              	.LVL1:
 250              		.loc 1 73 0
 251 000c 1840     		ands	r0, r0, r3
 252 000e 7047     		bx	lr
 253              		.cfi_endproc
 254              	.LFE199:
 255              		.size	palReadBus, .-palReadBus
 256              		.section	.text.palWriteBus,"ax",%progbits
 257              		.align	2
 258              		.p2align 4,,15
 259              		.global	palWriteBus
 260              		.thumb
 261              		.thumb_func
 262              		.type	palWriteBus, %function
 263              	palWriteBus:
 264              	.LFB200:
 265              		.loc 1 93 0
 266              		.cfi_startproc
 267              		@ args = 0, pretend = 0, frame = 0
 268              		@ frame_needed = 0, uses_anonymous_args = 0
 269              		@ link register save eliminated.
 270              	.LVL2:
 271              		.loc 1 97 0
 272 0000 4268     		ldr	r2, [r0, #4]
 273 0002 8368     		ldr	r3, [r0, #8]
 274              		.loc 1 93 0
 275 0004 30B4     		push	{r4, r5}
 276              	.LCFI0:
 277              		.cfi_def_cfa_offset 8
 278              		.cfi_offset 4, -8
 279              		.cfi_offset 5, -4
 280              		.loc 1 97 0
 281 0006 22EA0105 		bic	r5, r2, r1
 282 000a 03F11004 		add	r4, r3, #16
 283 000e 0A40     		ands	r2, r2, r1
 284 0010 05FA04F4 		lsl	r4, r5, r4
 285 0014 02FA03F1 		lsl	r1, r2, r3
 286              	.LVL3:
 287 0018 0068     		ldr	r0, [r0, #0]
 288              	.LVL4:
 289 001a 44EA0102 		orr	r2, r4, r1
 290 001e 0261     		str	r2, [r0, #16]
 291              		.loc 1 98 0
 292 0020 30BC     		pop	{r4, r5}
 293 0022 7047     		bx	lr
 294              		.cfi_endproc
 295              	.LFE200:
 296              		.size	palWriteBus, .-palWriteBus
 297 0024 AFF30080 		.section	.text.palSetBusMode,"ax",%progbits
 297      AFF30080 
 297      AFF30080 
 298              		.align	2
 299              		.p2align 4,,15
 300              		.global	palSetBusMode
 301              		.thumb
ARM GAS  /tmp/cce5Sjpb.s 			page 18


 302              		.thumb_func
 303              		.type	palSetBusMode, %function
 304              	palSetBusMode:
 305              	.LFB201:
 306              		.loc 1 116 0
 307              		.cfi_startproc
 308              		@ args = 0, pretend = 0, frame = 0
 309              		@ frame_needed = 0, uses_anonymous_args = 0
 310              		@ link register save eliminated.
 311              	.LVL5:
 312              		.loc 1 120 0
 313 0000 8368     		ldr	r3, [r0, #8]
 314              		.loc 1 116 0
 315 0002 10B4     		push	{r4}
 316              	.LCFI1:
 317              		.cfi_def_cfa_offset 4
 318              		.cfi_offset 4, -4
 319              		.loc 1 120 0
 320 0004 4468     		ldr	r4, [r0, #4]
 321              		.loc 1 116 0
 322 0006 0A46     		mov	r2, r1
 323              		.loc 1 120 0
 324 0008 04FA03F1 		lsl	r1, r4, r3
 325              	.LVL6:
 326 000c 0068     		ldr	r0, [r0, #0]
 327              	.LVL7:
 328              		.loc 1 121 0
 329 000e 10BC     		pop	{r4}
 330              		.loc 1 120 0
 331 0010 FFF7FEBF 		b	_pal_lld_setgroupmode
 332              	.LVL8:
 333              		.cfi_endproc
 334              	.LFE201:
 335              		.size	palSetBusMode, .-palSetBusMode
 336 0014 AFF30080 		.text
 336      AFF30080 
 336      AFF30080 
 337              	.Letext0:
 338              		.file 2 "/home/laurence/ARM-GCC/bin/../lib/gcc/arm-none-eabi/4.7.4/../../../../arm-none-eabi/inclu
 339              		.file 3 "../ChibiOS/os/rt/ports/ARMCMx/compilers/GCC/chtypes.h"
 340              		.file 4 "../ChibiOS/os/rt/include/chsystypes.h"
 341              		.file 5 "../ChibiOS/os/rt/include/chschd.h"
 342              		.file 6 "../ChibiOS/os/ext/CMSIS/ST/stm32f10x.h"
 343              		.file 7 "../ChibiOS/os/rt/ports/ARMCMx/chcore.h"
 344              		.file 8 "../ChibiOS/os/rt/ports/ARMCMx/chcore_v7m.h"
 345              		.file 9 "../ChibiOS/os/rt/include/chtm.h"
 346              		.file 10 "../ChibiOS/os/rt/include/chmtx.h"
 347              		.file 11 "../ChibiOS/os/hal/ports/STM32/LLD/GPIOv1/pal_lld.h"
 348              		.file 12 "../ChibiOS/os/hal/include/pal.h"
 349              		.file 13 "../ChibiOS/os/ext/CMSIS/include/core_cm3.h"