ARM GAS  /tmp/cc2NU3F2.s 			page 1


   1              		.syntax unified
   2              		.cpu cortex-m3
   3              		.fpu softvfp
   4              		.eabi_attribute 20, 1
   5              		.eabi_attribute 21, 1
   6              		.eabi_attribute 23, 3
   7              		.eabi_attribute 24, 1
   8              		.eabi_attribute 25, 1
   9              		.eabi_attribute 26, 1
  10              		.eabi_attribute 30, 2
  11              		.eabi_attribute 34, 1
  12              		.eabi_attribute 18, 4
  13              		.thumb
  14              		.file	"pal_lld.c"
  15              		.text
  16              	.Ltext0:
  17              		.section	.gnu.lto_.jmpfuncs.cd128686add7e3ed,"",%progbits
  18 0000 789C6362 		.ascii	"x\234cb`d`g\300\016\330\2404\023\003##;\003\000\002"
  18      60646067 
  18      C00ED8A0 
  18      34130323 
  18      233B0300 
  19 0015 25001C   		.ascii	"%\000\034"
  20              		.text
  21              		.section	.gnu.lto_.inline.cd128686add7e3ed,"",%progbits
  22 0000 789C6362 		.ascii	"x\234cb`d\340e\300\016J\2414\023\003\203\2122#\003\223"
  22      6064E065 
  22      C00E4AA1 
  22      34130383 
  22      8A322303 
  23 0015 F18E3E66 		.ascii	"\361\216>f\006\321\035S\030\231\200\232T&22\2622\245"
  23      06D11D53 
  23      1899809A 
  23      54263232 
  23      B232A5
  24 0028 4A32A432 		.ascii	"J2\244220030\245\301YP1\026\270\030\220\005$9\214.\334"
  24      32303033 
  24      30A5C159 
  24      503116B8 
  24      18900524 
  25 0040 1160E03A 		.ascii	"\021`\340:`\307\304\300\262@\336\201\201q:\023\013\023"
  25      60C7C4C0 
  25      B240DE81 
  25      81713A13 
  25      0B13
  26 0052 98646039 		.ascii	"\230d`9 \346\300\301\300x\222Q\200\203\011B10\000\000"
  26      20E6C0C1 
  26      C0789251 
  26      80830942 
  26      31300000 
  27 0066 D16F1045 		.ascii	"\321o\020E"
  28              		.text
  29              		.section	.gnu.lto_.pureconst.cd128686add7e3ed,"",%progbits
  30 0000 789C6362 		.ascii	"x\234cb`d`f```e\200\000&\006)F)\000\001:\000C"
  30      60646066 
  30      60606065 
  30      80002606 
ARM GAS  /tmp/cc2NU3F2.s 			page 2


  30      29462900 
  31              		.text
  32              		.section	.gnu.lto__pal_lld_init.cd128686add7e3ed,"",%progbits
  33 0000 789CA596 		.ascii	"x\234\245\226ML\023Q\024\205\357\235\351\017\245\201"
  33      4D4C1351 
  33      1485EF9D 
  33      E90FA581 
  34 0010 B62184D4 		.ascii	"\266!\204\324JJ);\023&Jt\345N\023!\301 \242\033\222"
  34      4A4A293B 
  34      13264A74 
  34      E54E1321 
  34      C120A21B 
  35 0025 4AB05669 		.ascii	"J\260Vi\322\010\021\343\3160\002\013\226\215+\213\306"
  35      D20811E3 
  35      CE30020B 
  35      968D2B8B 
  35      C6
  36 0036 80F803F8 		.ascii	"\200\370\003\370\003\306\304\255\006\273\"\015+\226"
  36      03C6C4AD 
  36      06BB220D 
  36      2B96
  37 0044 2C48ECA2 		.ascii	",H\354\242\213.\211\013\323\244\3367o:\214ql2\227\327"
  37      8B2E890B 
  37      D3A4DE37 
  37      6F3A8C71 
  37      6C3297D7 
  38 0058 34E74D67 		.ascii	"4\347Mg\316\231or\222\333Q\000\351\363\357\212\3227"
  38      CE996F72 
  38      92DB5100 
  38      E9F3EF8A 
  38      D237
  39 006a DC0E7091 		.ascii	"\334\016p\221\024U@%\277\007\360\244GA\024\033\262\314"
  39      14554025 
  39      BF07F0A4 
  39      4741141B 
  39      B2CC
  40 007c 293877D3 		.ascii	")8w\323pFzaU\327\237\346\177\314\017\316\037\326\353"
  40      70467A61 
  40      55D79FE6 
  40      7FCC0FCE 
  40      1FD6EB
  41 008f F18CF875 		.ascii	"\361\214\370u\002aw\343'F!\203\010= T\001\317\337\367"
  41      026177E3 
  41      27462183 
  41      083D2054 
  41      01CFDFF7 
  42 00a3 F88F0F38 		.ascii	"\370\217\0178\246\243\345\337\254\233\325Nq\\\305\030"
  42      A6A3E5DF 
  42      AC9BD54E 
  42      715CC518 
  43 00b3 C75562B9 		.ascii	"\307Ub\271\366Y\256\003\226\253\314rUY\256#\226\253"
  43      F659AE03 
  43      96ABCC72 
  43      5559AE23 
  43      96AB
  44 00c5 C672154F 		.ascii	"\306r\025O\263\372b\271\016X\2562\313Um\356*\027~)\245"
  44      B3FA62B9 
ARM GAS  /tmp/cc2NU3F2.s 			page 3


  44      0E58AE32 
  44      CB556DEE 
  44      2A177E29 
  45 00da 97BE6FCA 		.ascii	"\227\276o\312\367\303\372\\\037\254\211\210\005}0\203"
  45      F7C3FA5C 
  45      1FAC8988 
  45      057D3083 
  46 00ea AA0217D0 		.ascii	"\252\002\027\320\270m\341\253\342\020AW\300y\025R\270"
  46      B86DE1AB 
  46      E2104157 
  46      C0791552 
  46      B8
  47 00fb 82BDF44B 		.ascii	"\202\275\364K\012WI}\230\302\317\330\007~:~E\307\001"
  47      0A57497D 
  47      98C2CFD8 
  47      077E3A7E 
  47      45C701
  48 010e D235D220 		.ascii	"\3225\322 \351k\3226\3227\244!\322\267\244\021\322w"
  48      E96BD236 
  48      D237A421 
  48      D2B7A411 
  48      D277
  49 0120 A41DA4EB 		.ascii	"\244\035\244\353\244\235\244\033\244]\244\233\244Q\322"
  49      A49DA41B 
  49      A45DA49B 
  49      A451D2
  50 012f F7A431D2 		.ascii	"\367\2441\322\017\244\335\244\037I\343\244\237H\023"
  50      0FA4DDA4 
  50      1F49E3A4 
  50      9F4813
  51 013e A45BA449 		.ascii	"\244[\244I\322mRZ^X\324\365\2601$\304\032\025*\346\321"
  51      D26D525A 
  51      5E58D4F5 
  51      B03124C4 
  51      1A152AE6 
  52 0153 7502171B 		.ascii	"u\002\027\033u\027v\306K\313\355)\374\202^H\243z\006"
  52      751776C6 
  52      4BCBED29 
  52      FC825E48 
  52      A37A06
  53 0166 36F545CC 		.ascii	"6\365E\314\240G]\206\002\251\327xZ\037\350+K\272\007"
  53      A0475D86 
  53      02A9D778 
  53      5A1FE82B 
  53      4BBA07
  54 0179 E45EAE5B 		.ascii	"\344^\256[\"K\346\356\302\302\226xx\231\341\241\030"
  54      224BE6EE 
  54      C2C29678 
  54      7899E1A1 
  54      18
  55 018a 7121C063 		.ascii	"q!\300c\343\334\316\220y\212\221Mi\"b~\\\214\253\306"
  55      E3DCCE90 
  55      798A914D 
  55      6922627E 
  55      5C8CABC6 
  56 019e 0DFC2228 		.ascii	"\015\374\"(\234A\277jnZ\314\300\200\222F_\324(\003\240"
  56      9C41BF6A 
ARM GAS  /tmp/cc2NU3F2.s 			page 4


  56      6E5ACCC0 
  56      8092465F 
  56      D42803A0 
  57 01b2 E23582B0 		.ascii	"\3425\202\260\221H\017\\\361\233\270;C\025\325\231\251"
  57      91480F5C 
  57      F19BB83B 
  57      4315D599 
  57      A9
  58 01c3 D5600A82 		.ascii	"\325`\012\202\236_4\231\202\344XR\215\010Uf\021\201"
  58      9E5F3499 
  58      82E45852 
  58      8D085566 
  58      1181
  59 01d5 84AAD9A0 		.ascii	"\204\252\331\240\002,(\317\311\241\274\015\250\200\204"
  59      022C28CF 
  59      C9A1BC0D 
  59      A88084
  60 01e4 2A3E3F86 		.ascii	"*>?\206\012\262\240|'\207\3627\240\202\022\252d\203"
  60      0AB2A07C 
  60      2787F237 
  60      A08212AA 
  60      6483
  61 01f6 6A7303D5 		.ascii	"js\003\325\302\254\357Y\263\372\332$\324\276\015*\304"
  61      C2ACEF59 
  61      B3FADA24 
  61      D4BE0D2A 
  61      C4
  62 0207 8272599F 		.ascii	"\202rY\237\023\224U_HB\035\330\240\",(\227\3659AY\365"
  62      1394555F 
  62      48421DD8 
  62      A0222C28 
  62      97F53941 
  63 021d 452454D9 		.ascii	"E$T\331\006\325\341\006*\300\254o\245Y}\035\022\252"
  63      06D5E106 
  63      2AC0AC6F 
  63      A5597D1D 
  63      12AA
  64 022f 6A83EA64 		.ascii	"j\203\352dA\271\254\317\011\312\252\257\323\234S6\250"
  64      41B9ACCF 
  64      09CAAAAF 
  64      D39C5336 
  64      A8
  65 0240 2E1694CB 		.ascii	".\026\224\313\372\234\240\254\372\272\3149e\203\212"
  65      FA9CA0AC 
  65      FABACC39 
  65      65838A
  66 024f BA816A65 		.ascii	"\272\201je\326\267\336\254\276\2509\247^\034C\305XP"
  66      D6B7DEAC 
  66      BEA839A7 
  66      5E1C43C5 
  66      5850
  67 0261 2EEB7382 		.ascii	".\353s\202\262\352\213\231s\312\006\325\315\202rY\237"
  67      B2EA8B99 
  67      73CA06D5 
  67      CD827259 
  67      9F
  68 0272 1394555F 		.ascii	"\023\224U_\2679\022lPq7PAf}\333\315\352\213\233#\301"
ARM GAS  /tmp/cc2NU3F2.s 			page 5


  68      B739126C 
  68      50713750 
  68      41667DDB 
  68      CDEA8B9B 
  69 0288 06956041 		.ascii	"\006\225`A\271\254\317\011\312\252/a\216\004\033T\222"
  69      B9ACCF09 
  69      CAAA2F61 
  69      8E041B54 
  69      92
  70 0299 05E5B23E 		.ascii	"\005\345\262>'(\253\276$\300\036 \275O\312\220\306\032"
  70      2728ABBE 
  70      24C01E20 
  70      BD4FCA90 
  70      C61A
  71 02ab 15FFB4F4 		.ascii	"\025\377\264\364\356E\245\300@\177\277vi*{;;2\246M\317"
  71      EE45A5C0 
  71      407FBF76 
  71      692A7B3B 
  71      3B32A64D 
  72 02c0 6A539339 		.ascii	"jS\2239mf\372\301\303Ym\354\306\325\201s\332\360\360"
  72      6D66FAC1 
  72      C3596DEC 
  72      C6D58173 
  72      DAF0F0
  73 02d3 65EDCAB5 		.ascii	"e\355\312\265\241\221Gg\265\231\311\334D.w\247?\015"
  73      A1914767 
  73      B599C9DC 
  73      442E77A7 
  73      3F0D
  74 02e5 BEF4F4FD 		.ascii	"\276\364\364\375\273\331{\177\000\361E\264o"
  74      BBD97B7F 
  74      00F145B4 
  74      6F
  75              		.text
  76              		.section	.gnu.lto__pal_lld_setgroupmode.cd128686add7e3ed,"",%progbits
  77 0000 789CCD56 		.ascii	"x\234\315VKL\\e\024>\347\277\357y\262\341\375,\245h"
  77      4B4C5C65 
  77      143EE7BF 
  77      EF79B2E1 
  77      FD2CA568 
  78 0014 62CB549B 		.ascii	"b\313T\233\030M\\\230\330\304Vk\260\264&\246\011%t:"
  78      184D5C98 
  78      D8C4566B 
  78      B0B426A6 
  78      0925743A 
  79 0028 152A4843 		.ascii	"\025*HC\215i\\\224)e\301\262q\205\256\240\36518\003"
  79      8D695C94 
  79      2965C1B2 
  79      7185AEA0 
  79      F5313803 
  80 003c 44496D89 		.ascii	"DIm\211I5HMCHW\023\352\002\023\026\323\306\0051]\260"
  80      4935484D 
  80      43485713 
  80      EA021316 
  80      D3C60531 
  81 0052 A809099E 		.ascii	"\250\011\011\236\3775w\030F\005V\336\311\314ws\316\371"
  81      FF357718 
ARM GAS  /tmp/cc2NU3F2.s 			page 6


  81      460556DE 
  81      C9CC7773 
  81      CEF9
  82 0064 CEF3BFE7 		.ascii	"\316\363\277\347\016\003\244\317\366\3536}\327B\000"
  82      0E03A4CF 
  82      F6EB367D 
  82      D74200
  83 0073 EF136219 		.ascii	"\357\023b\031 \273\361\020\340Z\023c\306\323rH>o\216"
  83      20BBF110 
  83      E05A1363 
  83      C6D37248 
  83      3E6F8E
  84 0086 BF02C9C3 		.ascii	"\277\002\311\303\006\332Rl2K\210m!\266\264\330\306\210"
  84      06DA526C 
  84      324B886D 
  84      21B6B4D8 
  84      C688
  85 0098 BC71983B 		.ascii	"\274q\230;\372\034\351=\376{\330\305\200\024{\372&\300"
  85      FA1CE93D 
  85      FE7BD8C5 
  85      80147BFA 
  85      26C0
  86 00aa 82421F12 		.ascii	"\202B\037\022\372 \206\2458\244o\302\322\321DS\2049"
  86      FA2086A5 
  86      38A46FC2 
  86      D2D14453 
  86      8439
  87 00bc 73F7812C 		.ascii	"s\367\201,\243\217\\\262\214\"r9U0\304\014\323\262\035"
  87      A38F5CB2 
  87      8C227239 
  87      5530C40C 
  87      D3B21D
  88 00cf D70B0443 		.ascii	"\327\013\004C\341H\024\207\336\023U\2255\303D2\371\331"
  88      E1481487 
  88      DE135595 
  88      35C34432 
  88      F9D9
  89 00e1 D3F9E1AA 		.ascii	"\323\371\341\252\341\325\315\315\306\004\227v!,>x\034"
  89      E1D5CDCD 
  89      C6049776 
  89      212C3E78 
  89      1C
  90 00f2 AD860422 		.ascii	"\255\206\004\"\270\300\221\0257A\362n\3742|L\361\014"
  90      B8C09115 
  90      3741F26E 
  90      FC327C4C 
  90      F10C
  91 0104 C1DB3828 		.ascii	"\301\3338(YM\212e\356\210\265rh/\254\245\351\357q/\274"
  91      594D8A65 
  91      EE88B572 
  91      682FACA5 
  91      E9EF712F 
  92 0119 94B317D6 		.ascii	"\224\263\027\326\250\267\027V\366\377\224c/j\342\365"
  92      A8B71756 
  92      F6FF9463 
  92      2F6AE2F5 
  93 0129 A4269A0C 		.ascii	"\244&\232\014^F\321\315\364\340NBna\276*\230\243\326"
ARM GAS  /tmp/cc2NU3F2.s 			page 7


  93      5E46D1CD 
  93      F4E04E42 
  93      6E61BE2A 
  93      98A3D6
  94 013c AE89AF09 		.ascii	"\256\211\257\011\342\203\335\023_\027\304\261\035ug"
  94      E283DD13 
  94      5F17C4B1 
  94      1D7567
  95 014b 0BF1A820 		.ascii	"\013\361\250 \376\261K\242\305\340\230 f\377\243;\271"
  95      FEB14BA2 
  95      C5E09820 
  95      66FFA33B 
  95      B9
  96 015c D49F6C65 		.ascii	"\324\237le\332\376\211\375\274\2729\324\002\267\224"
  96      DAFE89FD 
  96      BCBA39D4 
  96      02B794
  97 016b 9B04DA0C 		.ascii	"\233\004\332\014\336\222\036R\367\330v\027\254\320\326"
  97      DE921E52 
  97      F7D87617 
  97      ACD0D6
  98 017a 61D02E6C 		.ascii	"a\320.lWROJ\330\322\215\003\205\366.\203\323\302>\227"
  98      57524F4A 
  98      D8D28D03 
  98      85F62E83 
  98      D3C23E97 
  99 018e FAA1B4BD 		.ascii	"\372\241\264\275K_\033\016!t\342\035l\001F8\211\315"
  99      4B5F1B0E 
  99      2174E21D 
  99      6C014638 
  99      89CD
 100 01a0 60283409 		.ascii	"`(4\011\323\204\226B\233p\212\320Q\350\022\316\020z"
 100      D3849642 
 100      9B708AD0 
 100      51E812CE 
 100      107A
 101 01b2 0A0384B3 		.ascii	"\012\003\204\263\204A\354\3049\362\027\"\274M\030F\351"
 101      8441ECC4 
 101      39F21722 
 101      BC4D1846 
 101      E9
 102 01c3 3F42FA71 		.ascii	"?B\372q\322G\011\277#,W~+T\274J\345\247J\371\257&\234"
 102      D24709BF 
 102      232C577E 
 102      2B54BC4A 
 102      E5A74AF9 
 103 01da 20AC5176 		.ascii	" \254Qv\265J_Gx\223\260^\361\032\224}\243\252\243I\345"
 103      B54A5F47 
 103      7893B05E 
 103      F11A947D 
 103      A3AAA349 
 104 01ef B18FF016 		.ascii	"\261\217\360\026a3\341\227\204\373\011\277\"l!\374\232"
 104      6133E197 
 104      84FB09BF 
 104      226C21FC 
 104      9A
 105 0200 F000E137 		.ascii	"\360\000\3417\204\255\204)B\272,\030I&\313\234^T\256"
ARM GAS  /tmp/cc2NU3F2.s 			page 8


 105      84AD8429 
 105      42BA2C18 
 105      4926CB9C 
 105      5E54AE
 106 0213 6560E95E 		.ascii	"e`\351^\006\227\251\313\000]j\353\235\344H\033\265\203"
 106      0697A9CB 
 106      005D6AEB 
 106      9DE4481B 
 106      B583
 107 0225 5A4B68DC 		.ascii	"ZKh\334\207\205'\230K\327t\342\217hA\034\203\274\353"
 107      87852798 
 107      4BD774E2 
 107      8F68411C 
 107      83BCEB
 108 0238 06F5D5BF 		.ascii	"\006\365\325\277:\3703y\207\031\2130\377\366Z\372&J"
 108      3AF83379 
 108      87198B30 
 108      FFF65AFA 
 108      264A
 109 024a D317E0DB 		.ascii	"\323\027\340\333\344\010&\3203\276\200\317\011\003,"
 109      E40826D0 
 109      33BE80CF 
 109      09032C
 110 0259 8EA16A31 		.ascii	"\216\241j1%\2001\316?\253\027m\034\303\332\023Ms\334"
 110      258031CE 
 110      3FAB176D 
 110      1CC3DA13 
 110      4D73DC
 111 026c 9641D7D3 		.ascii	"\226A\327\323\037\025\0055\267\004\265\000VQ\004\335"
 111      1F150535 
 111      B704B500 
 111      565104DD 
 112 027c 485FDD79 		.ascii	"H_\335yL\334\026\323\026\205.\302\360\331\205\314U\035"
 112      4CDC16D3 
 112      16852EC2 
 112      F0D985CC 
 112      551D
 113 028e 321283E9 		.ascii	"2\022\203\351dY\002\203&\271\272F7!\366)\374\225\254"
 113      64590283 
 113      26B9BA46 
 113      3721F629 
 113      FC95AC
 114 02a1 4A60187B 		.ascii	"J`\030{\345\213\222;\346NP\270\013\372\271\221\2535"
 114      E58B923B 
 114      E64E50B8 
 114      0BFAB991 
 114      AB35
 115 02b3 E38AF614 		.ascii	"\343\212\366\024%g\000\277\212#\311%\262\353$\027\302"
 115      256700BF 
 115      8A23C925 
 115      B2EB2417 
 115      C2
 116 02c4 A5CC3DD4 		.ascii	"\245\314=\324\362\031qP\022(\353$\345\230\245US\305"
 116      F2197150 
 116      1228EB24 
 116      E598A555 
 116      53C5
ARM GAS  /tmp/cc2NU3F2.s 			page 9


 117 02d6 AABB8656 		.ascii	"\252\273\206V\245\213U=Z3Y\254\311f.j\335\254\322Y\005"
 117      A58B553D 
 117      5A3359AC 
 117      C9662E6A 
 117      DDACD259 
 118 02eb 1D7500E9 		.ascii	"\035u\000\351\225J\235\270\2366V2\347t\001\345q\024"
 118      954A9DB8 
 118      9E365632 
 118      E77401E5 
 118      7114
 119 02fd EB2B2206 		.ascii	"\353+\"\006PXHZ\024R\316+&J\356\240fT\304\321(\315\230"
 119      5058485A 
 119      1452CE2B 
 119      264AEEA0 
 119      6654C4D1 
 120 0314 148C0AC5 		.ascii	"\024\214\012\305X\313\\\320\224\3128z\245)3\202R\251"
 120      58CB5CD0 
 120      94CA387A 
 120      A5293382 
 120      52A9
 121 0326 28EBF920 		.ascii	"(\353\371 UqtJ3\246\004\243J0\346\214\015\177\250\325"
 121      5571744A 
 121      33A604A3 
 121      4A30E68C 
 121      0D7FA8D5 
 122 033a 71447994 		.ascii	"qDy\224\222|h\342\230\215\032y\255T\025^\035\264W\360"
 122      927C68E2 
 122      988D1A79 
 122      AD54155E 
 122      1DB457F0 
 123 034e F766DE92 		.ascii	"\367f\336\222\031ca\352\2426\255\241\252\245u\264dK"
 123      196361EA 
 123      A236ADA1 
 123      AAA575B4 
 123      644B
 124 0360 6A34DDF3 		.ascii	"j4\335\363\351\331\251\374y\256\025\365FK\325Y\253\231"
 124      E9D9A9FC 
 124      79AE15F5 
 124      464BD559 
 124      AB99
 125 0372 01390CB2 		.ascii	"\0019\014\262\240T\265\326\025\024!\220\201LU\344\312"
 125      A054B5D6 
 125      15142190 
 125      814C55E4 
 125      CA
 126 0383 54BEC83A 		.ascii	"T\276\310:\277\310$\333^e]q\225\313`R\302.UGEy4\367"
 126      BFC824DB 
 126      5E655D71 
 126      95CB6052 
 126      C22E5547 
 127 039b 6570293F 		.ascii	"ep)?\227\206C\351x\2246O'\350\027\222\363\373PO\263"
 127      978643E9 
 127      7894364F 
 127      27E81792 
 127      F3FB504F 
 128 03b0 2CDD0739 		.ascii	",\335\0079\350z]M\310\247\257\373}h\020S\214\226\232"
 128      E87A5D4D 
ARM GAS  /tmp/cc2NU3F2.s 			page 10


 128      C8A7AFFB 
 128      7D681053 
 128      8C969A
 129 03c3 5E836686 		.ascii	"^\203f\206\267\366Ajm\277\0172\020S\307c\303\317\255"
 129      B7F6416A 
 129      6DBF0F32 
 129      1053C763 
 129      C3CFAD
 130 03d6 51F52122 		.ascii	"Q\365!\"\036\320\302\010|\261\222^P\206\262\371\007"
 130      1ED0C208 
 130      7CB1925E 
 130      5086B2F9 
 130      07
 131 03e7 308E4D71 		.ascii	"0\216Mq\014\310\207\242\2302+\2424\311~\321V\251\017"
 131      0CC887A2 
 131      98322BA2 
 131      34C97ED1 
 131      56A90F
 132 03fa E678BF2A 		.ascii	"\346x\277*B9\336/\233\352\010\256\363~5\204\326e\277"
 132      4239DE2F 
 132      9BEA08AE 
 132      F37E3584 
 132      D665BF
 133 040d 282AFD1F 		.ascii	"(*\375\037\315\247-\371\001?m9O\317\027\310\302\234"
 133      CDA72DF9 
 133      013F6D39 
 133      4FCF17C8 
 133      C29C
 134 041f E2015BC5 		.ascii	"\342\001[\305\225\032\276@\326\201|\304#\2171\233\211"
 134      951ABE40 
 134      D6817CC4 
 134      238F319B 
 134      89
 135 0430 E83A5411 		.ascii	"\350:T\021N\301\214\221\026\236M?\215aj\3212\030z/\330"
 135      4EC18C91 
 135      169E4D3F 
 135      8D616AD1 
 135      32187A2F 
 136 0445 4B193ACC 		.ascii	"K\031:\314,\214\313`\345ew\015:Y\\\344\344Ec\026u\235"
 136      2C8CCB60 
 136      E565770D 
 136      3A595CE4 
 136      E4456316 
 137 045b 8BBCBCE8 		.ascii	"\213\274\274\350\031\211\\.\012\350Eb\323\202\241.\205"
 137      19895C2E 
 137      0AE84562 
 137      D382A12E 
 137      85
 138 046c 9F59BC05 		.ascii	"\237Y\274\005Q\265W\347\317\360\377\257:\267}\377\272"
 138      51B557E7 
 138      CFF0FFAF 
 138      3AB77DFF 
 138      BA
 139 047d A441EC68 		.ascii	"\244A\354h\346oR:\333)Gs\233\211.: \016\322\250\247"
 139      E66F523A 
 139      DB294773 
 139      9B892E3A 
ARM GAS  /tmp/cc2NU3F2.s 			page 11


 139      200ED2A8 
 140 0492 E5FB85CA 		.ascii	"\345\373\205\312\341\362\371\343\277\031;x\031\\)\214"
 140      E1F2F9E3 
 140      BF193B78 
 140      195C298C 
 141 04a2 430E04F5 		.ascii	"C\016\004\365L\266 \317\226\035\344i\374C\236\007\210"
 141      4CB620CF 
 141      961DE469 
 141      FC439E07 
 141      88
 142 04b3 2E465794 		.ascii	".FW\224g\253Py\273\316\323\320y\266\002<\004\244\277"
 142      67AB5079 
 142      BBCED3D0 
 142      79B6023C 
 142      04A4BF
 143 04c6 5F92AAAF 		.ascii	"_\222\252\257\223\374\020<ry9G\332\332bo\364\364\236"
 143      93FC103C 
 143      72793947 
 143      DADA626F 
 143      F4F49E
 144 04d9 EB6D3F15 		.ascii	"\353m?\025\033\270\034\353\351\356\213]\032\030\374"
 144      1BB81CEB 
 144      E9EE8B5D 
 144      1A18FC
 145 04e8 F872ECD4 		.ascii	"\370r\354\324\351w\216\274\024;q\342h\354\315w\217\267"
 145      E9778EBC 
 145      143B71E2 
 145      68ECCD77 
 145      8FB7
 146 04fa 7FF262EC 		.ascii	"\177\362b\354Rw_W_\337\371\2668\260\376\036\326\337"
 146      52775F57 
 146      5FDFF9B6 
 146      38B0FE1E 
 146      D6DF
 147 050c 67C4077B 		.ascii	"g\304\007{\350Kx\341\003\35459\313\354\357\276\374\241"
 147      E84B78E1 
 147      03EC3539 
 147      CBECEFBE 
 147      FCA1
 148 051e D93F703E 		.ascii	"\331?p>\3617\337\343\260\311"
 148      F137DFE3 
 148      B0C9
 149              		.text
 150              		.section	.gnu.lto_.cgraph.cd128686add7e3ed,"",%progbits
 151 0000 789C6362 		.ascii	"x\234cb`d`f``\220c\200\002\246\343\214\365\014\014\023"
 151      60646066 
 151      60609063 
 151      8002A6E3 
 151      8CF50C0C 
 152 0015 CE31D4D7 		.ascii	"\3161\324\327\317\353`d:\301X\317\010\3471\000\000\224"
 152      CFEB6064 
 152      3AC158CF 
 152      08E73100 
 152      0094
 153 0027 F909BF   		.ascii	"\371\011\277"
 154              		.text
 155              		.section	.gnu.lto_.vars.cd128686add7e3ed,"",%progbits
ARM GAS  /tmp/cc2NU3F2.s 			page 12


 156 0000 789C6362 		.ascii	"x\234cb`d`f```g\200\000\306\223\214\014,\365\314\000"
 156      60646066 
 156      60606067 
 156      8000C693 
 156      8C0C2CF5 
 157 0016 06CB015F 		.ascii	"\006\313\001_"
 158              		.text
 159              		.section	.gnu.lto_.refs.cd128686add7e3ed,"",%progbits
 160 0000 789C6362 		.ascii	"x\234cb`d`f```c\200\000FFF \011\000\000\357\000\020"
 160      60646066 
 160      60606063 
 160      80004646 
 160      46200900 
 161              		.text
 162              		.section	.gnu.lto_.statics.cd128686add7e3ed,"",%progbits
 163 0000 789C6362 		.ascii	"x\234cb`d`b\300\016@\342\214\020&\000\000\375\000\011"
 163      60646062 
 163      C00E40E2 
 163      8C102600 
 163      00FD0009 
 164              		.text
 165              		.section	.gnu.lto_.decls.cd128686add7e3ed,"",%progbits
 166 0000 789CAD58 		.ascii	"x\234\255XqLSG\030\277{\257\264\024*\212\231\016\315"
 166      714C5347 
 166      18BF7BAF 
 166      B4142A8A 
 166      990ECD
 167 0013 32EB32B7 		.ascii	"2\3532\267\305L\236\210q\230\314eP\034\220\241\222\302"
 167      C54C9E88 
 167      7198CC65 
 167      501C90A1 
 167      92C2
 168 0025 FE7CE94A 		.ascii	"\376|\351J)\320\254\264\004\312\346\376{\2421\314Md"
 168      29D0ACB4 
 168      04CAE6FE 
 168      7BA231CC 
 168      4D64
 169 0037 468DC66C 		.ascii	"F\215\306lbDEg\230\272\240\0313\312\"Q\003\304\341\304"
 169      62444567 
 169      98BAA019 
 169      33CA2251 
 169      03C4E1C4 
 170 004b 38274B70 		.ascii	"8'Kp f\013\331\222\211\206\031\221}w\357\275k_}\217"
 170      20660BD9 
 170      92898619 
 170      917D77EF 
 170      BD6B5F7D 
 171 0060 B6CE4BBF 		.ascii	"\266\316K\277{\327\357}\367\273\337\335\367\335w\327"
 171      7BD7EF7D 
 171      F7BBDFDD 
 171      F7DD77D7 
 172 0070 72082352 		.ascii	"r\010#R\336\204\3074\224=\363\020z\207C\210\007\335"
 172      DE84C734 
 172      943DF310 
 172      7A874388 
 172      07DD
 173 0082 1A10F2D6 		.ascii	"\032\020\362\326\202\344\002j\324\012rY\321\377\203"
ARM GAS  /tmp/cc2NU3F2.s 			page 13


 173      82E4026A 
 173      D40A7259 
 173      D1FF83
 174 0091 B485BCB3 		.ascii	"\264\205\274\263)\366iJ\373\020\3105\220)\220\371\320"
 174      29F6694A 
 174      FB10C835 
 174      902990F9 
 174      D0
 175 00a2 E945900C 		.ascii	"\351E\220\014\2206\370\336\007rG\261K\003\335qx\236"
 175      9036F8DE 
 175      077247B1 
 175      4B03DD71 
 175      789E
 176 00b4 04B90972 		.ascii	"\004\271\011r\026\344:H'\310\000H\027\3109\220\363 "
 176      16E43A48 
 176      27C80048 
 176      17C83990 
 176      F320
 177 00c6 DDCAF8AD 		.ascii	"\335\312\370\255\350\351B\270\315V\336\253\034\010\237"
 177      E8E942B8 
 177      CD56DEAB 
 177      1C089F
 178 00d5 53204920 		.ascii	"S I \275 # \367\024^\204\303\004\310}\220\005\320\311"
 178      BD202320 
 178      F7145E84 
 178      C304C87D 
 178      9005D0C9 
 179 00e9 8464B905 		.ascii	"\204d\271\005r[\3410\240\340\031\315{\021\372Zj\035"
 179      725BE130 
 179      A0E019CD 
 179      7B11FA5A 
 179      6A1D
 180 00fb 6ED92C15 		.ascii	"n\331,\025NNO[\346\243\335\022\224\326\255\222\204C"
 180      4E4E4F5B 
 180      E6A3DD12 
 180      94D6AD92 
 180      8443
 181 010d 225E330F 		.ascii	"\"^3\017-@\"N\263\"d\247-\233U\036\001A\373 \236O[<"
 181      2D40224E 
 181      B32264A7 
 181      2D9B551E 
 181      0141FB20 
 182 0125 5D5B948A 		.ascii	"][\224\212\266IR#\351Zx%m.\372\222\342\000\314\025\230"
 182      B6495223 
 182      E95A7825 
 182      6D2EFA92 
 182      E200CC15 
 183 013a 890A32CC 		.ascii	"\211\0122\3143\224\267\241\313\022\324&I-`\207\025{"
 183      3394B7A1 
 183      CB12D426 
 183      492D6087 
 183      157B
 184 014c FB0CC622 		.ascii	"\373\014\306\">\214\227\2408\014\211\351Q@\\\212\216"
 184      3E8C97A0 
 184      380C89E9 
 184      51405C8A 
 184      8E
ARM GAS  /tmp/cc2NU3F2.s 			page 14


 185 015d 49B4C841 		.ascii	"I\264\310A\242\304\012\220\245\303\322\027\262!\351"
 185      A2C40A90 
 185      A5C3D217 
 185      B221E9
 186 016c D08E97A2 		.ascii	"\320\216\227\242\261\246\357\372\261\216[\222\026#\230"
 186      B1A6EFFA 
 186      B18E5B92 
 186      162398
 187 017b 08215A68 		.ascii	"\010!Zh\326\033\377C6\274M3)\021\177\003\350\034Z\203"
 187      D61BFF43 
 187      36BC4D33 
 187      29117F03 
 187      E81C5A83 
 188 018f 95011E7F 		.ascii	"\225\001\036\177\"\003\306\006!\224:\240\263\334/\222"
 188      2203C606 
 188      21943AA0 
 188      B3DC2F92 
 189 019f 704704E1 		.ascii	"pG\004\341\236\263f\035\272<\245\333H\\j\266\242\246"
 189      9EB3661D 
 189      BA3CA5DB 
 189      485C6AB6 
 189      A2A6
 190 01b1 B0539081 		.ascii	"\260S\220\2013#\031\237\302V`\\\2422\036\333~\355\222"
 190      3323199F 
 190      C256605C 
 190      A2321EDB 
 190      7EED92
 191 01c4 80144216 		.ascii	"\200\024B\026k\3440\364\273l%\003\313\257\325\026\331"
 191      6BE430F4 
 191      BB6C2503 
 191      CBAFD516 
 191      D9
 192 01d5 8FB3C96A 		.ascii	"\217\263\311j_\300X\231\314X\373\337/\3503P\333rQm\224"
 192      5FC05899 
 192      CC58FBDF 
 192      2FE83350 
 192      DB72516D 
 193 01ea 12311D95 		.ascii	"\0221\035\225\337E\2069jI\004\321n\210x\231!N\304@L"
 193      DF458639 
 193      6A4904D1 
 193      6E887899 
 193      214EC440 
 194 01ff D6E3F874 		.ascii	"\326\343\370t\211\364\237\210\277\205\320\345E|\022"
 194      89F49F88 
 194      BF85D0E5 
 194      457C12
 195 020e 2F862F9D 		.ascii	"/\206/\235\264>\0135RC\262\217\016O\202qp\337\030\326"
 195      B43E0B35 
 195      5243B28F 
 195      0E4F8271 
 195      70DF18D6 
 196 0222 8F89D88B 		.ascii	"\217\211\330\213$\207\250\032v?3\314\321\0053#j\247"
 196      2487A81A 
 196      763F33CC 
 196      D1053323 
 196      6AA7
 197 0234 643744BC 		.ascii	"d7D\274\305\020'b f\304\311q\230!\366,\234\031\321\036"
ARM GAS  /tmp/cc2NU3F2.s 			page 15


 197      C5102762 
 197      2066C4C9 
 197      719821F6 
 197      2C9C19D1 
 198 0249 27C77B0C 		.ascii	"'\307{\014q(\006\342\362\031\034\251\372\355\030\370"
 198      712806E2 
 198      F2191CA9 
 198      FAED18F8 
 199 0259 2D49C4C7 		.ascii	"-I\304\307\251\307\272h}\216\326\347i\335\035\351\303"
 199      A9C7BA68 
 199      7D8ED6E7 
 199      69DD1DE9 
 199      C3
 200 026a BFB0BA6B 		.ascii	"\277\260\272k\306\367\247\2510r~\211\300=\312\242\002"
 200      C6F7A7A9 
 200      30727E89 
 200      C03DCAA2 
 200      02
 201 027b C5896C9C 		.ascii	"\305\211l\234\201\017\341T\325\010\266n\031\317\250"
 201      810FE154 
 201      D508B66E 
 201      19CFA8
 202 028a 4C322A5D 		.ascii	"L2*]m\337_R\222\304\253\350\220$\355$Q/\367\344P\027"
 202      6DDF5F52 
 202      92C4ABE8 
 202      9024ED24 
 202      512FF7E4 
 203 02a0 47CC5AF1 		.ascii	"G\314Z\361\"\364\213\325`\024e\220\327\320a\222\177"
 203      22F48BD5 
 203      60146590 
 203      D7D06192 
 203      7F
 204 02b1 BA1B33E8 		.ascii	"\272\0333\350\241\200\224n\325\232\251]\304\\\344\\"
 204      A180946E 
 204      D59AA95D 
 204      C45CE45C 
 205 02c1 9FFD64B9 		.ascii	"\237\375d\271\022\373d\321\036\000\230A\274\204\264"
 205      12FB64D1 
 205      1E009841 
 205      BC84B4
 206 02d0 F9AC8F06 		.ascii	"\371\254\217\006\305\217\234\272\036\217N\334\230\316"
 206      C58F9CBA 
 206      1E8F4EDC 
 206      98CE
 207 02de 91F9C581 		.ascii	"\221\371\305\201D\310\\\325M\303W#\322p\377\324\210"
 207      44C85CD5 
 207      4DC35723 
 207      D270FFD4 
 207      88
 208 02ef 2D3A80A0 		.ascii	"-:\200\240XHtn\331\034\316\303\233c\344a\021\237\206"
 208      5848746E 
 208      D91CCEC3 
 208      9B63E461 
 208      119F86
 209 0302 708B37AF 		.ascii	"p\2137\257>\244s\"<\206\246F\2365\257*\364D|\215f\301"
 209      3EA47322 
 209      3C86A646 
ARM GAS  /tmp/cc2NU3F2.s 			page 16


 209      9E35AF2A 
 209      F4447C8D 
 210 0318 470C7374 		.ascii	"G\014st\212\177\306\304\032\005\371\204A\216\307\202"
 210      8A7FC6C4 
 210      1A05F984 
 210      418EC782 
 211 0328 D4CDAC3A 		.ascii	"\324\315\254:\220\215\274\0129\221\030\2441\313\255"
 211      908DBC0A 
 211      399118A4 
 211      31CBAD
 212 0337 0CF2712C 		.ascii	"\014\362q,\3109q\262\374\234A\366<I\010\322\230\345"
 212      C83971B2 
 212      FC9C41F6 
 212      3C4908D2 
 212      98E5
 213 0349 0E06D91F 		.ascii	"\016\006\331\037\013R7\001?]\"\303[\304?A\370YD<@3\320"
 213      0B523701 
 213      3F5D22C3 
 213      5BC43F41 
 213      F859443C 
 214 0360 755ADFA0 		.ascii	"uZ\337\240\365MZ\337\242\365mZ\377\026+?En\302^\232"
 214      F54D5ADF 
 214      A2F56D5A 
 214      FF162B3F 
 214      456EC25E 
 215 0375 6D76F1EC 		.ascii	"mv\361\354V\321~\241GIV\232\275-oW\343\274p\007p\324"
 215      56D17EA1 
 215      4749569A 
 215      BD2D6F57 
 215      E3BC7007 
 216 038b 9D113D8F 		.ascii	"\235\021=\217\250w\274\222;\022\276\000\215\320\225"
 216      A877BC92 
 216      3B12BE00 
 216      8DD095
 217 039a 3EC0B88E 		.ascii	">\300\270\216\177u\034\253c\220\253\202f\320xv*Kc\011"
 217      7F751CAB 
 217      6390AB82 
 217      66D07876 
 217      2A4B6309 
 218 03ae 53B947A9 		.ascii	"S\271G\251\234`T\006_\376\237D4gD'\037>#v\367\352\234"
 218      9C605406 
 218      5FFE9F44 
 218      34674427 
 218      1F3E2376 
 219 03c5 11B2D7FA 		.ascii	"\021\262\327\372\250\331eH\366\223\006g\004\027\331"
 219      A8D96548 
 219      F6930667 
 219      0417D9
 220 03d4 495EBE01 		.ascii	"I^\276\001\326i\250}\2143<Z\210\261fHy\3067X\357\321"
 220      D669A87D 
 220      8C333C5A 
 220      88B16648 
 220      79C63758 
 221 03ea F633C6BD 		.ascii	"\3663\306\275\2111\222i\352\235O\244\377`\373B\3152"
 221      89319269 
 221      EA9D4FA4 
 221      FF60FB42 
ARM GAS  /tmp/cc2NU3F2.s 			page 17


 221      CD32
 222 03fc FDA93DA1 		.ascii	"\375\251=\241^A\007\245\201\001r}h\034\236\236^\224"
 222      5E4107A5 
 222      8101727D 
 222      681C9E9E 
 222      5E94
 223 040e 8E5AE881 		.ascii	"\216Z\350\201\2607Mq\325\360\341\356\214\275\021\256"
 223      B0374D71 
 223      D5F0E1EE 
 223      8CBD11AE 
 224 041e 4A6614B0 		.ascii	"Jf\024\260\306U\314\\\232\301\\\304\017hv\307ZWa\346"
 224      C655CC5C 
 224      9AC15CC4 
 224      0F6876C7 
 224      5A5761E6 
 225 0432 2AD29AC6 		.ascii	"*\322\232\306\3045\277\206w\312\366\316)Ne\037\355\364"
 225      C435BF86 
 225      77CAF6CE 
 225      294E651F 
 225      EDF4
 226 0444 98482A91 		.ascii	"\230H*\221\226\360\251&\337F\3023\025\361C\26064\024"
 226      96F0A926 
 226      DF46C233 
 226      15F143B0 
 226      363414
 227 0457 F1244E47 		.ascii	"\361$NG,z%\266Qm\326\031\366\351\277\012\323\360Y\241"
 227      2C7A25B6 
 227      516DD619 
 227      F6E9BF0A 
 227      D3F059A1 
 228 046b B6D23513 		.ascii	"\266\3225\023P\355`\312\2773\237w\265\355\357\3151$"
 228      50ED60CA 
 228      BF339F77 
 228      B5EDEFCD 
 228      3124
 229 047d C4A13F78 		.ascii	"\304\241?xy?f\243\323R\323\273\"\276\017\004\347\206"
 229      793F66A3 
 229      D352D3BB 
 229      22BE0F04 
 229      E786
 230 048f 139D3A7F 		.ascii	"\023\235:\177\023\343\207\231\216c:N\307\216g\272d\246"
 230      13E38799 
 230      8E633A4E 
 230      C78E67BA 
 230      64A6
 231 04a1 33E9E892 		.ascii	"3\351\350\222\242V\233\350\314L\3073\235\205\351,Q!"
 231      A2569BE8 
 231      CC4CC733 
 231      9D85E92C 
 231      5121
 232 04b3 A1C5B3EA 		.ascii	"\241\305\263\352\350Rtt\251::\233\216n\226\216.MG7["
 232      E8527474 
 232      A93A3A9B 
 232      8E6E968E 
 232      2E4D4737 
 233 04c8 473787E9 		.ascii	"G7\207\351R\231.\235\351H\022\321\2735us\314KoD\345"
 233      52992E9D 
ARM GAS  /tmp/cc2NU3F2.s 			page 18


 233      E94812D1 
 233      BB357573 
 233      CC4B6F44 
 234 04dd B0297AFF 		.ascii	"\260)z\377z\300\207\357_\235GV\313N\217\003\211\004"
 234      7AC087EF 
 234      5F9D4756 
 234      CB4E8F03 
 234      8904
 235 04ef 89C4E9DD 		.ascii	"\211\304\351\335\277\210V\275\177\2156\337\325\273\177"
 235      BF8856BD 
 235      7F8D36DF 
 235      D5BB7F
 236 04fe A5E89CA0 		.ascii	"\245\350\234\240\233LX\201\234h\276\373\234.M[\030\346"
 236      9B4C5881 
 236      9C68BEFB 
 236      9C2E4D5B 
 236      18E6
 237 0510 E3E6A4E7 		.ascii	"\343\346\244\347si\372\214A\366\354\210\001\031\357"
 237      7369FA8C 
 237      41F6EC88 
 237      0119EF
 238 051f A5693B83 		.ascii	"\245i;\203\354O\014\322\230\345\036\0069\030\0132\336"
 238      EC4F0CD2 
 238      98E51E06 
 238      39180B32 
 238      DE
 239 0530 4BD30106 		.ascii	"K\323\001\0069\224\030\2441\313#\014r4\026\244\341\257"
 239      399418A4 
 239      31CB230C 
 239      723416A4 
 239      E1AF
 240 0542 D628C80E 		.ascii	"\326(\310\016\0069\236\030\2441\3133\341\300\214\005"
 240      06399E18 
 240      A431CB33 
 240      E1C08C05 
 241 0552 698F93E5 		.ascii	"i\217\223\345\017\341\270L\014\322\256\263\231h\211"
 241      0FE1B84C 
 241      0CD2AEB3 
 241      996889
 242 0561 DC8C22DE 		.ascii	"\334\214\"\336\304-A)\"n\344\310}p\013\255\267\322\272"
 242      C42D4129 
 242      226EE4C8 
 242      7D700BAD 
 242      B7D2BA
 243 0574 89D6DB68 		.ascii	"\211\326\333h\375\005\255\233i\335B\353\235\264\336"
 243      FD05AD9B 
 243      69DD42EB 
 243      9DB4DE
 244 0583 C5B1FB63 		.ascii	"\305\261\373c\324\025pj\306+\340\036\216\375\344e\367"
 244      D415706A 
 244      C62BE01E 
 244      8EFDE465 
 244      F7
 245 0594 A9EEE7F4 		.ascii	"\251\356\347\364\233\312\340OK\355\277\007\">A\001;"
 245      9BCAE04F 
 245      4BEDBF07 
 245      223E4101 
ARM GAS  /tmp/cc2NU3F2.s 			page 19


 245      3B
 246 05a5 227EC71B 		.ascii	"\"~\307\033\377\263\02357rV\031\317m_xn\310\\\260\376"
 246      FFB31335 
 246      37725619 
 246      CF6D5F78 
 246      6EC85CB0 
 247 05ba 03BB0365 		.ascii	"\003\273\003egf\012\216j_\271oC\251\020\254\027\252"
 247      67660A8E 
 247      6A5FB96F 
 247      43A910AC 
 247      17AA
 248 05cc DD7EA136 		.ascii	"\335~\2416X\027\252\027J\313\326e\257\020\212\213\363"
 248      5817AA17 
 248      4ACBD665 
 248      AF108A8B 
 248      F3
 249 05dd 858292A2 		.ascii	"\205\202\222\242\015\037g\011\265n\277\313\357\257\310"
 249      0D1F6709 
 249      B56EBFCB 
 249      EFAFC8
 250 05ec AC4673EB 		.ascii	"\254Fs\353C5\331+\\U\265\276\240\253\336\033j\250u\205"
 250      4335D92B 
 250      5C55B5BE 
 250      A0ABDE1B 
 250      6AA87585 
 251 0600 921B7C81 		.ascii	"\222\033|\201\020\350B^\241:X\343\025\374\356\206:o"
 251      10E8425E 
 251      A13A58E3 
 251      15FCEE86 
 251      3A6F
 252 0612 C0E31572 		.ascii	"\300\343\025r\235\353\226\0258\034B\271/ \300P~_\271"
 252      9DEB9615 
 252      381C42B9 
 252      2F20C050 
 252      7E5FB9
 253 0625 50E5F108 		.ascii	"P\345\361\010\356\272\232e\201`\300\273\314\353.\367"
 253      EEBA9A65 
 253      8160C0BB 
 253      CCEB2EF7 
 254 0635 092B33DF 		.ascii	"\011+3\337\312\\I^\263\217\366\275/\340\3617Tx\205\372"
 254      CA5C495E 
 254      B38FF6BD 
 254      2FE0F137 
 254      547885FA 
 255 0649 50050C03 		.ascii	"P\005\014\003\014\370`E\035\357\251\363\203T\233Kr\363"
 255      0CF86045 
 255      1DEFA9F3 
 255      83549B4B 
 255      72F3
 256 065b DD21B7B9 		.ascii	"\335!\267\271$O~8\344G\276\374XK\036\326\222\334bG0"
 256      244F7E38 
 256      E447BEFC 
 256      584B1ED6 
 256      92DC6247 
 257 0670 50E9AB9A 		.ascii	"P\351\253\232\345R\246\341\362\005|\241\304'\357Af\017"
 257      E552A6E1 
 257      F2057CA1 
ARM GAS  /tmp/cc2NU3F2.s 			page 20


 257      C427EF41 
 257      660F
 258 0682 05B29117 		.ascii	"\005\262\221\027\256\262Ok\275\371\336\312\327\2658"
 258      AEB24F6B 
 258      BDF9DECA 
 258      D7B538
 259 0691 DE8D21C1 		.ascii	"\336\215!\301\261\256\264\250\024p\004\272V\225Y\313"
 259      B1AEB4A8 
 259      147004BA 
 259      569559CB 
 260 06a1 3712DA0E 		.ascii	"7\022\332\016g1H!_\224\357\3447\344;My\245N'\237\347"
 260      67314821 
 260      5F94EFE4 
 260      37E43B4D 
 260      79A54E27 
 261 06b7 749A8A1D 		.ascii	"t\232\212\035\357;S|A2\272\257\302\025\262\311\315\032"
 261      EF3B537C 
 261      4132BAAF 
 261      C215B2C9 
 261      CD1A
 262 06c9 77FD47B0 		.ascii	"w\375G\260\266\276`M\260\302\353\012\315c\344a\325\253"
 262      B6BE604D 
 262      B0C2EB0A 
 262      CD63E461 
 262      D5AB
 263 06db EA820DB5 		.ascii	"\352\202\015\265Do\"\226&bj\"_-\304\0239\256\220\331"
 263      446F2296 
 263      26626A22 
 263      5F2DC413 
 263      39AE90D9 
 264 06ef 53591572 		.ascii	"SY\025r\227\247\312\217\314U9\253V\247:\035\016\225"
 264      97A7CA8F 
 264      CC5539AB 
 264      56A73A1D 
 264      0E95
 265 0701 32E7709A 		.ascii	"2\347p\232\034\357\0258yG\22139\267$o\205\263\264\214"
 265      1CEF1538 
 265      79479133 
 265      39B7246F 
 265      85B3B48C 
 266 0715 36B248C3 		.ascii	"6\262H\303\234[\230\267v\275\323B^(\317,x\232\362\362"
 266      9C5B98B7 
 266      76BDD342 
 266      5E28CF2C 
 266      789AF2F2 
 267 0729 1DD0A3D4 		.ascii	"\035\320\243\324\371\037\321Y\031`"
 267      F91FD159 
 267      1960
 268              		.text
 269              		.section	.gnu.lto_.symtab.cd128686add7e3ed,"",%progbits
 270 0000 5F70616C 		.ascii	"_pal_lld_init\000\000\000\000\000\000\000\000\000\000"
 270      5F6C6C64 
 270      5F696E69 
 270      74000000 
 270      00000000 
 271 0017 0000A000 		.ascii	"\000\000\240\000\000\000_pal_lld_setgroupmode\000\000"
 271      00005F70 
ARM GAS  /tmp/cc2NU3F2.s 			page 21


 271      616C5F6C 
 271      6C645F73 
 271      65746772 
 272 0034 00000000 		.ascii	"\000\000\000\000\000\000\000\000\000\000\307\000\000"
 272      00000000 
 272      0000C700 
 272      00
 273 0041 00       		.ascii	"\000"
 274              		.text
 275              		.section	.gnu.lto_.opts,"",%progbits
 276 0000 272D6444 		.ascii	"'-dD''-mcpu=cortex-m3''-mno-thumb-interwork''-mthum"
 276      27272D6D 
 276      6370753D 
 276      636F7274 
 276      65782D6D 
 277 0033 6227272D 		.ascii	"b''-ggdb''-g3''-O2''-fomit-frame-pointer''-falign-f"
 277      67676462 
 277      27272D67 
 277      3327272D 
 277      4F322727 
 278 0066 756E6374 		.ascii	"unctions=16''-ffunction-sections''-fdata-sections''"
 278      696F6E73 
 278      3D313627 
 278      272D6666 
 278      756E6374 
 279 0099 2D666E6F 		.ascii	"-fno-common''-flto'\000"
 279      2D636F6D 
 279      6D6F6E27 
 279      272D666C 
 279      746F2700 
 280              		.text
 281              		.cfi_sections	.debug_frame
 282              		.section	.text._pal_lld_init,"ax",%progbits
 283              		.align	2
 284              		.p2align 4,,15
 285              		.global	_pal_lld_init
 286              		.thumb
 287              		.thumb_func
 288              		.type	_pal_lld_init, %function
 289              	_pal_lld_init:
 290              	.LFB199:
 291              		.file 1 "../ChibiOS/os/hal/ports/STM32/LLD/GPIOv1/pal_lld.c"
 292              		.loc 1 76 0
 293              		.cfi_startproc
 294              		@ args = 0, pretend = 0, frame = 0
 295              		@ frame_needed = 0, uses_anonymous_args = 0
 296              		@ link register save eliminated.
 297              	.LVL0:
 298              		.loc 1 81 0
 299 0000 4FF48053 		mov	r3, #4096
 300 0004 C4F20203 		movt	r3, 16386
 301 0008 9A69     		ldr	r2, [r3, #24]
 302              		.loc 1 76 0
 303 000a 10B4     		push	{r4}
 304              	.LCFI0:
 305              		.cfi_def_cfa_offset 4
 306              		.cfi_offset 4, -4
ARM GAS  /tmp/cc2NU3F2.s 			page 22


 307              		.loc 1 81 0
 308 000c 42F07D01 		orr	r1, r2, #125
 309 0010 9961     		str	r1, [r3, #24]
 310              		.loc 1 86 0
 311 0012 0468     		ldr	r4, [r0, #0]
 312 0014 4FF40062 		mov	r2, #2048
 313 0018 C4F20102 		movt	r2, 16385
 314 001c D460     		str	r4, [r2, #12]
 315              		.loc 1 87 0
 316 001e 8168     		ldr	r1, [r0, #8]
 317              		.loc 1 89 0
 318 0020 4FF44063 		mov	r3, #3072
 319              		.loc 1 87 0
 320 0024 5160     		str	r1, [r2, #4]
 321              		.loc 1 88 0
 322 0026 4468     		ldr	r4, [r0, #4]
 323              		.loc 1 89 0
 324 0028 C4F20103 		movt	r3, 16385
 325              		.loc 1 88 0
 326 002c 1460     		str	r4, [r2, #0]
 327              		.loc 1 89 0
 328 002e C268     		ldr	r2, [r0, #12]
 329              		.loc 1 92 0
 330 0030 4FF48051 		mov	r1, #4096
 331              		.loc 1 89 0
 332 0034 DA60     		str	r2, [r3, #12]
 333              		.loc 1 90 0
 334 0036 4469     		ldr	r4, [r0, #20]
 335              		.loc 1 92 0
 336 0038 C4F20101 		movt	r1, 16385
 337              		.loc 1 90 0
 338 003c 5C60     		str	r4, [r3, #4]
 339              		.loc 1 91 0
 340 003e 0469     		ldr	r4, [r0, #16]
 341              		.loc 1 95 0
 342 0040 4FF4A052 		mov	r2, #5120
 343              		.loc 1 91 0
 344 0044 1C60     		str	r4, [r3, #0]
 345              		.loc 1 92 0
 346 0046 8369     		ldr	r3, [r0, #24]
 347              		.loc 1 95 0
 348 0048 C4F20102 		movt	r2, 16385
 349              		.loc 1 92 0
 350 004c CB60     		str	r3, [r1, #12]
 351              		.loc 1 93 0
 352 004e 046A     		ldr	r4, [r0, #32]
 353              		.loc 1 99 0
 354 0050 4FF4C053 		mov	r3, #6144
 355              		.loc 1 93 0
 356 0054 4C60     		str	r4, [r1, #4]
 357              		.loc 1 94 0
 358 0056 C469     		ldr	r4, [r0, #28]
 359              		.loc 1 99 0
 360 0058 C4F20103 		movt	r3, 16385
 361              		.loc 1 94 0
 362 005c 0C60     		str	r4, [r1, #0]
 363              		.loc 1 95 0
ARM GAS  /tmp/cc2NU3F2.s 			page 23


 364 005e 416A     		ldr	r1, [r0, #36]
 365 0060 D160     		str	r1, [r2, #12]
 366              		.loc 1 96 0
 367 0062 C16A     		ldr	r1, [r0, #44]
 368 0064 5160     		str	r1, [r2, #4]
 369              		.loc 1 97 0
 370 0066 816A     		ldr	r1, [r0, #40]
 371 0068 1160     		str	r1, [r2, #0]
 372              		.loc 1 99 0
 373 006a 026B     		ldr	r2, [r0, #48]
 374 006c DA60     		str	r2, [r3, #12]
 375              		.loc 1 100 0
 376 006e 816B     		ldr	r1, [r0, #56]
 377 0070 5960     		str	r1, [r3, #4]
 378              		.loc 1 101 0
 379 0072 406B     		ldr	r0, [r0, #52]
 380              	.LVL1:
 381 0074 1860     		str	r0, [r3, #0]
 382              		.loc 1 113 0
 383 0076 10BC     		pop	{r4}
 384 0078 7047     		bx	lr
 385              		.cfi_endproc
 386              	.LFE199:
 387              		.size	_pal_lld_init, .-_pal_lld_init
 388 007a 00BFAFF3 		.section	.text._pal_lld_setgroupmode,"ax",%progbits
 388      0080
 389              		.align	2
 390              		.p2align 4,,15
 391              		.global	_pal_lld_setgroupmode
 392              		.thumb
 393              		.thumb_func
 394              		.type	_pal_lld_setgroupmode, %function
 395              	_pal_lld_setgroupmode:
 396              	.LFB200:
 397              		.loc 1 132 0
 398              		.cfi_startproc
 399              		@ args = 0, pretend = 0, frame = 0
 400              		@ frame_needed = 0, uses_anonymous_args = 0
 401              		@ link register save eliminated.
 402              	.LVL2:
 403              		.loc 1 156 0
 404 0000 032A     		cmp	r2, #3
 405              		.loc 1 132 0
 406 0002 F0B4     		push	{r4, r5, r6, r7}
 407              	.LCFI1:
 408              		.cfi_def_cfa_offset 16
 409              		.cfi_offset 4, -16
 410              		.cfi_offset 5, -12
 411              		.cfi_offset 6, -8
 412              		.cfi_offset 7, -4
 413              		.loc 1 156 0
 414 0004 00F09980 		beq	.L38
 415              		.loc 1 158 0
 416 0008 042A     		cmp	r2, #4
 417              		.loc 1 159 0
 418 000a 08BF     		it	eq
 419 000c 4161     		streq	r1, [r0, #20]
ARM GAS  /tmp/cc2NU3F2.s 			page 24


 420              	.L4:
 421              		.loc 1 160 0
 422 000e 4C4B     		ldr	r3, .L39
 423              		.loc 1 167 0
 424 0010 01F08004 		and	r4, r1, #128
 425              		.loc 1 160 0
 426 0014 9B5C     		ldrb	r3, [r3, r2]	@ zero_extendqisi2
 427              	.LVL3:
 428              		.loc 1 167 0
 429 0016 002C     		cmp	r4, #0
 430              		.loc 1 171 0
 431 0018 01F40042 		and	r2, r1, #32768
 432              	.LVL4:
 433              		.loc 1 165 0
 434 001c 14BF     		ite	ne
 435 001e 1F46     		movne	r7, r3
 436 0020 0027     		moveq	r7, #0
 437 0022 14BF     		ite	ne
 438 0024 0026     		movne	r6, #0
 439 0026 0F26     		moveq	r6, #15
 440              	.LVL5:
 441              		.loc 1 171 0
 442 0028 002A     		cmp	r2, #0
 443              		.loc 1 166 0
 444 002a 14BF     		ite	ne
 445 002c 1D46     		movne	r5, r3
 446 002e 0025     		moveq	r5, #0
 447              	.LVL6:
 448              		.loc 1 175 0
 449 0030 4FEA4102 		lsl	r2, r1, #1
 450              	.LVL7:
 451              		.loc 1 163 0
 452 0034 4FEA0614 		lsl	r4, r6, #4
 453              	.LVL8:
 454              		.loc 1 164 0
 455 0038 0CBF     		ite	eq
 456 003a F026     		moveq	r6, #240
 457 003c 0026     		movne	r6, #0
 458              	.LVL9:
 459              		.loc 1 165 0
 460 003e 3901     		lsls	r1, r7, #4
 461              	.LVL10:
 462              		.loc 1 166 0
 463 0040 2D01     		lsls	r5, r5, #4
 464              	.LVL11:
 465              		.loc 1 167 0
 466 0042 12F0800F 		tst	r2, #128
 467              		.loc 1 170 0
 468 0046 14BF     		ite	ne
 469 0048 1943     		orrne	r1, r1, r3
 470              	.LVL12:
 471              		.loc 1 168 0
 472 004a 44F00F04 		orreq	r4, r4, #15
 473              	.LVL13:
 474              		.loc 1 171 0
 475 004e 12F4004F 		tst	r2, #32768
 476              		.loc 1 174 0
ARM GAS  /tmp/cc2NU3F2.s 			page 25


 477 0052 14BF     		ite	ne
 478 0054 1D43     		orrne	r5, r5, r3
 479              	.LVL14:
 480              		.loc 1 172 0
 481 0056 46F00F06 		orreq	r6, r6, #15
 482              	.LVL15:
 483              		.loc 1 175 0
 484 005a 5200     		lsls	r2, r2, #1
 485              	.LVL16:
 486              		.loc 1 163 0
 487 005c 2401     		lsls	r4, r4, #4
 488              	.LVL17:
 489              		.loc 1 164 0
 490 005e 3601     		lsls	r6, r6, #4
 491              	.LVL18:
 492              		.loc 1 165 0
 493 0060 0901     		lsls	r1, r1, #4
 494              	.LVL19:
 495              		.loc 1 166 0
 496 0062 2D01     		lsls	r5, r5, #4
 497              	.LVL20:
 498              		.loc 1 167 0
 499 0064 12F0800F 		tst	r2, #128
 500              		.loc 1 170 0
 501 0068 14BF     		ite	ne
 502 006a 1943     		orrne	r1, r1, r3
 503              	.LVL21:
 504              		.loc 1 168 0
 505 006c 44F00F04 		orreq	r4, r4, #15
 506              	.LVL22:
 507              		.loc 1 171 0
 508 0070 12F4004F 		tst	r2, #32768
 509              		.loc 1 174 0
 510 0074 14BF     		ite	ne
 511 0076 1D43     		orrne	r5, r5, r3
 512              	.LVL23:
 513              		.loc 1 172 0
 514 0078 46F00F06 		orreq	r6, r6, #15
 515              	.LVL24:
 516              		.loc 1 175 0
 517 007c 5200     		lsls	r2, r2, #1
 518              	.LVL25:
 519              		.loc 1 163 0
 520 007e 2401     		lsls	r4, r4, #4
 521              	.LVL26:
 522              		.loc 1 164 0
 523 0080 3601     		lsls	r6, r6, #4
 524              	.LVL27:
 525              		.loc 1 165 0
 526 0082 0901     		lsls	r1, r1, #4
 527              	.LVL28:
 528              		.loc 1 166 0
 529 0084 2D01     		lsls	r5, r5, #4
 530              	.LVL29:
 531              		.loc 1 167 0
 532 0086 12F0800F 		tst	r2, #128
 533              		.loc 1 170 0
ARM GAS  /tmp/cc2NU3F2.s 			page 26


 534 008a 14BF     		ite	ne
 535 008c 1943     		orrne	r1, r1, r3
 536              	.LVL30:
 537              		.loc 1 168 0
 538 008e 44F00F04 		orreq	r4, r4, #15
 539              	.LVL31:
 540              		.loc 1 171 0
 541 0092 12F4004F 		tst	r2, #32768
 542              		.loc 1 174 0
 543 0096 14BF     		ite	ne
 544 0098 1D43     		orrne	r5, r5, r3
 545              	.LVL32:
 546              		.loc 1 172 0
 547 009a 46F00F06 		orreq	r6, r6, #15
 548              	.LVL33:
 549              		.loc 1 175 0
 550 009e 5200     		lsls	r2, r2, #1
 551              	.LVL34:
 552              		.loc 1 163 0
 553 00a0 2401     		lsls	r4, r4, #4
 554              	.LVL35:
 555              		.loc 1 164 0
 556 00a2 3601     		lsls	r6, r6, #4
 557              	.LVL36:
 558              		.loc 1 165 0
 559 00a4 0901     		lsls	r1, r1, #4
 560              	.LVL37:
 561              		.loc 1 166 0
 562 00a6 2D01     		lsls	r5, r5, #4
 563              	.LVL38:
 564              		.loc 1 167 0
 565 00a8 12F0800F 		tst	r2, #128
 566              		.loc 1 170 0
 567 00ac 14BF     		ite	ne
 568 00ae 1943     		orrne	r1, r1, r3
 569              	.LVL39:
 570              		.loc 1 168 0
 571 00b0 44F00F04 		orreq	r4, r4, #15
 572              	.LVL40:
 573              		.loc 1 171 0
 574 00b4 12F4004F 		tst	r2, #32768
 575              		.loc 1 174 0
 576 00b8 14BF     		ite	ne
 577 00ba 1D43     		orrne	r5, r5, r3
 578              	.LVL41:
 579              		.loc 1 172 0
 580 00bc 46F00F06 		orreq	r6, r6, #15
 581              	.LVL42:
 582              		.loc 1 175 0
 583 00c0 5200     		lsls	r2, r2, #1
 584              	.LVL43:
 585              		.loc 1 163 0
 586 00c2 2401     		lsls	r4, r4, #4
 587              	.LVL44:
 588              		.loc 1 164 0
 589 00c4 3601     		lsls	r6, r6, #4
 590              	.LVL45:
ARM GAS  /tmp/cc2NU3F2.s 			page 27


 591              		.loc 1 165 0
 592 00c6 0901     		lsls	r1, r1, #4
 593              	.LVL46:
 594              		.loc 1 166 0
 595 00c8 2D01     		lsls	r5, r5, #4
 596              	.LVL47:
 597              		.loc 1 167 0
 598 00ca 12F0800F 		tst	r2, #128
 599              		.loc 1 170 0
 600 00ce 14BF     		ite	ne
 601 00d0 1943     		orrne	r1, r1, r3
 602              	.LVL48:
 603              		.loc 1 168 0
 604 00d2 44F00F04 		orreq	r4, r4, #15
 605              	.LVL49:
 606              		.loc 1 171 0
 607 00d6 12F4004F 		tst	r2, #32768
 608              		.loc 1 174 0
 609 00da 14BF     		ite	ne
 610 00dc 1D43     		orrne	r5, r5, r3
 611              	.LVL50:
 612              		.loc 1 172 0
 613 00de 46F00F06 		orreq	r6, r6, #15
 614              	.LVL51:
 615              		.loc 1 175 0
 616 00e2 5200     		lsls	r2, r2, #1
 617              	.LVL52:
 618              		.loc 1 163 0
 619 00e4 2401     		lsls	r4, r4, #4
 620              	.LVL53:
 621              		.loc 1 164 0
 622 00e6 3601     		lsls	r6, r6, #4
 623              	.LVL54:
 624              		.loc 1 165 0
 625 00e8 0901     		lsls	r1, r1, #4
 626              	.LVL55:
 627              		.loc 1 166 0
 628 00ea 2D01     		lsls	r5, r5, #4
 629              	.LVL56:
 630              		.loc 1 167 0
 631 00ec 12F0800F 		tst	r2, #128
 632              		.loc 1 170 0
 633 00f0 14BF     		ite	ne
 634 00f2 1943     		orrne	r1, r1, r3
 635              	.LVL57:
 636              		.loc 1 168 0
 637 00f4 44F00F04 		orreq	r4, r4, #15
 638              	.LVL58:
 639              		.loc 1 171 0
 640 00f8 12F4004F 		tst	r2, #32768
 641              		.loc 1 174 0
 642 00fc 14BF     		ite	ne
 643 00fe 1D43     		orrne	r5, r5, r3
 644              	.LVL59:
 645              		.loc 1 172 0
 646 0100 46F00F06 		orreq	r6, r6, #15
 647              	.LVL60:
ARM GAS  /tmp/cc2NU3F2.s 			page 28


 648              		.loc 1 175 0
 649 0104 5200     		lsls	r2, r2, #1
 650              	.LVL61:
 651              		.loc 1 163 0
 652 0106 2401     		lsls	r4, r4, #4
 653              	.LVL62:
 654              		.loc 1 164 0
 655 0108 3601     		lsls	r6, r6, #4
 656              	.LVL63:
 657              		.loc 1 165 0
 658 010a 0901     		lsls	r1, r1, #4
 659              	.LVL64:
 660              		.loc 1 166 0
 661 010c 2D01     		lsls	r5, r5, #4
 662              	.LVL65:
 663              		.loc 1 167 0
 664 010e 12F0800F 		tst	r2, #128
 665              		.loc 1 170 0
 666 0112 14BF     		ite	ne
 667 0114 1943     		orrne	r1, r1, r3
 668              	.LVL66:
 669              		.loc 1 168 0
 670 0116 44F00F04 		orreq	r4, r4, #15
 671              	.LVL67:
 672              		.loc 1 171 0
 673 011a 1204     		lsls	r2, r2, #16
 674              	.LVL68:
 675              		.loc 1 174 0
 676 011c 48BF     		it	mi
 677 011e 1D43     		orrmi	r5, r5, r3
 678              	.LVL69:
 679              		.loc 1 177 0
 680 0120 4368     		ldr	r3, [r0, #4]
 681              	.LVL70:
 682              		.loc 1 172 0
 683 0122 58BF     		it	pl
 684 0124 46F00F06 		orrpl	r6, r6, #15
 685              	.LVL71:
 686              		.loc 1 177 0
 687 0128 1E40     		ands	r6, r6, r3
 688              	.LVL72:
 689 012a 3543     		orrs	r5, r5, r6
 690              	.LVL73:
 691 012c 4560     		str	r5, [r0, #4]
 692              		.loc 1 178 0
 693 012e 0268     		ldr	r2, [r0, #0]
 694 0130 1440     		ands	r4, r4, r2
 695              	.LVL74:
 696 0132 2143     		orrs	r1, r1, r4
 697              	.LVL75:
 698 0134 0160     		str	r1, [r0, #0]
 699              		.loc 1 179 0
 700 0136 F0BC     		pop	{r4, r5, r6, r7}
 701 0138 7047     		bx	lr
 702              	.LVL76:
 703              	.L38:
 704              		.loc 1 157 0
ARM GAS  /tmp/cc2NU3F2.s 			page 29


 705 013a 0161     		str	r1, [r0, #16]
 706 013c 67E7     		b	.L4
 707              	.L40:
 708 013e 00BF     		.align	2
 709              	.L39:
 710 0140 00000000 		.word	.LANCHOR0
 711              		.cfi_endproc
 712              	.LFE200:
 713              		.size	_pal_lld_setgroupmode, .-_pal_lld_setgroupmode
 714 0144 AFF30080 		.section	.rodata.cfgtab.6869,"a",%progbits
 714      AFF30080 
 714      AFF30080 
 715              		.align	2
 716              		.set	.LANCHOR0,. + 0
 717              		.type	cfgtab.6869, %object
 718              		.size	cfgtab.6869, 18
 719              	cfgtab.6869:
 720 0000 04       		.byte	4
 721 0001 02       		.byte	2
 722 0002 04       		.byte	4
 723 0003 08       		.byte	8
 724 0004 08       		.byte	8
 725 0005 00       		.byte	0
 726 0006 03       		.byte	3
 727 0007 07       		.byte	7
 728 0008 08       		.byte	8
 729 0009 08       		.byte	8
 730 000a 08       		.byte	8
 731 000b 08       		.byte	8
 732 000c 08       		.byte	8
 733 000d 08       		.byte	8
 734 000e 08       		.byte	8
 735 000f 08       		.byte	8
 736 0010 0B       		.byte	11
 737 0011 0F       		.byte	15
 738 0012 0000     		.text
 739              	.Letext0:
 740              		.file 2 "/home/laurence/ARM-GCC/bin/../lib/gcc/arm-none-eabi/4.7.4/../../../../arm-none-eabi/inclu
 741              		.file 3 "../ChibiOS/os/rt/ports/ARMCMx/compilers/GCC/chtypes.h"
 742              		.file 4 "../ChibiOS/os/rt/include/chsystypes.h"
 743              		.file 5 "../ChibiOS/os/rt/include/chschd.h"
 744              		.file 6 "../ChibiOS/os/ext/CMSIS/ST/stm32f10x.h"
 745              		.file 7 "../ChibiOS/os/rt/ports/ARMCMx/chcore.h"
 746              		.file 8 "../ChibiOS/os/rt/ports/ARMCMx/chcore_v7m.h"
 747              		.file 9 "../ChibiOS/os/rt/include/chtm.h"
 748              		.file 10 "../ChibiOS/os/rt/include/chmtx.h"
 749              		.file 11 "../ChibiOS/os/hal/ports/STM32/LLD/GPIOv1/pal_lld.h"
 750              		.file 12 "../ChibiOS/os/ext/CMSIS/include/core_cm3.h"