ARM GAS  /tmp/ccSXec7D.s 			page 1


   1              		.syntax unified
   2              		.cpu cortex-m3
   3              		.fpu softvfp
   4              		.eabi_attribute 20, 1
   5              		.eabi_attribute 21, 1
   6              		.eabi_attribute 23, 3
   7              		.eabi_attribute 24, 1
   8              		.eabi_attribute 25, 1
   9              		.eabi_attribute 26, 1
  10              		.eabi_attribute 30, 2
  11              		.eabi_attribute 34, 1
  12              		.eabi_attribute 18, 4
  13              		.thumb
  14              		.file	"st.c"
  15              		.text
  16              	.Ltext0:
  17              		.section	.gnu.lto_.jmpfuncs.f5ba40b12304f8a,"",%progbits
  18 0000 789C6362 		.ascii	"x\234cb`d`g\300\016x\2414+\020322103\26200\000\000\003"
  18      60646067 
  18      C00E78A1 
  18      342B1033 
  18      32323130 
  19 001b 8D0029   		.ascii	"\215\000)"
  20              		.text
  21              		.section	.gnu.lto_.inline.f5ba40b12304f8a,"",%progbits
  22 0000 789C6362 		.ascii	"x\234cb`d\340e\300\016\342\2404+\003\003\013\017#\003"
  22      6064E065 
  22      C00EE2A0 
  22      342B0303 
  22      0B0F2303 
  23 0014 1390C9B6 		.ascii	"\023\220\311\266@\236\211\201\221\013\310bd`ced\004"
  23      409E8981 
  23      910BC862 
  23      64606365 
  23      6404
  24 0026 520C4C6C 		.ascii	"R\014Ll\037\364 \022L\014,\314@uL\027\370!|f\020\037"
  24      1FF42012 
  24      4C0C2CCC 
  24      40754C17 
  24      F8217C66 
  25 003c A2062EC6 		.ascii	"\242\006.\306\202\246\206\001\000m\275\010v"
  25      82A68601 
  25      006DBD08 
  25      76
  26              		.text
  27              		.section	.gnu.lto_.pureconst.f5ba40b12304f8a,"",%progbits
  28 0000 789C6362 		.ascii	"x\234cb`d`f``\340f\200\000V\006\011F)&)f)\026)\000\004"
  28      60646066 
  28      6060E066 
  28      80005606 
  28      09462926 
  29 001b 5700A1   		.ascii	"W\000\241"
  30              		.text
  31              		.section	.gnu.lto_stInit.f5ba40b12304f8a,"",%progbits
  32 0000 789C6362 		.ascii	"x\234cb`\004BL \011\304\365@,\013\304\214\314\014\214"
  32      6004424C 
  32      2009C4F5 
ARM GAS  /tmp/ccSXec7D.s 			page 2


  32      402C0BC4 
  32      8CCC0C8C 
  33 0014 4C13CE31 		.ascii	"L\023\316104*012\202\030@-\365L\214\365\241\020\235"
  33      30342A30 
  33      31328218 
  33      402DF54C 
  33      8CF5A110 
  34 0029 A7FEAF63 		.ascii	"\247\376\257c\2742\203m?\323\201\007\377\201z\230\201"
  34      BC32836D 
  34      3FD38107 
  34      FF817A98 
  34      81
  35 003a 42AC0C2D 		.ascii	"B\254\014-\015\015\002\014\361P\243\003A4Hc\020#\023"
  35      0D0D020C 
  35      F150A303 
  35      41344863 
  35      102313
  36 004d 98C17C06 		.ascii	"\230\301|\006\210fT\3052.`d\005JU1\374l\340H\005\272"
  36      886654C5 
  36      322E6064 
  36      054A5531 
  36      FC6CE048 
  37 0063 249E9111 		.ascii	"$\236\221\021\242%\025D\237c\000\231\013S\0043\212\021"
  37      A2251544 
  37      9F630099 
  37      0B530433 
  37      8A11
  38 0075 6C02D01C 		.ascii	"l\002\320\034\006i==}\347\214\314\244L\377`\375\374"
  38      06693D3D 
  38      7DE78CCC 
  38      A44CFF60 
  38      FDFC
  39 0087 62FD8CC4 		.ascii	"b\375\214\304\034\375\342\242d\375\342\022\275d\006"
  39      1CFDE2A2 
  39      64FDE212 
  39      BD6406
  40 0096 001DF227 		.ascii	"\000\035\362'3"
  40      33
  41              		.text
  42              		.section	.gnu.lto_stStartAlarm.f5ba40b12304f8a,"",%progbits
  43 0000 789C9D91 		.ascii	"x\234\235\221\261K\002q\024\307\337\373\335\357\322"
  43      B14B0271 
  43      14C7DFFB 
  43      DDEFD2
  44 000f A1C15522 		.ascii	"\241\301U\"\222p\010\202\373a-\3555$(e\332xI\331\201"
  44      92700882 
  44      FB612DED 
  44      35242865 
  44      DA7849D9 
  45 0024 826178D2 		.ascii	"\202ax\322\352i\016A\213\264\345\020\2319\344\320 8"
  45      EA690E41 
  45      8BB4E510 
  45      9939E4D0 
  45      2038
  46 0036 1725110E 		.ascii	"\027%\021\016\376\0035H\263s4\004\366~wJ\211\015\321"
  46      FE033548 
  46      B3733404 
ARM GAS  /tmp/ccSXec7D.s 			page 3


  46      F67E774A 
  46      890DD1
  47 0049 3BEE7E8F 		.ascii	";\356~\217\337\373}?\337w\277\307\000\351\231\014/\275"
  47      DFFB7D3F 
  47      DF77BFC7 
  47      00E9990C 
  47      2FBD
  48 005b 410610A3 		.ascii	"A\006\020\243\025\025@V\356\002\024|\014Q&$\3113\314"
  48      15154056 
  48      EE02147C 
  48      0C512624 
  48      C933CC
  49 006e 6FDB4A9C 		.ascii	"o\333J\234\207\252e\235\225\037\213\353\305\336`0g\310"
  49      87AA659D 
  49      951F8BEB 
  49      C5DE6030 
  49      67C8
  50 0080 DD3842E7 		.ascii	"\3358B\347\242>\353\005\003\021| W\006|\334\243y\332"
  50      A23EEB05 
  50      03117C20 
  50      57067CDC 
  50      A379DA
  51 0093 7AE5FDCA 		.ascii	"z\345\375\312\324\035\273\357\015\362~\250\021\305:"
  51      D41DBBEF 
  51      0DF27EA8 
  51      11C53A
  52 00a2 B6160C54 		.ascii	"\266\026\014T\030l\242d\264+\357\3500<C\006\223J:\001"
  52      186CA264 
  52      B42BEFE8 
  52      303C4306 
  52      934A3A01 
  53 00b6 6E441DAB 		.ascii	"nD\035\253\350'\252\216\227\324\004\205\012%\313\362"
  53      E827AA8E 
  53      97D40485 
  53      0A25CBF2 
  54 00c6 60CAD6DA 		.ascii	"`\312\326\332\021\221\253ly\213\2642Q\236\200\321\236"
  54      1191AB6C 
  54      798BB432 
  54      519E80D1 
  54      9E
  55 00d7 D3B3741B 		.ascii	"\323\263t\033\366\254\350xEGH\227\374\305\360;\022T"
  55      F6ACE878 
  55      45474897 
  55      FCC5F03B 
  55      1254
  56 00e9 820E14FB 		.ascii	"\202\016\024\373\212\374?\307p\344\253\3435\365\241"
  56      8AFC3FC7 
  56      70E4ABE3 
  56      35F5A1
  57 00f8 630DD531 		.ascii	"c\015\3251\005\037\212\036\202'.\035\353T\025pk\225"
  57      051F8A1E 
  57      82272E1D 
  57      EB541570 
  57      6B95
  58 010a D040CE17 		.ascii	"\320@\316\027\241ag\252R\201\363\202\307\300)&}]`Qp"
  58      A16167AA 
  58      5281F382 
ARM GAS  /tmp/ccSXec7D.s 			page 4


  58      C7C02926 
  58      7D5D6051 
  59 011f 7072B067 		.ascii	"pr\260g\264#?\037\212=\035\003\335C\374\263\352x\330"
  59      B4233F1F 
  59      8A3D1D03 
  59      DD43FCB3 
  59      EA78D8
  60 0132 062B9F37 		.ascii	"\006+\2377o\350X\214\300\374/`\374\001v\246$a\355\306"
  60      6FE8588C 
  60      C0FC2F60 
  60      FC0176A6 
  60      2461EDC6 
  61 0146 BF606C0C 		.ascii	"\277`l\014&\357\257\013\330|iM\217\337LD\272\322D\344"
  61      26EFAF0B 
  61      D87C694D 
  61      8FDF4C44 
  61      BAD244E4 
  62 015a 8180A689 		.ascii	"\201\200\246\211\325dj/\265\021\025\031S$w\323\3420"
  62      D5646A2F 
  62      B5111519 
  62      532477D3 
  62      E230
  63 016c 93CD9922 		.ascii	"\223\315\231\"\032\013//\211PhM\304\202\341\243\200"
  63      1A0B2F2F 
  63      8950684D 
  63      C482E1A3 
  63      80
  64 017d 3073F174 		.ascii	"0s\361tz_K\302\314\244\302\314&\250\256%\200\347R\007"
  64      7A5F4BC2 
  64      CCA4C2CC 
  64      26A8AE25 
  64      80E75207 
  65 0191 C6170165 		.ascii	"\306\027\001e\216\357"
  65      8EEF
  66              		.text
  67              		.section	.gnu.lto_stStopAlarm.f5ba40b12304f8a,"",%progbits
  68 0000 789C6362 		.ascii	"x\234cb`\004BL \011\304\007\200\330\037\210\031\231"
  68      6004424C 
  68      2009C407 
  68      80D81F88 
  68      1999
  69 0012 19189926 		.ascii	"\031\030\231&\234c`hT`bd\0041\200Z\352\231\030\353C"
  69      9C636068 
  69      54606264 
  69      0431805A 
  69      EA9918EB 
  70 0027 213A4FED 		.ascii	"!:O\355[,sf\016\333~\246\003\017\376\32730\260\000\205"
  70      5B2C7366 
  70      0EDB7EA6 
  70      030FFED7 
  70      3330B000 
  71 003c 58195A1A 		.ascii	"X\031Z\032\032\004\030\342\241F\007\202h\220\306 F&"
  71      1A0418E2 
  71      A1460782 
  71      6890C620 
  71      4626
  72 004e 3083F914 		.ascii	"0\203\371\024\303!\213_+\257\177a\202\252\204R\261\214"
ARM GAS  /tmp/ccSXec7D.s 			page 5


  72      C3218B5F 
  72      2BAF7F61 
  72      82AA8452 
  72      B18C
  73 0060 0B185991 		.ascii	"\013\030Y\221\234\241\315\260\252\241\2051\225\221\201"
  73      9CA1CDB0 
  73      AAA18531 
  73      959181
  74 006f 7916C3CC 		.ascii	"y\026\303\314F\201TFF&I\206T\240!\015@\300\302\000a"
  74      46815446 
  74      46264986 
  74      54A0210D 
  74      40C0C200 
  75 0084 33807D10 		.ascii	"3\200}\020\007\"~0\203\335\236\012\265\367\034\003\343"
  75      07227E30 
  75      83DD9E0A 
  75      B5F71C03 
  75      E3
  76 0095 A993C9A8 		.ascii	"\251\223\311\250\206\00622\202\235\000\322'\255\247"
  76      86063232 
  76      829D00D2 
  76      27ADA7
  77 00a4 A7EF9C91 		.ascii	"\247\357\234\221\231\224\351\037\254\237_\254\237\221"
  77      9994E91F 
  77      AC9F5FAC 
  77      9F91
  78 00b2 98A35F5C 		.ascii	"\230\243_\\\224\254_\\\242\227\314`\210)W\220_TR\254"
  78      94AC5F5C 
  78      A297CC60 
  78      88295790 
  78      5F5452AC 
  79 00c6 1F1CE26B 		.ascii	"\037\034\342kl\244\357\343\343\242\037\342\351[f\010"
  79      6CA4EFE3 
  79      E3A21FE2 
  79      E95B6608 
  80 00d6 541D9F93 		.ascii	"T\035\237\223\223\242\227\301\000\000\340\325C\207"
  80      93A297C1 
  80      0000E0D5 
  80      4387
  81              		.text
  82              		.section	.gnu.lto_stSetAlarm.f5ba40b12304f8a,"",%progbits
  83 0000 789C6D51 		.ascii	"x\234mQOK\002A\024\177ofW;t\360*\021Ix\010\202\035\254"
  83      4F4B0241 
  83      147F6F66 
  83      573B74F0 
  83      2A114978 
  84 0018 8F508704 		.ascii	"\217P\207\004\243L;nR\266\260\013\206\341JWG\363\320"
  84      A34C3B6E 
  84      52B6B00B 
  84      86E14A57 
  84      47F3D0
  85 002b 51BA5514 		.ascii	"Q\272U\024\231y\351P\3405\242(\2100\3613x\350\030\235"
  85      9979E950 
  85      E035A228 
  85      8830F133 
  85      78E8189D 
  86 003f BBD99BDD 		.ascii	"\273\331\233\335\215\020{\303\314{\314\233\337\237\307"
ARM GAS  /tmp/ccSXec7D.s 			page 6


  86      8D107BC3 
  86      CC7BCC9B 
  86      DF9FC7
  87 004e 30405AE3 		.ascii	"0@Z\343\021\245}G\215,e\344\200\254\321\007\250\306"
  87      11A57D47 
  87      8D2C65E4 
  87      80ACD107 
  87      A8C6
  88 0060 18A22A08 		.ascii	"\030\242*\010RaX\331\364\2208\013M)\217\033/\265\225"
  88      526158D9 
  88      F490380B 
  88      4D298F1B 
  88      2FB595
  89 0073 DA60389C 		.ascii	"\332`8\234\261\324m\016\241\333oOG\301B\204\030\250"
  89      B1D46D0E 
  89      A1DB6F4F 
  89      47C14284 
  89      18A8
  90 0085 CC401BD5 		.ascii	"\314@\033\325\350\274\337\367\264\336E\350\221=\015"
  90      E8BCDFF7 
  90      B4DE45E8 
  90      913D0D
  91 0094 869538B4 		.ascii	"\206\2258\264\210E\036\3129\0139\203uT\034\037\347_"
  91      88451ECA 
  91      390B3983 
  91      75541C1F 
  91      E75F
  92 00a6 E8734402 		.ascii	"\350sD\002\016\246\220\364\002B\210&61N\254&^\222\011"
  92      0EA690F4 
  92      02428826 
  92      36314EAC 
  92      265E9209 
  93 00ba 0A1DEA52 		.ascii	"\012\035\352RF\320\361\260^\244UV\2267\010\253\012\376"
  93      46D0F1B0 
  93      5EA45556 
  93      963708AB 
  93      0AFE
  94 00cc 0A8CEE7C 		.ascii	"\012\214\356|\317J-\360\314M\274\242'\204\263\377\021"
  94      CF4A2DF0 
  94      CC4DBCA2 
  94      2784B3FF 
  94      11
  95 00dd FC8B3CB5 		.ascii	"\374\213<\265\240\013\265O\256\346\363\005\177uM\274"
  95      A00BB54F 
  95      AEE6F305 
  95      7F754DBC 
  96 00ed 261F26B6 		.ascii	"&\037&\266P\037Ah\001\3509y\0246\261M]\001\267\262\216"
  96      501F4168 
  96      01E83979 
  96      1436B14D 
  96      5D01B7B2 
  97 0102 166ADA3C 		.ascii	"\026j\332<\334x\225\316O\341\244\032\2610\304\224n\030"
  97      DC7895CE 
  97      4FE1A41A 
  97      B130C494 
  97      6E18
  98 0114 2485067E 		.ascii	"$\205\006~\015\336\037m\251\343\233{\277c\341D@\377"
ARM GAS  /tmp/ccSXec7D.s 			page 7


  98      0DDE1F6D 
  98      A9E39B7B 
  98      BF63E144 
  98      40FF
  99 0126 A6FB1A00 		.ascii	"\246\373\032\000}\300\316\331\303\344\250~ZI\323\334"
  99      7DC0CED9 
  99      C3E4A87E 
  99      5A49D3DC 
 100 0136 6A8C8461 		.ascii	"j\214\204a\210%\333\331q\3262\242\350\012{\273 \366"
 100      8825DBD9 
 100      71D632A2 
 100      E80A7BBB 
 100      20F6
 101 0148 8BA5B22B 		.ascii	"\213\245\262+2\331\325\305\005\221J-\213lr\365 !\334"
 101      32D9D5C5 
 101      05914A2D 
 101      8B6C72F5 
 101      2021DC
 102 015b 72AE50D8 		.ascii	"r\256P\3305l\230\032G\270\245<\365\215<heg\317\372\001"
 102      356C981A 
 102      47B8A53C 
 102      F58D3C68 
 102      6567CFFA 
 103 0170 D1017269 		.ascii	"\321\001ri"
 104              		.text
 105              		.section	.gnu.lto_stGetAlarm.f5ba40b12304f8a,"",%progbits
 106 0000 789C6590 		.ascii	"x\234e\220AK\002A\024\307\337\233\235\325<\004^%(\361"
 106      414B0241 
 106      14C7DF9B 
 106      9DD53C04 
 106      5E2528F1 
 107 0014 14043B58 		.ascii	"\024\004;X\227\356u(P\304\264\243Jm\013\012\202\341"
 107      97EE7528 
 107      50C4B4A3 
 107      4A6D0B0A 
 107      82E1
 108 0026 4A57C7C5 		.ascii	"JW\307\305CG\351T\2362/\325\241\257P\344m\011\277A "
 108      4347E954 
 108      9E322FD5 
 108      A1AF50E4 
 108      6D09BF41 
 109 003b 74E9D0B1 		.ascii	"t\351\320\261S\010\333\233\331\015\022\337\260\363\177"
 109      5308DB9B 
 109      D90D12DF 
 109      B0F37F
 110 004a ECCCEFFD 		.ascii	"\354\314\357\375\337<\006Hk9R\364\265\350\240@\212\006"
 110      DF3C0648 
 110      6B3952F4 
 110      B5E8A040 
 110      8A06
 111 005c 201B4C01 		.ascii	" \033L\001zi\206\250\022B\272\014\273\307\232d\031\030"
 111      7A6986A8 
 111      1242BA0C 
 111      BBC79A64 
 111      1918
 112 006e 49399413 		.ascii	"I9\224\023o\323\233\005\301\206\243\376\326\020\374"
 112      6FD39B05 
ARM GAS  /tmp/ccSXec7D.s 			page 8


 112      C186A3FE 
 112      D610FC
 113 007d F9C76A0A 		.ascii	"\371\307j\012\034DH\202R\006l\321CsW\203\211w\020q\206"
 113      1C444882 
 113      52066CD1 
 113      43735783 
 113      89771071 
 114 0092 E67E1EDE 		.ascii	"\346~\036\336\277y\010\246#\220/\202\376|\274\376v\037"
 114      BF7908A6 
 114      23902F82 
 114      FE7CBCFE 
 114      761F
 115 00a4 7B662FB3 		.ascii	"{f/\263\240\013\020\347P\301\021f\300$\275%\2450\241"
 115      A00B10E7 
 115      50C11166 
 115      C024BD25 
 115      A530A1
 116 00b7 2F65121B 		.ascii	"/e\022\033\250*\352(*U\315\037QA\225\030>\274V\265Y"
 116      A82AEA28 
 116      2A55CD1F 
 116      51419518 
 116      3EBC56B5 
 117 00cc 783962A8 		.ascii	"x9b\250\306\035\232\377\334l\344\002\236d\037\035\344"
 117      C61D9AFF 
 117      DC6CE402 
 117      9E641F1D 
 117      E4
 118 00dd 7C0B1E75 		.ascii	"|\013\036uf\032C\270\351%\035\2141\325b\034$\005\207"
 118      661A43B8 
 118      E9251D8C 
 118      31D5621C 
 118      240587
 119 00f0 30073DD2 		.ascii	"0\007=\322\252\332\256\023z\230\016\256D\325>\023\341"
 119      AADAAE13 
 119      7A980EAE 
 119      44D53E13 
 119      E1
 120 0101 13C0FB32 		.ascii	"\023\300\3732v+8&+\033M\362\000\230\002\372\227fho\377"
 120      762B3826 
 120      2B1B4DF2 
 120      009802FA 
 120      9766686F 
 121 0116 B550A431 		.ascii	"\265P\2441\250n\325\354\326,K\354\325\033\247\215BI"
 121      A86ED5EC 
 121      D62C4BEC 
 121      D51BA78D 
 121      4249
 122 0128 B45C513F 		.ascii	"\264\\Q?i\012\267m\013\267c\331\220]>;o\265;\256(\225"
 122      690AB76D 
 122      0BB763D9 
 122      905D3E3B 
 122      6FB53BAE 
 123 013e F33BDB22 		.ascii	"\363;\333\"\227\333\027\345\303\374E\226n\327\232\315"
 123      97DB17E5 
 123      C3FC4596 
 123      6ED79ACD 
 124 014e 33AB0EBF 		.ascii	"3\253\016\277\324Tg\240"
ARM GAS  /tmp/ccSXec7D.s 			page 9


 124      D45467A0 
 125              		.text
 126              		.section	.gnu.lto_.cgraph.f5ba40b12304f8a,"",%progbits
 127 0000 789C45C7 		.ascii	"x\234E\307\301\011\2000\024D\301}?\246Lk\331\200\027"
 127      C1098030 
 127      1444C17D 
 127      3FA64C6B 
 127      D98017
 128 0013 8F56603B 		.ascii	"\217V`;\032\005m\301JD\0201s\233\020J\222z}b\301\322"
 128      1A056DC1 
 128      4A441031 
 128      739B104A 
 128      927A7D62 
 129 0029 74C89E47 		.ascii	"t\310\236Gb\305\264U\034m\033Nm;\356\376q\342\374\256"
 129      62C5B455 
 129      1C6D1B4E 
 129      6D3BEEFE 
 129      71E2FCAE 
 130 003d 1492B286 		.ascii	"\024\222\262\206\353F\017\314G\037\021"
 130      EB460FCC 
 130      471F11
 131              		.text
 132              		.section	.gnu.lto_.vars.f5ba40b12304f8a,"",%progbits
 133 0000 789C6362 		.ascii	"x\234cb`d`f`\000\222P\000\000\000r\000\010"
 133      60646066 
 133      60009250 
 133      00000072 
 133      0008
 134              		.text
 135              		.section	.gnu.lto_.refs.f5ba40b12304f8a,"",%progbits
 136 0000 789C6362 		.ascii	"x\234cb`d`f```b\200\001\000\000\204\000\011"
 136      60646066 
 136      60606062 
 136      80010000 
 136      840009
 137              		.text
 138              		.section	.gnu.lto_.statics.f5ba40b12304f8a,"",%progbits
 139 0000 789C6362 		.ascii	"x\234cb`d`b\300\016@\342\214\020&\000\000\375\000\011"
 139      60646062 
 139      C00E40E2 
 139      8C102600 
 139      00FD0009 
 140              		.text
 141              		.section	.gnu.lto_.decls.f5ba40b12304f8a,"",%progbits
 142 0000 789C9D57 		.ascii	"x\234\235Woh\024G\024\237\331\275\346r&\246**'V\022"
 142      6F681447 
 142      149FD9BD 
 142      E67226A6 
 142      2A2A2756 
 143 0015 4B9520F5 		.ascii	"K\225 \365\266\211A\375\"\230n$\012Fe\223\202_\226k"
 143      B68941FD 
 143      22986E24 
 143      0A466593 
 143      825F966B 
 144 0029 729EBD83 		.ascii	"r\236\275\203\313E\3566\005\277M\023+\266HI\013\202"
 144      CB45EE36 
 144      05BF4D13 
ARM GAS  /tmp/ccSXec7D.s 			page 10


 144      2BB64849 
 144      0B82
 145 003b 14DA5EA2 		.ascii	"\024\332^\242\261\221\242-)\021cQS\033M\251\322Z\011"
 145      B191A22D 
 145      29116351 
 145      531B4DA9 
 145      D25A09
 146 004e D5D63F04 		.ascii	"\325\326?\004\021[T\212HD\333\212\3277\263;\373\347"
 146      115B548A 
 146      4844DB8A 
 146      D737B33B 
 146      FBE7
 147 0060 727B77EB 		.ascii	"r{w\353p\357\355\354\334{\277\371\2757ovg\005\204\021"
 147      70EFEDEC 
 147      DC7BBFF9 
 147      BD376F76 
 147      67058411 
 148 0074 6D07E192 		.ascii	"m\007\341\222\205vr.B\213\004\204\312`l\035\262\032"
 148      8576722E 
 148      428B0484 
 148      CA606C1D 
 148      B21A
 149 0086 BDCF800C 		.ascii	"\275\317\200\014\202\014\203\214\200\214\202\234F3\033"
 149      820C838C 
 149      808C829C 
 149      46331B
 150 0095 B5030874 		.ascii	"\265\003\010t\026\244\337\030\023\214\361|\366\0243"
 150      16A4DF18 
 150      138CF17C 
 150      F61433
 151 00a4 00E207A9 		.ascii	"\000\342\007\251\002\251\004\031\002\031\003\031\007"
 151      02A90419 
 151      02190319 
 151      07
 152 00b1 99007902 		.ascii	"\231\000y\002\342\003\021A\356\202L\202\\\001\301\206"
 152      E2031141 
 152      EE824C82 
 152      5C01C186 
 153 00c1 3FBD3ECD 		.ascii	"?\275>\315\301\0356\354\307l\030\330\3467\234\207\313"
 153      C11D36EC 
 153      C76C18D8 
 153      E6379C87 
 153      CB
 154 00d2 88072ED8 		.ascii	"\210\007.\330\340\202\015?z\025\260\023o\324\300\033"
 154      E0820D3F 
 154      7A15B013 
 154      6FD4C01B 
 155 00e2 B2E1F94B 		.ascii	"\262\341\371K\300\0335\256\376\034\274j\3649\311L\365"
 155      C01B35AE 
 155      FE1CBC6A 
 155      F439C94C 
 155      F5
 156 00f3 F5928D4F 		.ascii	"\365\222\215O\263Y\377Bt\200@\313\354%\004k*^\267\000"
 156      B359FF42 
 156      748040CB 
 156      EC25046B 
 156      2A5EB700 
ARM GAS  /tmp/ccSXec7D.s 			page 11


 157 0107 2D422AAE 		.ascii	"-B*\256\202\011kX\2572\240##\350\367\343\205F\257M\324"
 157      82096B58 
 157      AF32A023 
 157      23E8F7E3 
 157      8546AF4D 
 158 011c B104CA76 		.ascii	"\261\004\312v\005:JX3&2.\0014\360\317\327\"\237u9\032"
 158      053A4A58 
 158      3326322E 
 158      0134F0CF 
 158      D7229F75 
 159 0132 A426633D 		.ascii	"\244&c=A6\011\005\311\340j\0071\025\017`!\227\351\324"
 159      41360905 
 159      C9E06A07 
 159      31150F60 
 159      2197E9D4 
 160 0146 C317617A 		.ascii	"\303\027az\304`*\262\252\001*\373\010\351!d/\251\035"
 160      C4602AB2 
 160      AA012AFB 
 160      08E92164 
 160      2FA91D
 161 0159 821472BF 		.ascii	"\202\024r\2779\246\037\265Z\206\016\023\322G\303P\361"
 161      39A61FB5 
 161      5A860E13 
 161      D247C350 
 161      F1
 162 016a 100EC0D8 		.ascii	"\020\016\300\330\353\030\376>\204W\240S\327\217-\340"
 162      EB18FE3E 
 162      8457A053 
 162      D78F2DE0 
 163 017a 417944FA 		.ascii	"AyD\372\212!\251&\322G7\317\213<\\1\340\014\037\356"
 163      8A21A926 
 163      D24737CF 
 163      8B3C5C31 
 163      E00C1FEE 
 164 018e 752B1D58 		.ascii	"u+\035X\377\233\367\262Y\021y5\307\326J\001\211K\230"
 164      FF9BF7B2 
 164      59117935 
 164      C7D64A01 
 164      894B98
 165 01a1 B318F860 		.ascii	"\263\030\370`\244A\037}\015\035\"\344\023\322Kjy\320"
 165      A4411F7D 
 165      0D1D22E4 
 165      13D24B6A 
 165      79D0
 166 01b3 BF33AB41 		.ascii	"\2773\253AX\233k\376\374\341!\3354\337\222R\267\230"
 166      589B6BFE 
 166      FCE121DD 
 166      34DF9252 
 166      B798
 167 01c5 83E4F142 		.ascii	"\203\344\361BK\252\227\224\200n\231\314\246\027\027"
 167      4BAA9794 
 167      806E99CC 
 167      A61717
 168 01d4 2898E119 		.ascii	"(\230\341\031\005\363ma\364#\014\375\236\211~gI\376"
 168      05F36D61 
 168      F4230CFD 
 168      9E897E67 
ARM GAS  /tmp/ccSXec7D.s 			page 12


 168      49FE
 169 01e6 A855FC0D 		.ascii	"\250U\374\015\246\2134\002\023\234\364\036\365\310\214"
 169      A68B3402 
 169      139CF41E 
 169      F5C88C
 170 01f5 A84F7828 		.ascii	"\250Ox(d\212\352^\311\247\362\354\271\307V@_$\035\371"
 170      648AEA5E 
 170      C9A7F2EC 
 170      B9C75640 
 170      5F241DF9 
 171 0209 EA213FF4 		.ascii	"\352!?\364\0301Q\227Q\2320\227pt\320\357\362\020\355"
 171      18315197 
 171      519A3097 
 171      7074D0EF 
 171      F210ED
 172 021c EBEBCD38 		.ascii	"\353\353\3158\226\207\010|\276G\207OO\004\235Kp\306"
 172      9687087C 
 172      BE47874F 
 172      4F049D4B 
 172      70C6
 173 022e 8950813E 		.ascii	"\211P\201>\2444 \270\215?V\351\000\356\301\235\305\025"
 173      A43420B8 
 173      8D3F56E9 
 173      00EEC19D 
 173      C515
 174 0240 DC8F6DAC 		.ascii	"\334\217m\254^\303\017\271\370X\033\313\330\207\205"
 174      5EC30FB9 
 174      F8581BCB 
 174      D88785
 175 024f CD55FC3D 		.ascii	"\315U\374=^\006\332\357\334(~s\243\370\003\372+\353"
 175      5E06DAEF 
 175      DC287E73 
 175      A3F803FA 
 175      2BEB
 176 0261 659A9333 		.ascii	"e\232\2233\202\265I\177\275 \361\370\3749\233\264\024"
 176      82B5497F 
 176      BD20F1F8 
 176      FC399BB4 
 176      14
 177 0272 B0B98892 		.ascii	"\260\271\210\222$54\003c\266\345\205'$\3477\207\301"
 177      24353403 
 177      63B6E585 
 177      2724E737 
 177      87C1
 178 0284 D90DCF15 		.ascii	"\331\015\317\0252T\361y<\327J\0241\023\\Y\250x.`\235"
 178      3254F179 
 178      3CD74A14 
 178      31135C59 
 178      A8782E60 
 179 0299 3C1FB77A 		.ascii	"<\037\267z\242#&n\207\346\241\217\015>VNI\231\351\365"
 179      A223266E 
 179      87E6A18F 
 179      0D3E564E 
 179      4999E9F5 
 180 02ad 36723EDC 		.ascii	"6r>\334&\360<H\334\204\231\270\343\307\256^\027KF\242"
 180      26F03C48 
 180      DC8499B8 
ARM GAS  /tmp/ccSXec7D.s 			page 13


 180      E3C7AE5E 
 180      174B46A2 
 181 02c1 33FF0408 		.ascii	"3\377\004\010\272/\303%:.\035E\374\211p\177'\232\331"
 181      BA2FC325 
 181      3A2E1D45 
 181      FC89707F 
 181      279AD9
 182 02d4 E62F4519 		.ascii	"\346/E\031\262\247\227n\2512=\307\002\332'b\003\361"
 182      B2A7976E 
 182      A9323DC7 
 182      02DA2762 
 182      03F1
 183 02e6 D9FDBB38 		.ascii	"\331\375\2738\177V\254L\360lTY\353\233\007s\277\211"
 183      7F56AC4C 
 183      F06C5459 
 183      EB9B0773 
 183      BF89
 184 02f8 399EF082 		.ascii	"9\236\360\202X\343\212\330g\"^*\202X^\"\307\003&\342"
 184      58E38AD8 
 184      67225E2A 
 184      82585E22 
 184      C70326E2 
 185 030c A4274477 		.ascii	"\244'Dw\216\237\232\2107\212 \316)\221\343g&\342\035"
 185      8E9F9A88 
 185      378A20CE 
 185      2991E367 
 185      26E21D
 186 031f 4F88EE1C 		.ascii	"O\210\356\034\373M\304\007E\020\203%r\374\322D\234\366"
 186      FB4DC407 
 186      45108325 
 186      72FCD244 
 186      9CF6
 187 0331 84E8CEF1 		.ascii	"\204\350\316\361\230U\221E\020kJ\3448l\325c\247\027"
 187      98559145 
 187      106B4AE4 
 187      386CD563 
 187      A717
 188 0343 44778E27 		.ascii	"Dw\216'\254z,\202X[\"\307SV=zBt\347x\306\252\307\"\210"
 188      AC7A2C82 
 188      585B22C7 
 188      53563D7A 
 188      4274E778 
 189 035c 6FB8727C 		.ascii	"o\270r|\017\236Y\024q\034\236\243\002:g\325\243\211"
 189      0F9E5914 
 189      711C9EA3 
 189      023A67D5 
 189      A389
 190 036e 98F3D0CD 		.ascii	"\230\363\320\315\017\351N\362\202U\220EH\256/\021\361"
 190      0FE94EF2 
 190      82559045 
 190      48AE2F11 
 190      F1
 191 037f A2559045 		.ascii	"\242U\220E\0207\226\2704\277X\005\351\011\321\235\343"
 191      103796B8 
 191      34BF5805 
 191      E909D19D 
 191      E3
ARM GAS  /tmp/ccSXec7D.s 			page 14


 192 0390 A45590C9 		.ascii	"\244U\220\311\302\210\333J\344x\325*HO\210v\216\372"
 192      C288DB4A 
 192      E478D52A 
 192      484F8876 
 192      8EFA
 193 03a2 621B6FD7 		.ascii	"b\033o\327\314\372\334\367\360\372\234'\242\303\360"
 193      CCFADCF7 
 193      F0FA9C27 
 193      A2C3F0
 194 03b1 5C014315 		.ascii	"\\\001C\025O\277\300k\370\261\353k\330\376if\331A\022"
 194      4FBFC06B 
 194      F8B1EB6B 
 194      D8FE6966 
 194      D94112
 195 03c4 6E5A7B28 		.ascii	"nZ{(\231\237\014\357o\317\227\326\231\315\376\252U\361"
 195      999F0CEF 
 195      6FCF97D6 
 195      99CDFEAA 
 195      55F1
 196 03d6 453817CD 		.ascii	"E8\027\315W\361%\274\024n~f\3722\323W\230\236d\3727"
 196      57F125BC 
 196      146E7E66 
 196      FA32D357 
 196      989E64FA 
 197 03eb A6AF31FD 		.ascii	"\246\2571\375\007\3237\230\276\305\364\024\323\267\231"
 197      07D33798 
 197      BEC5F414 
 197      D3B799
 198 03fa BEC3F45D 		.ascii	"\276\303\364]\246\377b\372\036\323\017\230\376\233\351"
 198      A6FF62FA 
 198      1ED30F98 
 198      FE9BE9
 199 0409 874C3F02 		.ascii	"\207L?\002m\264\234\223\"=K\270\247\360\211uR|\025\365"
 199      6DB49C93 
 199      223D4BB8 
 199      A7F08975 
 199      527C15F5 
 200 041d 93CB97FB 		.ascii	"\223\313\227\373HO\260g*\233\255\346G\250\203U\306\231"
 200      484FB067 
 200      2A9BADE6 
 200      47A88355 
 200      C699
 201 042f 706A702C 		.ascii	"pjp,x\320v\352(wd\333:f\230\346$\030t\263V\361\177\354"
 201      78D076EA 
 201      287764DB 
 201      3A6698E6 
 201      241874B3 
 202 0447 04F9CCB6 		.ascii	"\004\371\314\266\202F\337\354f1]\260\333\"\265\317\371"
 202      8246DFEC 
 202      66315DB0 
 202      DB22B5CF 
 202      F9
 203 0458 D436C817 		.ascii	"\3246\310\027\363\346s\307\314\271g\333\313\022B\323"
 203      F3E673C7 
 203      CCB967DB 
 203      CB1242D3 
 204 0468 8DDDEC54 		.ascii	"\215\335\354T\374\374\005\2522\353Z\225\225\016\366"
ARM GAS  /tmp/ccSXec7D.s 			page 15


 204      FCFC05AA 
 204      32EB5A95 
 204      950EF6
 205 0477 59AB2AFF 		.ascii	"Y\253*\377\024\371\267\341\300\321\221W\334\350\010"
 205      14F9B7E1 
 205      C0D19157 
 205      DCE808
 206 0486 E8A1880D 		.ascii	"\350\241\210\015\347Y\270\300\202\251\370_[T\333M\230"
 206      E759B8C0 
 206      82A9F85F 
 206      5B54DB4D 
 206      98
 207 0497 8A82D1E7 		.ascii	"\212\202\321\347\332\251x\217\340=\372\367\005\267\350"
 207      DAA9788F 
 207      E03DFAF7 
 207      05B7E8
 208 04a6 6739A2E7 		.ascii	"g9\242\347v\320%\002\377F\234^\342FF@\317\013\305\256"
 208      76D02502 
 208      FF469C5E 
 208      E2464640 
 208      CF0BC5AE 
 209 04ba E25EE0CA 		.ascii	"\342^\340\312\241\350\347\331t\265;\324~\237\035\012"
 209      A1E8E7D9 
 209      74B53BD4 
 209      7E9F1D0A 
 210 04ca 95A5B54D 		.ascii	"\225\245\265M\311\270V\326\274\345\255\032\031-\016"
 210      C9B856D6 
 210      BCE5AD1A 
 210      192D0E
 211 04d9 85243916 		.ascii	"\205$9\026\357\210om\225\272\322R\254=!\245S\021)\255"
 211      EF886F6D 
 211      95BAD252 
 211      AC3D21A5 
 211      531129AD 
 212 04ed 85222890 		.ascii	"\205\"(\220\336\235\326\342\235\321\260\266\334i\225"
 212      DE9DD6E2 
 212      9DD1B0B6 
 212      DC6995
 213 04fc D2A47832 		.ascii	"\322\244x2\222\350\336\021\225\"1j\264{W4\035\212\241"
 213      92E8DE11 
 213      9522316A 
 213      B47B5734 
 213      1D8AA1
 214 050f F2EE7852 		.ascii	"\362\356xR\253[\035\326\242R\254\2533*%\332\273S\321"
 214      AB5B1DD6 
 214      A252ACAB 
 214      332A25DA 
 214      BB53D1
 215 0522 64242A35 		.ascii	"d$*5*-+\233eY\352\210'%\200J\304;\244w\"\021\251=\325"
 215      2A2D2B9B 
 215      6559EA88 
 215      2725804A 
 215      C43BA477 
 216 053b B932D995 		.ascii	"\2712\331\225\214\256\214\266w\304\245\206\320\232P"
 216      8CAE8CB6 
 216      77C4A586 
 216      D09A50
ARM GAS  /tmp/ccSXec7D.s 			page 16


 217 054a 03FDDBFC 		.ascii	"\003\375\333\3749\377\347S\246\265\0350\015LW\231\326"
 217      39FFE753 
 217      A6B51D30 
 217      0D4C5799 
 217      D6
 218 055b 5AB5F694 		.ascii	"Z\265\366\224\326\230\000C\037eZAG\272v\261\201Y\320"
 218      D6980043 
 218      1F655A41 
 218      47BA76B1 
 218      8159D0
 219 056e 8F6ABCDB 		.ascii	"\217j\274\333lt\301\"\234H\354\010\307!\005u3c\337\325"
 219      6C74C122 
 219      9C48EC08 
 219      C7210575 
 219      3363DFD5 
 220 0582 95D2D252 		.ascii	"\225\322\322Rk[\313\252zi\363\346&\251mS\313\273u\222"
 220      6B5BCBAA 
 220      7A69F3E6 
 220      26A96D53 
 220      CBBB7592 
 221 0596 EEC3035C 		.ascii	"\356\303\003\\U\037\326\000\246\223^\343\235a\255\241"
 221      551FD600 
 221      A6935EE3 
 221      9D61ADA1 
 222 05a6 7418C307 		.ascii	"t\030\303\007\220DY\251\003\251\367\265\266\310\212"
 222      904459A9 
 222      03A9F7B5 
 222      B6C88A
 223 05b5 AF69D306 		.ascii	"\257i\323\006EhU\304\015\315\312K\262\334\242\3241]"
 223      456855C4 
 223      0DCDCA4B 
 223      B2DCA2D4 
 223      315D
 224 05c7 EF93E50D 		.ascii	"\357\223\345\015\212(oi\023\267\265\312b\243\242\210"
 224      8A286F69 
 224      13B7B5CA 
 224      62A3A288 
 225 05d7 8A0CF7E0 		.ascii	"\212\014\367\340\360fS\233\"6Q\317\226FE\330\252{\255"
 225      F066539B 
 225      223651CF 
 225      964645D8 
 225      AA7BAD
 226 05ea 02FBED8A 		.ascii	"\002\373\355\212/\022kO\225\207\303;\273\223\221px6"
 226      2F126B4F 
 226      9587C33B 
 226      BB939170 
 226      7836
 227 05fc EF8456AF 		.ascii	"\357\204V\257]\275\306~\267\246\301q\267\366\177\016"
 227      5DBDC67E 
 227      B7A6C171 
 227      B7F67F0E 
 228 060c F999F1   		.ascii	"\371\231\361"
 229              		.text
 230              		.section	.gnu.lto_.symtab.f5ba40b12304f8a,"",%progbits
 231 0000 7374496E 		.ascii	"stInit\000\000\000\000\000\000\000\000\000\000\000\000"
 231      69740000 
 231      00000000 
ARM GAS  /tmp/ccSXec7D.s 			page 17


 231      00000000 
 231      0000
 232 0012 A0000000 		.ascii	"\240\000\000\000stStartAlarm\000\000\000\000\000\000"
 232      73745374 
 232      61727441 
 232      6C61726D 
 232      00000000 
 233 0028 00000000 		.ascii	"\000\000\000\000\000\000\245\000\000\000stStopAlarm"
 233      0000A500 
 233      00007374 
 233      53746F70 
 233      416C6172 
 234 003d 00000000 		.ascii	"\000\000\000\000\000\000\000\000\000\000\000\000\262"
 234      00000000 
 234      00000000 
 234      B2
 235 004a 00000073 		.ascii	"\000\000\000stSetAlarm\000\000\000\000\000\000\000\000"
 235      74536574 
 235      416C6172 
 235      6D000000 
 235      00000000 
 236 005f 00000000 		.ascii	"\000\000\000\000\265\000\000\000stGetAlarm\000\000\000"
 236      B5000000 
 236      73744765 
 236      74416C61 
 236      726D0000 
 237 0074 00000000 		.ascii	"\000\000\000\000\000\000\000\000\000\271\000\000\000"
 237      00000000 
 237      00B90000 
 237      00
 238 0081 73745F6C 		.ascii	"st_lld_init\000\000\002\000\000\000\000\000\000\000"
 238      6C645F69 
 238      6E697400 
 238      00020000 
 238      00000000 
 239 0096 0000BD00 		.ascii	"\000\000\275\000\000\000"
 239      0000
 240              		.text
 241              		.section	.gnu.lto_.opts,"",%progbits
 242 0000 272D6444 		.ascii	"'-dD''-mcpu=cortex-m3''-mno-thumb-interwork''-mthum"
 242      27272D6D 
 242      6370753D 
 242      636F7274 
 242      65782D6D 
 243 0033 6227272D 		.ascii	"b''-ggdb''-g3''-O2''-fomit-frame-pointer''-falign-f"
 243      67676462 
 243      27272D67 
 243      3327272D 
 243      4F322727 
 244 0066 756E6374 		.ascii	"unctions=16''-ffunction-sections''-fdata-sections''"
 244      696F6E73 
 244      3D313627 
 244      272D6666 
 244      756E6374 
 245 0099 2D666E6F 		.ascii	"-fno-common''-flto'\000"
 245      2D636F6D 
 245      6D6F6E27 
ARM GAS  /tmp/ccSXec7D.s 			page 18


 245      272D666C 
 245      746F2700 
 246              		.text
 247              		.cfi_sections	.debug_frame
 248              		.section	.text.stInit,"ax",%progbits
 249              		.align	2
 250              		.p2align 4,,15
 251              		.global	stInit
 252              		.thumb
 253              		.thumb_func
 254              		.type	stInit, %function
 255              	stInit:
 256              	.LFB199:
 257              		.file 1 "../ChibiOS/os/hal/src/st.c"
 258              		.loc 1 63 0
 259              		.cfi_startproc
 260              		@ args = 0, pretend = 0, frame = 0
 261              		@ frame_needed = 0, uses_anonymous_args = 0
 262              		@ link register save eliminated.
 263              		.loc 1 66 0
 264              		.loc 1 65 0
 265 0000 FFF7FEBF 		b	st_lld_init
 266              	.LVL0:
 267              		.cfi_endproc
 268              	.LFE199:
 269              		.size	stInit, .-stInit
 270 0004 AFF30080 		.section	.text.stStartAlarm,"ax",%progbits
 270      AFF30080 
 270      AFF30080 
 271              		.align	2
 272              		.p2align 4,,15
 273              		.global	stStartAlarm
 274              		.thumb
 275              		.thumb_func
 276              		.type	stStartAlarm, %function
 277              	stStartAlarm:
 278              	.LFB200:
 279              		.loc 1 80 0
 280              		.cfi_startproc
 281              		@ args = 0, pretend = 0, frame = 0
 282              		@ frame_needed = 0, uses_anonymous_args = 0
 283              		@ link register save eliminated.
 284              	.LVL1:
 285              	.LBB10:
 286              	.LBB11:
 287              		.file 2 "../ChibiOS/os/hal/ports/STM32/LLD/TIMv1/st_lld.h"
 288              		.loc 2 142 0
 289 0000 4FF08043 		mov	r3, #1073741824
 290              	.LVL2:
 291 0004 5863     		str	r0, [r3, #52]
 292              		.loc 2 143 0
 293 0006 0022     		movs	r2, #0
 294              		.loc 2 144 0
 295 0008 0220     		movs	r0, #2
 296              	.LVL3:
 297              		.loc 2 143 0
 298 000a 1A61     		str	r2, [r3, #16]
ARM GAS  /tmp/ccSXec7D.s 			page 19


 299              		.loc 2 144 0
 300 000c D860     		str	r0, [r3, #12]
 301 000e 7047     		bx	lr
 302              	.LBE11:
 303              	.LBE10:
 304              		.cfi_endproc
 305              	.LFE200:
 306              		.size	stStartAlarm, .-stStartAlarm
 307              		.section	.text.stStopAlarm,"ax",%progbits
 308              		.align	2
 309              		.p2align 4,,15
 310              		.global	stStopAlarm
 311              		.thumb
 312              		.thumb_func
 313              		.type	stStopAlarm, %function
 314              	stStopAlarm:
 315              	.LFB201:
 316              		.loc 1 94 0
 317              		.cfi_startproc
 318              		@ args = 0, pretend = 0, frame = 0
 319              		@ frame_needed = 0, uses_anonymous_args = 0
 320              		@ link register save eliminated.
 321              	.LBB12:
 322              	.LBB13:
 323              		.loc 2 154 0
 324 0000 0022     		movs	r2, #0
 325 0002 4FF08043 		mov	r3, #1073741824
 326 0006 DA60     		str	r2, [r3, #12]
 327 0008 7047     		bx	lr
 328              	.LBE13:
 329              	.LBE12:
 330              		.cfi_endproc
 331              	.LFE201:
 332              		.size	stStopAlarm, .-stStopAlarm
 333 000a 00BFAFF3 		.section	.text.stSetAlarm,"ax",%progbits
 333      0080
 334              		.align	2
 335              		.p2align 4,,15
 336              		.global	stSetAlarm
 337              		.thumb
 338              		.thumb_func
 339              		.type	stSetAlarm, %function
 340              	stSetAlarm:
 341              	.LFB202:
 342              		.loc 1 108 0
 343              		.cfi_startproc
 344              		@ args = 0, pretend = 0, frame = 0
 345              		@ frame_needed = 0, uses_anonymous_args = 0
 346              		@ link register save eliminated.
 347              	.LVL4:
 348              	.LBB14:
 349              	.LBB15:
 350              		.loc 2 166 0
 351 0000 4FF08043 		mov	r3, #1073741824
 352 0004 5863     		str	r0, [r3, #52]
 353 0006 7047     		bx	lr
 354              	.LBE15:
ARM GAS  /tmp/ccSXec7D.s 			page 20


 355              	.LBE14:
 356              		.cfi_endproc
 357              	.LFE202:
 358              		.size	stSetAlarm, .-stSetAlarm
 359 0008 AFF30080 		.section	.text.stGetAlarm,"ax",%progbits
 359      AFF30080 
 360              		.align	2
 361              		.p2align 4,,15
 362              		.global	stGetAlarm
 363              		.thumb
 364              		.thumb_func
 365              		.type	stGetAlarm, %function
 366              	stGetAlarm:
 367              	.LFB203:
 368              		.loc 1 124 0
 369              		.cfi_startproc
 370              		@ args = 0, pretend = 0, frame = 0
 371              		@ frame_needed = 0, uses_anonymous_args = 0
 372              		@ link register save eliminated.
 373              	.LBB16:
 374              	.LBB17:
 375              		.loc 2 178 0
 376 0000 4FF08043 		mov	r3, #1073741824
 377 0004 586B     		ldr	r0, [r3, #52]
 378              	.LBE17:
 379              	.LBE16:
 380              		.loc 1 129 0
 381 0006 80B2     		uxth	r0, r0
 382 0008 7047     		bx	lr
 383              		.cfi_endproc
 384              	.LFE203:
 385              		.size	stGetAlarm, .-stGetAlarm
 386 000a 00BFAFF3 		.text
 386      0080
 387              	.Letext0:
 388              		.file 3 "/home/laurence/ARM-GCC/bin/../lib/gcc/arm-none-eabi/4.7.4/../../../../arm-none-eabi/inclu
 389              		.file 4 "../ChibiOS/os/rt/ports/ARMCMx/compilers/GCC/chtypes.h"
 390              		.file 5 "../ChibiOS/os/rt/include/chsystypes.h"
 391              		.file 6 "../ChibiOS/os/rt/include/chschd.h"
 392              		.file 7 "../ChibiOS/os/rt/ports/ARMCMx/chcore.h"
 393              		.file 8 "../ChibiOS/os/rt/ports/ARMCMx/chcore_v7m.h"
 394              		.file 9 "../ChibiOS/os/hal/ports/STM32/LLD/TIMv1/stm32_tim.h"
 395              		.file 10 "../ChibiOS/os/rt/include/chtm.h"
 396              		.file 11 "../ChibiOS/os/rt/include/chmtx.h"
 397              		.file 12 "../ChibiOS/os/ext/CMSIS/include/core_cm3.h"