ARM GAS  /tmp/ccG25I21.s 			page 1


   1              		.syntax unified
   2              		.cpu cortex-m3
   3              		.fpu softvfp
   4              		.eabi_attribute 20, 1
   5              		.eabi_attribute 21, 1
   6              		.eabi_attribute 23, 3
   7              		.eabi_attribute 24, 1
   8              		.eabi_attribute 25, 1
   9              		.eabi_attribute 26, 1
  10              		.eabi_attribute 30, 2
  11              		.eabi_attribute 34, 1
  12              		.eabi_attribute 18, 4
  13              		.thumb
  14              		.file	"st_lld.c"
  15              		.text
  16              	.Ltext0:
  17              		.section	.gnu.lto_.jmpfuncs.f92fa4eaf9ed8611,"",%progbits
  18 0000 789C6362 		.ascii	"x\234cb`d`g\300\016\244\2414\023\210`d`b\222dHed`\220"
  18      60646067 
  18      C00EA4A1 
  18      34138860 
  18      64606292 
  19 001a 61803238 		.ascii	"a\20028\030\030\000\024)\001Q"
  19      18180014 
  19      290151
  20              		.text
  21              		.section	.gnu.lto_.inline.f92fa4eaf9ed8611,"",%progbits
  22 0000 789C6362 		.ascii	"x\234cb`d\340e\300\016L\2404\023\003\003\207$#\003\023"
  22      6064E065 
  22      C00E4CA0 
  22      34130303 
  22      87242303 
  23 0015 DB073D06 		.ascii	"\333\007=\006\266\005\362L\014\214\\@Q\010\301 \010"
  23      B605F24C 
  23      0C8C5C40 
  23      5108C120 
  23      08
  24 0026 9211FBB0 		.ascii	"\222\021\373\260\232\021\"\305\314\003V\317\000\000"
  24      9A1122C5 
  24      CC0356CF 
  24      0000
  25 0034 94B10524 		.ascii	"\224\261\005$"
  26              		.text
  27              		.section	.gnu.lto_.pureconst.f92fa4eaf9ed8611,"",%progbits
  28 0000 789C6362 		.ascii	"x\234cb`d`f```e\200\000&\006+F)\000\001\232\000c"
  28      60646066 
  28      60606065 
  28      80002606 
  28      2B462900 
  29              		.text
  30              		.section	.gnu.lto_VectorB0.f92fa4eaf9ed8611,"",%progbits
  31 0000 789CAD52 		.ascii	"x\234\255R=L\024Q\020\376\346\355-`lhi\340$\261\302"
  31      3D4C1451 
  31      10FEE6ED 
  31      2D606C68 
  31      69E024B1 
  32 0015 EC133591 		.ascii	"\354\0235\221Rr\304H\302\306p\213\345y9\226\227\334"
ARM GAS  /tmp/ccG25I21.s 			page 2


  32      5272C448 
  32      C2C6708B 
  32      E5793996 
  32      97DC
  33 0027 257B2CD9 		.ascii	"%{,\331\275\273 \315\255Hm\210\011\361\207\230h\214"
  33      BDBB20CD 
  33      AD486D88 
  33      09F18798 
  33      688C
  34 0039 F84762A2 		.ascii	"\370Gb\242\205Q\013\215\205\305a(\264\261\223\370\323"
  34      85510B8D 
  34      85C56128 
  34      B4B193F8 
  34      D3
  35 004a 103A1BAD 		.ascii	"\020:\033\255\316\331\275\005YA\244p6\373f\2623\337"
  35      CED9BD05 
  35      5941A470 
  35      36FB66B2 
  35      33DF
  36 005c 7C33DF3E 		.ascii	"|3\337>\001\342g\247u\361\373A\000\357\331\223\006\022"
  36      01E267A7 
  36      75F1FB41 
  36      00EFD993 
  36      0612
  37 006e F3ABC0C5 		.ascii	"\363\253\300\305\264 \012\003\206\324\005\325\317\265"
  37      B4200A03 
  37      86D405D5 
  37      CFB5
  38 007c 908DE777 		.ascii	"\220\215\347w{\276.\267\275\022\257\327\232u\340 \177"
  38      7BBE2EB7 
  38      BD12AFD7 
  38      9A75E020 
  38      7F
  39 008d D2311704 		.ascii	"\3221\027\004\235\310\307\255GC\037\002\263$\242@k\340"
  39      9DC8C7AD 
  39      47431F02 
  39      B324A240 
  39      6BE0
  40 009f CDC0C6A3 		.ascii	"\315\300\306\243'\224\243[\244\243\017\017\2039R\004"
  40      2794A35B 
  40      A4A30F0F 
  40      83395204 
  41 00af ED06AEB3 		.ascii	"\355\006\256\263'\321\005\305\245\001[\012\255\030\370"
  41      27D105C5 
  41      A5015B0A 
  41      AD18F8
  42 00be A1F1719E 		.ascii	"\241\361q\236\266&Tq\370\026\202b\302]]\213c7\353\305"
  42      B6265471 
  42      F8168262 
  42      C25D5D8B 
  42      6337EBC5 
  43 00d2 ED20B832 		.ascii	"\355 \2702\177)83\273\326l\366(\322\004NP8\366\372\313"
  43      7F293833 
  43      BBD66CF6 
  43      28D2044E 
  43      5038F6FA 
  44 00e7 4FDFA221 		.ascii	"O\337\242!RHGT:R\177*\304\345\234\004V0K/./|\031H\320"
ARM GAS  /tmp/ccG25I21.s 			page 3


  44      52484754 
  44      3A527F2A 
  44      C4E59C04 
  44      56304B2F 
  45 0101 F26AF7A8 		.ascii	"\362j\367\250\227\311\357$\310C\271\027\030\310\013"
  45      97C9EF24 
  45      C843B917 
  45      18C80B
  46 0110 4507D08D 		.ascii	"E\007\320\215%\272\031\\;\245\250-\321v+\375 N\267G"
  46      25BA195C 
  46      3BA5A82D 
  46      D1762BFD 
  46      204EB747 
  47 0124 0DDE415B 		.ascii	"\015\336A[\272\272\370\371\243\376\257%g\3603\350P\324"
  47      BABAF8F9 
  47      A3FEAF25 
  47      67F033E8 
  47      50D4
  48 0136 4179A296 		.ascii	"Ay\242\226R\212\016\374_\265rt\237\377L(\327\342\367"
  48      528A0EFC 
  48      5FB57274 
  48      9FFF4C28 
  48      D7E2F7
  49 0149 7DC985BD 		.ascii	"}\311\205\275\344z\026\311\365\364or\345h\231\203\337"
  49      E47A16C9 
  49      F5F46F72 
  49      E5689983 
  49      DF
  50 015a 7D627D72 		.ascii	"}b}r\364\230\2727\225i\254\350\233\363o[_l[\177\025"
  50      F498BA37 
  50      9569ACE8 
  50      9BF36F5B 
  50      5F6C5B7F 
  51 016f C47735B9 		.ascii	"\304w5\271\344h\250\017\337\312\260_\277a\310L\2614"
  51      E468A80F 
  51      DFCAB05F 
  51      BF61C84C 
  51      B134
  52 0181 5E3A6B49 		.ascii	"^:kI\327\227\305\202#\247\\\257\342Kk\314<~L\216\214"
  52      D797C582 
  52      23A75CAF 
  52      E24B6BCC 
  52      3C7E4C8E 
  53 0196 0CC9B161 		.ascii	"\014\311\261a\263\326/\375J\336q&\014\033z\255\340T"
  53      B3D62FFD 
  53      4ADE7126 
  53      0C1B7AAD 
  53      E054
  54 01a8 555F12E7 		.ascii	"U_\022\347Ub\330`\326\314\230\323\322.\332\256\247\362"
  54      5562D860 
  54      D6CC98D3 
  54      D22EDAAE 
  54      A7F2
  55 01ba B59365A3 		.ascii	"\265\223e\243\010#Y\253\246+2cZ\303\226,M\332NuB\311"
  55      082359AB 
  55      A62B3263 
  55      5AC3962C 
ARM GAS  /tmp/ccG25I21.s 			page 4


  55      4DDA4E75 
  56 01d0 A8D62E9F 		.ascii	"\250\326.\237\256N\332\\\336iZ\331\364x\301WS^\351H"
  56      AE4EDA5C 
  56      DE695AD9 
  56      F478C157 
  56      535EE948 
  57 01e4 FAF05108 		.ascii	"\372\360Q\010\017\355eUv\275\0138\264s\\\327\347\203"
  57      0FED6555 
  57      76BD0B38 
  57      B4735CD7 
  57      E783
  58 01f6 F943CFE8 		.ascii	"\371C\317\350_\310@\307-"
  58      5FC840C7 
  58      2D
  59              		.text
  60              		.section	.gnu.lto_st_lld_init.f92fa4eaf9ed8611,"",%progbits
  61 0000 789C9DD3 		.ascii	"x\234\235\3239H\003A\024\006\340\377\315\354&\361@,"
  61      39480341 
  61      1406E0FF 
  61      CDEC26F1 
  61      402C
  62 0012 0D084A5A 		.ascii	"\015\010JZ!\343\321\330k\241\220 ^\215\020\203\306\200"
  62      21E3D1D8 
  62      6BA19020 
  62      5E8D1083 
  62      C680
  63 0024 42403162 		.ascii	"B@1ba\223\361(,\305N\253hi\021[\321BQ\013\011\222*e"
  63      6193F128 
  63      2CC54EAB 
  63      6869115B 
  63      D142510B 
  64 003c 0A11EDC4 		.ascii	"\012\021\355\304*\205\202\260\316\354\241Q\243\310\276"
  64      2A8582B0 
  64      CEECA151 
  64      A3C8BE
  65 004b 25FB86EC 		.ascii	"%\373\206\354\274\357M2;\014\244\256\237\021V\237n\003"
  65      BCEF4D32 
  65      3B0CA4AE 
  65      9F11569F 
  65      6E03
  66 005d E8539938 		.ascii	"\350S\2318\210\355\224\200\365NF\244\007\252$\307(7"
  66      88ED9480 
  66      F54E46A4 
  66      07AA24C7 
  66      2837
  67 006f 6957B208 		.ascii	"iW\262\010\016\244\334\335\271\332\030\332\270\263\254"
  67      0EA4DCDD 
  67      B9DA18DA 
  67      B8B3AC
  68 007e 8EB4FE36 		.ascii	"\216\264\3766I(>?R\030i\"tBg\006\343k\217_\352\360g"
  68      49283E3F 
  68      52186922 
  68      74426706 
  68      E36B8F5F 
  69 0095 D175E19E 		.ascii	"\321u\341\236\312\247\201svqg\345\2006\216\004\345)"
  69      CAA78173 
  69      767167E5 
ARM GAS  /tmp/ccG25I21.s 			page 5


  69      80368E04 
  69      E529
  70 00a7 A2A625E8 		.ascii	"\242\246%\350@e\025&\266\244l\265)\035\243:\353U\217"
  70      40651526 
  70      B6A46CB5 
  70      291DA33A 
  70      EB558F
  71 00ba 294D0F78 		.ascii	")M\017x\021\227S\325BK\202\016\311D\212x\027\216\344"
  71      119753D5 
  71      424B820E 
  71      C9448A78 
  71      178EE4
  72 00cd 16A589F3 		.ascii	"\026\245\211\363}\354\251l0\335\332\204\314oK\003\316"
  72      7DECA96C 
  72      30DDDA84 
  72      CC6F4B03 
  72      CE
  73 00de D88969B2 		.ascii	"\330\211i\262\177\274\216\"6\217us\3070\024\243':OU"
  73      7FBC8E22 
  73      368F7573 
  73      C73014A3 
  73      273A4F55 
  74 00f2 8361F791 		.ascii	"\203a\367\221\017[i6\321\177{|O\365\225\200\255\004"
  74      0F5B6936 
  74      D17F7B7C 
  74      4FF59580 
  74      AD04
  75 0104 2155384A 		.ascii	"!U8JP\025\276p\233!o\013\325|\234\237\271\013\352/\373"
  75      5015BE70 
  75      9B216F0B 
  75      D57C9C9F 
  75      B90BEA2F 
  76 0119 D358AD66 		.ascii	"\323X\255fY\334\325*\3764^\253\301\265\036>,\201\202"
  76      59DCD52A 
  76      FE345EAB 
  76      C1B51E3E 
  76      2C8182
  77 012c 63199E1A 		.ascii	"c\031\236\032\372\217j|\252\015\356\277yc\376h\363\344"
  77      FA8F6A7C 
  77      AA0DEEBF 
  77      7963FE68 
  77      F3E4
  78 013e 6FC966BD 		.ascii	"o\311f\275%W\375Y\201z\326\233?+Xky\233|}\342\313\012"
  78      2557FD59 
  78      817AD69B 
  78      3F2B586B 
  78      799B7C7D 
  79 0155 7DB76E61 		.ascii	"}\267naVN\012.\005\254\341U\206\322\324HIr_/=\265\011"
  79      564E0A2E 
  79      05ACE155 
  79      86D2D448 
  79      49725F2F 
  80 016c ED6E0EA9 		.ascii	"\355n\016\251{3P\202>\233^\221w\374\310>u\372=\352\211"
  80      7B335082 
  80      3E9B5E91 
  80      77FCC83E 
  80      75FA3DEA 
ARM GAS  /tmp/ccG25I21.s 			page 6


  81 0181 46C5C0FC 		.ascii	"F\305\300\374\302\354\302\310\270X\314\212\371\231\214"
  81      C2ECC2C8 
  81      B858CC8A 
  81      F9998C
  82 0190 585A5C5E 		.ascii	"XZ\\^\311\212\361\211x_\257\210\305\006\305\304p|\265"
  82      C98AF189 
  82      785FAF88 
  82      C506C5C4 
  82      707CB5
  83 01a3 47645792 		.ascii	"GdW\222\231\314\\4\205w\261y\333\344"
  83      99CC5C34 
  83      8577B179 
  83      DBE4
  84              		.text
  85              		.section	.gnu.lto_.cgraph.f92fa4eaf9ed8611,"",%progbits
  86 0000 789C6362 		.ascii	"x\234cb`d`f``\210e\200\002\246\343\214\365\014\014\023"
  86      60646066 
  86      60608865 
  86      8002A6E3 
  86      8CF50C0C 
  87 0015 CE31D4D7 		.ascii	"\3161\324\327\317\353`d:\301X\317\010\3471\236b\254"
  87      CFEB6064 
  87      3AC158CF 
  87      08E7319E 
  87      62AC
  88 0027 6702F31A 		.ascii	"g\002\363\032\032\030\031O3\3263\3039'\031\353Y`\034"
  88      1A18194F 
  88      33D633C3 
  88      392719EB 
  88      59601C
  89 003a 66A0898F 		.ascii	"f\240\211\217\037\374\003\322L\014\207\037\002iF\026"
  89      1FFC03D2 
  89      4C0C871F 
  89      02694616 
  90 004a 86C76D6F 		.ascii	"\206\307mo\344\031\000\244l\036n"
  90      E41900A4 
  90      6C1E6E
  91              		.text
  92              		.section	.gnu.lto_.vars.f92fa4eaf9ed8611,"",%progbits
  93 0000 789C6362 		.ascii	"x\234cb`d`f`\000\222P\000\000\000r\000\010"
  93      60646066 
  93      60009250 
  93      00000072 
  93      0008
  94              		.text
  95              		.section	.gnu.lto_.refs.f92fa4eaf9ed8611,"",%progbits
  96 0000 789C6362 		.ascii	"x\234cb`d`f```b\200\001\000\000\204\000\011"
  96      60646066 
  96      60606062 
  96      80010000 
  96      840009
  97              		.text
  98              		.section	.gnu.lto_.statics.f92fa4eaf9ed8611,"",%progbits
  99 0000 789C6362 		.ascii	"x\234cb`d`b\300\016@\342\214\020&\000\000\375\000\011"
  99      60646062 
  99      C00E40E2 
  99      8C102600 
ARM GAS  /tmp/ccG25I21.s 			page 7


  99      00FD0009 
 100              		.text
 101              		.section	.gnu.lto_.decls.f92fa4eaf9ed8611,"",%progbits
 102 0000 789CAD97 		.ascii	"x\234\255\227kl\024U\024\307\357\235\335>\226\326\002"
 102      6B6C1455 
 102      14C7EF9D 
 102      DD3E96D6 
 102      02
 103 0011 4D25D52F 		.ascii	"M%\325/,\037P\203i\207-$\370\205\204vZ\333&,4\263\213"
 103      2C1F5083 
 103      69872D24 
 103      F8858476 
 103      5ADB262C 
 104 0028 E1CB66DD 		.ascii	"\341\313f\335n\007v\222}\340vK\312\267\241\365\001$"
 104      6E077692 
 104      7DE0764B 
 104      CAB7A1F5 
 104      0124
 105 003a 62359890 		.ascii	"b5\230\220\030u\215-\341%\020\201\250\210\332\220B\220"
 105      18758D2D 
 105      E1251081 
 105      A888DA90 
 105      4290
 106 004c 34044915 		.ascii	"4\004I\025\015\020!\266\204\247\240\255/@\353\271wf"
 106      0D1021B6 
 106      84A7A0AD 
 106      2F40EBB9 
 106      7766
 107 005e EFCC7477 		.ascii	"\357\314twvg\0117=g\356\314\334\373;\3779s\346\356-"
 107      76670937 
 107      3D67EECC 
 107      DCFB3BFF 
 107      3973E6EE 
 108 0073 873022AD 		.ascii	"\2070\"\255\006\016\323\320\222\325\010\365s\0109\340"
 108      060ED3D0 
 108      92D508F5 
 108      730839E0 
 109 0083 DA723072 		.ascii	"\332r0r7\215\324V\0026\010\266\033l\037\330'`\007Qv"
 109      378DD456 
 109      023608B6 
 109      1B6C1FD8 
 109      27600751 
 110 0098 23636681 		.ascii	"#cf\201\035\001;\012v]cT\201U\202\335\000\273\003v\027"
 110      1D013B0A 
 110      765D6354 
 110      815582DD 
 110      00BB0376 
 111 00ad 6C488B71 		.ascii	"lH\213q\002\2511\0075\356\276\034\\\022\367\011\260"
 111      02A93107 
 111      35EEBE1C 
 111      5C12F709 
 111      B0
 112 00be 32038BC4 		.ascii	"2\003\213\304\270\007\346\302z\254\357\301\234D\003"
 112      B807E6C2 
 112      7AACEFC1 
 112      9C4403
 113 00cd 56E31E22 		.ascii	"V\343\036\"\367\011\037\316\317\302\361\034\330)\260"
ARM GAS  /tmp/ccG25I21.s 			page 8


 113      F7091FCE 
 113      CFC2F11C 
 113      D829B0
 114 00dc 31B061B0 		.ascii	"1\260a\260\343`#`\307\3008-N\256\347r\241-\212\322\247"
 114      E3602360 
 114      C7C0382D 
 114      4EAEE772 
 114      A12D8AD2 
 115 00f1 A45F57DA 		.ascii	"\244_W\332NC\374\247P\000W\001\327M{\225.5\350B4\250"
 115      4E43FCA7 
 115      50005701 
 115      D74D7B95 
 115      2E35E842 
 116 0107 28038AA2 		.ascii	"(\003\212\242\340\000Nc\027\0009\214\026\241=\012mj"
 116      E0004E63 
 116      1700398C 
 116      16A13D0A 
 116      6D6A
 117 0119 B2B59CA3 		.ascii	"\262\265\234\243\012\264w\353\321\207\234z\022\300e"
 117      0AB477EB 
 117      D1879C7A 
 117      12C065
 118 0128 2E63347A 		.ascii	".c4z\036\300\037\343EH\215\245\336\316\364\310\313\232"
 118      1EC01FE3 
 118      45488DA5 
 118      DECEF4C8 
 118      CB9A
 119 013a 8DD07CF4 		.ascii	"\215\320|\364\201\222\2762\320\257\264\375==]6\017\275"
 119      8192BE32 
 119      D0AFB4FD 
 119      3D3D5D36 
 119      0FBD
 120 014c 4BA28042 		.ascii	"K\242\200B\005\247\002x\371\223\026\"\011}\010\317\323"
 120      05A70278 
 120      F9931622 
 120      097D08CF 
 120      D3
 121 015d 7A7E871A 		.ascii	"z~\207\032\221C\275X\213\270k\307\344\031\234Q\362\014"
 121      9143BD58 
 121      8BB86BC7 
 121      E4199C51 
 121      F20C
 122 016f 1A22D4E1 		.ascii	"\032\"\324\341\276Z\212$S\006\361|d\026\273\013s\306"
 122      BE5A8A24 
 122      5306F17C 
 122      6416BB0B 
 122      73C6
 123 0181 0B665D6A 		.ascii	"\013f]j4\016\035\306\231\000#\007\236\316\203\337\235"
 123      340E1DC6 
 123      99002307 
 123      9ECE83DF 
 123      9D
 124 0192 85DF938D 		.ascii	"\205\337\223\215\27720\320\2376\341\277a\370\275\357"
 124      BF3230D0 
 124      9F36E1BF 
 124      61F8BDEF 
 125 01a2 BF77A1D6 		.ascii	"\277w\241\326L\330o\207\360\037#\354\032\372p\266\031"
ARM GAS  /tmp/ccG25I21.s 			page 9


 125      4CD86F87 
 125      F01F23EC 
 125      1AFA70B6 
 125      19
 126 01b3 70201FA0 		.ascii	"p \037\240\230\314\037\3222\357\240\325\206\264:1\235"
 126      98CC1FD2 
 126      32EFA0D5 
 126      86B43A31 
 126      9D
 127 01c4 195F0BC9 		.ascii	"\031_\013\311\033\227\221\365\351\376\257J\315\262\016"
 127      1B9791F5 
 127      E9FEAF4A 
 127      CDB20E
 128 01d3 9B65D122 		.ascii	"\233e\321\"\355/P\244\001\374\021^h\263\302\252\321"
 128      ED2F50A4 
 128      01FC115E 
 128      68B3C2AA 
 128      D1
 129 01e4 DBE4C9DC 		.ascii	"\333\344\311\334F\232R\312p/#s\315\037\305\325 \370"
 129      469A52CA 
 129      702F2373 
 129      CD1FC5D5 
 129      20F8
 130 01f6 7726F8FE 		.ascii	"w&\370\376\301\013\027\265\007\261A\"\322>\007\202:"
 130      C10B17B5 
 130      07B14122 
 130      D23E0782 
 130      3A
 131 0207 97721595 		.ascii	"\227r\025\225K\256\"\355\372\324\255u(\273\325,@i\345"
 131      4BAE22ED 
 131      FAD4AD75 
 131      28BBD52C 
 131      4069E5
 132 021a D57E5273 		.ascii	"\325~Rs\245\001|\204~{\207\035X#>\274u\015\347NF\246"
 132      A5017C84 
 132      7E7B871D 
 132      58233EBC 
 132      750DE74E 
 133 0230 AFB6CC18 		.ascii	"\257\266\314\030\255\345`~\306\230#\321b\210nK\342\227"
 133      ADE5607E 
 133      C69823D1 
 133      62886E4B 
 133      E297
 134 0242 8C385A80 		.ascii	"\2148Z\200XnS\3430#\216\025E\264\326x\222\021/\025 "
 134      586E53E3 
 134      30238E15 
 134      45B4D678 
 134      92112F15 
 135 0257 CEB1A9F1 		.ascii	"\316\261\251\3614#\216\027E\264\3268\312\210\267\013"
 135      34238E17 
 135      45B4D638 
 135      CA88B70B 
 136 0267 106B6D6A 		.ascii	"\020kmj<\317\210SE\021\2555\376\250Wd\001\242\333\246"
 136      3CCF8853 
 136      4511AD35 
 136      FEA85764 
 136      01A2DBA6 
ARM GAS  /tmp/ccG25I21.s 			page 10


 137 027b C6CB7A3D 		.ascii	"\306\313z=\306\212!Zk\274\252\327c\001\342s65N\350\365"
 137      C68A215A 
 137      6BBCAAD7 
 137      6301E273 
 137      36354EE8 
 138 0290 5814D15A 		.ascii	"X\024\321Z\343\015\275\036\013\020\027[j\334\014kV["
 138      E30DBD1E 
 138      0B10175B 
 138      6ADC0C6B 
 138      565B
 139 02a2 E95C34A0 		.ascii	"\351\\4\240-K*\233-MxF\001\032\007\246\363\015\014\340"
 139      2D4B2A9B 
 139      2D4D7846 
 139      011A07A6 
 139      F30D0CE0 
 140 02b6 1FF05CDA 		.ascii	"\037\360\\\332\243\253\261\242\255\306t\210\365\317"
 140      A3ABB1A2 
 140      ADC67488 
 140      F5CF
 141 02c4 C205EC62 		.ascii	"\302\005\354bJ+]\306\236\003\351M\037\007I\270\243\177"
 141      4A2B5DC6 
 141      9E03E94D 
 141      1F0749B8 
 141      A37F
 142 02d6 42310B35 		.ascii	"B1\0135\271\263`\235\327\337\364o\250@^W\330$\376\251"
 142      B9B3609D 
 142      D7DFF46F 
 142      A8405E57 
 142      D824FEA9 
 143 02ea 7F430588 		.ascii	"\177C\005\210m6\253\351\276\376\015\025E\264\3268\255"
 143      6D36ABE9 
 143      BEFE0D15 
 143      45B4D638 
 143      AD
 144 02fb 7F43F1FC 		.ascii	"\177C\361\374\304\016\233\032\373\234\354\033*\212h"
 144      C40E9B1A 
 144      FB9CEC1B 
 144      2A8A68
 145 030a D468AACF 		.ascii	"\324h\252\317\364\212\231\005\272b\306\"n\032\230\316"
 145      F48A9905 
 145      BA62C622 
 145      6E1A98CE 
 146 031a 33308027 		.ascii	"30\200'\036\241>\257Y\326'\333)\232\306A\022\266\260"
 146      1EA13EAF 
 146      59D627DB 
 146      299AC641 
 146      12B6B0
 147 032d 248CC573 		.ascii	"$\214\305s\213\311\364\327\346Jkv3\356\016\002\370\013"
 147      8BC9F4D7 
 147      E64A6B76 
 147      33EE0E02 
 147      F80B
 148 033f D8C4D404 		.ascii	"\330\304\324\004\3601\274\000N\216S\3775\365\303\324"
 148      F031BC00 
 148      4E8E53FF 
 148      35F5C3D4 
 149 034f 9FA07E84 		.ascii	"\237\240~\204\372S\324\237\246\376\014\365\243\324\237"
ARM GAS  /tmp/ccG25I21.s 			page 11


 149      FA53D49F 
 149      A6FE0CF5 
 149      A3D49F
 150 035e A5FE1CF5 		.ascii	"\245\376\034\365\347\251\037\243\376'\352/R\177\231"
 150      E7A91FA3 
 150      FE27EA2F 
 150      527F99
 151 036d FA9FA9BF 		.ascii	"\372\237\251\277J\375/\340\265V\201\266\351\377\024"
 151      4AFD2FE0 
 151      B55681B6 
 151      E9FF14
 152 037c A8DB1FEB 		.ascii	"\250\333\037\353\024^\307\025\231y\354e\355\254\322"
 152      145EC715 
 152      9979EC65 
 152      EDACD2
 153 038b FEAFB832 		.ascii	"\376\257\2702\244\324\326\3529(7\245\327\270\025\272"
 153      A4D4D6EA 
 153      392837A5 
 153      D7B815BA 
 154 039b 490BEC4D 		.ascii	"I\013\354M'\271\216\263RD\342\3344\274*\255\317\272"
 154      27B98EB3 
 154      5244E2DC 
 154      34BC2AAD 
 154      CFBA
 155 03ad D3588F31 		.ascii	"\323X\2171\207\305\340\264\2317\264\3020\274\306\314"
 155      87C5E0B4 
 155      9937B4C2 
 155      30BCC6CC 
 156 03bd B2B7B34A 		.ascii	"\262\267\263J%d&\277\300&\227iS\356<BU\375jYU\231}\356"
 156      256426BF 
 156      C0269769 
 156      53EE3C42 
 156      55FD6A59 
 157 03d5 8C0C938D 		.ascii	"\214\014\223\215\2725\356\256\236\341\\\333\315a\316"
 157      BA35EEAE 
 157      9EE15CDB 
 157      CD61CE
 158 03e4 F44363DC 		.ascii	"\364Cc\334\270\336\243\033\327w\234l\343z\362\273k;"
 158      B8DEA31B 
 158      D7779C6C 
 158      E37AF2BB 
 158      6B3B
 159 03f6 CA6CA348 		.ascii	"\312l\243H\360\311\234;\327I\303\316u|\373De\21676+"
 159      F0C99C3B 
 159      D749C3CE 
 159      757CFB44 
 159      658E3736 
 160 040b C702728A 		.ascii	"\307\002r\212*!\223\247\266O\324<\236\255\353\267\214"
 160      2A2193A7 
 160      B64FD43C 
 160      9EADEBB7 
 160      8C
 161 041c F9707BC9 		.ascii	"\371p{\311\343\331\273\236e\310\221\267\012 \355n^\317"
 161      E3D9BB9E 
 161      65C891B7 
 161      0A20ED6E 
 161      5ECF
ARM GAS  /tmp/ccG25I21.s 			page 12


 162 042e 33E46871 		.ascii	"3\344hqHk\225\027\031r\254\020\322\356\366u\234!/\025"
 162      486B9517 
 162      1972AC10 
 162      D2EEF675 
 162      9C212F15 
 163 0442 87B45679 		.ascii	"\207\264Vy\213!\307\013!\355n`'\031\362vqHk\225\017"
 163      8B21C70B 
 163      21ED6E60 
 163      2719F276 
 163      71486B95 
 164 0457 F4C22C84 		.ascii	"\364\302,\204t\333T\251\224\260\272,\016\351\316\361"
 164      74DB54A9 
 164      94B0BA2C 
 164      0EE9CEF1 
 165 0467 31D166FC 		.ascii	"1\321f\374\030\003x\012~(f\005\360\037t\361\376\213"
 165      1803780A 
 165      7E286605 
 165      F01F74F1 
 165      FE8B
 166 0479 FA7FA87F 		.ascii	"\372\177\250\177@\375\277\324OS\277\231#\276\237\372"
 166      40FDBFD4 
 166      4F53BF99 
 166      23BE9FFA 
 167 0489 D7A87F83 		.ascii	"\327\250\177\203\263Z\354\357\345]\354\267r\025\026"
 167      B35AECEF 
 167      E55DECB7 
 167      721516
 168 0498 F30EE55D 		.ascii	"\363\016\345]\302\266\351\363Py\217\034O-i\010\246J"
 168      C2B6E9F3 
 168      50798F1C 
 168      4F2D6908 
 168      A64A
 169 04aa 5B57AD71 		.ascii	"[W\255q\013H\342#\211\230\304GC=I)\036\226\370F\321"
 169      0B48E223 
 169      8998C447 
 169      433D4929 
 169      1E96F846 
 170 04bf 5BD72A08 		.ascii	"[\327*\010|\247\034\347\353\353\371\250\334\311\257"
 170      7CA71CE7 
 170      EBEBF9A8 
 170      DCC9AF
 171 04ce 0F87F950 		.ascii	"\017\207\371P2V\027O\304\245:)\324)\363K\353\227\325"
 171      3256174F 
 171      C4A53A29 
 171      D429F34B 
 171      EB97D5
 172 04e1 2F25B7D9 		.ascii	"/%\267\331\237\371\276\034\017G{\272$\276;\325\005\321"
 172      9FF9BE1C 
 172      0F477BBA 
 172      24BE3BD5 
 172      05D1
 173 04f3 EA23A8FC 		.ascii	"\352#\250\374%)\234J$\233\026{`\254\020\221;\345\325"
 173      25299C4A 
 173      249B167B 
 173      60AC1091 
 173      3BE5D5
 174 0506 3E3ED1CD 		.ascii	">>\321\315GBQ~C\"\231\352\346}~\357\222\006~\345\312"
ARM GAS  /tmp/ccG25I21.s 			page 13


 174      4742517E 
 174      432299EA 
 174      E67D7EEF 
 174      92067EE5 
 175 051b 66DEDFEE 		.ascii	"f\336\337\356\335\350\201\251\301h\264\253>\214*\324"
 175      DDE881A9 
 175      C168B4AB 
 175      3E8C2AD4 
 176 052b 5E508ECB 		.ascii	"^P\216\313\251\352 \031\034\224\223\257\004\245\015"
 176      A9EA2019 
 176      1C9493AF 
 176      04A50D
 177 053a 7234B1BE 		.ascii	"r4\261\276Gz\336\014L\2464\036<\207\340\355\345\303"
 177      477ADE0C 
 177      4CA6341E 
 177      3C87E0ED 
 177      E5C3
 178 054c 91702229 		.ascii	"\221p\")\0057.\213\201\212\352p\304\267\251\333/\307"
 178      05372E8B 
 178      818AEA70 
 178      C4B7A9DB 
 178      2FC7
 179 055e A4645B28 		.ascii	"\244d[(\336\025\225\222\355\013\262\246g\264\207#\335"
 179      DE159592 
 179      ED0BB2A6 
 179      67B48723 
 179      DD
 180 056f 9BBA61D2 		.ascii	"\233\272a\322\234\370F9\334\022\017uF%\365!\352\254"
 180      9CF84639 
 180      DC120F75 
 180      4625F521 
 180      EAAC
 181 0581 1E219C88 		.ascii	"\036!\234\210\305\022\361Ld2\015\246\203\374\030I\267"
 181      C512F14C 
 181      64320DA6 
 181      83FC1849 
 181      B7
 182 0592 1C0BA696 		.ascii	"\034\013\246\226\332\177xm\016\000\034\202\350\001k"
 182      DA7F786D 
 182      0E001C82 
 182      E8016B
 183 05a1 70FABC82 		.ascii	"p\372\274\202\350lno\0219\237\350hi\025K\004\301+z\250"
 183      E86C6E6F 
 183      11399FE8 
 183      6869154B 
 183      04C12B7A 
 184 05b6 6F700A42 		.ascii	"op\012B\213\350\020V\371\035\035>\301\321(\212\016Q"
 184      8BE81056 
 184      F91D1D3E 
 184      C1D1288A 
 184      0E51
 185 05c8 807398D0 		.ascii	"\200s\230\320\324\354\027\035\315d\246\267Q\344V\253"
 185      D4EC171D 
 185      CD64A6B7 
 185      51E456AB 
 186 05d8 B396C0F8 		.ascii	"\263\226\300\370\265\2423\034\011%+DA\010\3727m\220"
 186      B5A2331C 
ARM GAS  /tmp/ccG25I21.s 			page 14


 186      09252B44 
 186      4108FA37 
 186      6D90
 187 05ea 9AA575CF 		.ascii	"\232\245u\317\232\365I\275)^\360\372\332}\240O\225\264"
 187      9AF549BD 
 187      295EF0FA 
 187      DA7DA04F 
 187      95B4
 188 05fc CEB3B817 		.ascii	"\316\263\270\027$q\200\023^l\205\000\355bycGS\203\350"
 188      24718013 
 188      5E6C8500 
 188      ED627963 
 188      475383E8 
 189 0610 F3D38E87 		.ascii	"\363\323\216\207tJ\033\333\232ZV\211e\344\206v\364\300"
 189      744A1BDB 
 189      9A5A5689 
 189      65E48676 
 189      F4C0
 190 0622 11941049 		.ascii	"\021\224\020I>\361\177\033\"\262\364"
 190      3EF17F1B 
 190      22B2F4
 191              		.text
 192              		.section	.gnu.lto_.symtab.f92fa4eaf9ed8611,"",%progbits
 193 0000 56656374 		.ascii	"VectorB0\000\000\000\000\000\000\000\000\000\000\000"
 193      6F724230 
 193      00000000 
 193      00000000 
 193      000000
 194 0013 00A40000 		.ascii	"\000\244\000\000\000st_lld_init\000\000\000\000\000"
 194      0073745F 
 194      6C6C645F 
 194      696E6974 
 194      00000000 
 195 0028 00000000 		.ascii	"\000\000\000\000\000\000\000\250\000\000\000_port_i"
 195      000000A8 
 195      0000005F 
 195      706F7274 
 195      5F69
 196 003a 72715F65 		.ascii	"rq_epilogue\000\000\002\000\000\000\000\000\000\000"
 196      70696C6F 
 196      67756500 
 196      00020000 
 196      00000000 
 197 004f 0000AB00 		.ascii	"\000\000\253\000\000\000chSysTimerHandlerI\000\000\002"
 197      00006368 
 197      53797354 
 197      696D6572 
 197      48616E64 
 198 006a 00000000 		.ascii	"\000\000\000\000\000\000\000\000\000\255\000\000\000"
 198      00000000 
 198      00AD0000 
 198      00
 199 0077 6E766963 		.ascii	"nvicEnableVector\000\000\002\000\000\000\000\000\000"
 199      456E6162 
 199      6C655665 
 199      63746F72 
 199      00000200 
ARM GAS  /tmp/ccG25I21.s 			page 15


 200 0090 000000AF 		.ascii	"\000\000\000\257\000\000\000"
 200      000000
 201              		.text
 202              		.section	.gnu.lto_.opts,"",%progbits
 203 0000 272D6444 		.ascii	"'-dD''-mcpu=cortex-m3''-mno-thumb-interwork''-mthum"
 203      27272D6D 
 203      6370753D 
 203      636F7274 
 203      65782D6D 
 204 0033 6227272D 		.ascii	"b''-ggdb''-g3''-O2''-fomit-frame-pointer''-falign-f"
 204      67676462 
 204      27272D67 
 204      3327272D 
 204      4F322727 
 205 0066 756E6374 		.ascii	"unctions=16''-ffunction-sections''-fdata-sections''"
 205      696F6E73 
 205      3D313627 
 205      272D6666 
 205      756E6374 
 206 0099 2D666E6F 		.ascii	"-fno-common''-flto'\000"
 206      2D636F6D 
 206      6D6F6E27 
 206      272D666C 
 206      746F2700 
 207              		.text
 208              		.cfi_sections	.debug_frame
 209              		.section	.text.VectorB0,"ax",%progbits
 210              		.align	2
 211              		.p2align 4,,15
 212              		.global	VectorB0
 213              		.thumb
 214              		.thumb_func
 215              		.type	VectorB0, %function
 216              	VectorB0:
 217              	.LFB199:
 218              		.file 1 "../ChibiOS/os/hal/ports/STM32/LLD/TIMv1/st_lld.c"
 219              		.loc 1 153 0
 220              		.cfi_startproc
 221              		@ args = 0, pretend = 0, frame = 0
 222              		@ frame_needed = 0, uses_anonymous_args = 0
 223 0000 10B5     		push	{r4, lr}
 224              	.LCFI0:
 225              		.cfi_def_cfa_offset 8
 226              		.cfi_offset 4, -8
 227              		.cfi_offset 14, -4
 228              		.loc 1 157 0
 229 0002 4FF08043 		mov	r3, #1073741824
 230 0006 0024     		movs	r4, #0
 231 0008 1C61     		str	r4, [r3, #16]
 232              	.LVL0:
 233              	.LBB52:
 234              	.LBB53:
 235              	.LBB54:
 236              	.LBB55:
 237              	.LBB56:
 238              	.LBB57:
 239              		.file 2 "../ChibiOS/os/ext/CMSIS/include/core_cmFunc.h"
ARM GAS  /tmp/ccG25I21.s 			page 16


 240              		.loc 2 546 0
 241 000a 2020     		movs	r0, #32
 242              	@ 546 "../ChibiOS/os/ext/CMSIS/include/core_cmFunc.h" 1
 243 000c 80F31188 		MSR basepri, r0
 244              	@ 0 "" 2
 245              		.thumb
 246              	.LBE57:
 247              	.LBE56:
 248              	.LBE55:
 249              	.LBE54:
 250              	.LBE53:
 251              	.LBE52:
 252              	.LBB58:
 253              	.LBB59:
 254              		.file 3 "../ChibiOS/os/hal/osal/rt/osal.h"
 255              		.loc 3 517 0
 256 0010 FFF7FEFF 		bl	chSysTimerHandlerI
 257              	.LVL1:
 258              	.LBE59:
 259              	.LBE58:
 260              	.LBB60:
 261              	.LBB61:
 262              	.LBB62:
 263              	.LBB63:
 264              	.LBB64:
 265              	.LBB65:
 266              		.loc 2 546 0
 267              	@ 546 "../ChibiOS/os/ext/CMSIS/include/core_cmFunc.h" 1
 268 0014 84F31188 		MSR basepri, r4
 269              	@ 0 "" 2
 270              		.thumb
 271              	.LBE65:
 272              	.LBE64:
 273              	.LBE63:
 274              	.LBE62:
 275              	.LBE61:
 276              	.LBE60:
 277              		.loc 1 164 0
 278 0018 BDE81040 		pop	{r4, lr}
 279              		.loc 1 163 0
 280 001c FFF7FEBF 		b	_port_irq_epilogue
 281              	.LVL2:
 282              		.cfi_endproc
 283              	.LFE199:
 284              		.size	VectorB0, .-VectorB0
 285              		.section	.text.st_lld_init,"ax",%progbits
 286              		.align	2
 287              		.p2align 4,,15
 288              		.global	st_lld_init
 289              		.thumb
 290              		.thumb_func
 291              		.type	st_lld_init, %function
 292              	st_lld_init:
 293              	.LFB200:
 294              		.loc 1 176 0
 295              		.cfi_startproc
 296              		@ args = 0, pretend = 0, frame = 0
ARM GAS  /tmp/ccG25I21.s 			page 17


 297              		@ frame_needed = 0, uses_anonymous_args = 0
 298              		@ link register save eliminated.
 299              		.loc 1 182 0
 300 0000 4FF48052 		mov	r2, #4096
 301              		.loc 1 176 0
 302 0004 30B4     		push	{r4, r5}
 303              	.LCFI1:
 304              		.cfi_def_cfa_offset 8
 305              		.cfi_offset 4, -8
 306              		.cfi_offset 5, -4
 307              		.loc 1 182 0
 308 0006 C4F20202 		movt	r2, 16386
 309 000a D169     		ldr	r1, [r2, #28]
 310              		.loc 1 185 0
 311 000c 4FF08043 		mov	r3, #1073741824
 312              		.loc 1 182 0
 313 0010 41F00100 		orr	r0, r1, #1
 314              		.loc 1 185 0
 315 0014 45F6BF55 		movw	r5, #23999
 316              		.loc 1 182 0
 317 0018 D061     		str	r0, [r2, #28]
 318              		.loc 1 191 0
 319 001a 0124     		movs	r4, #1
 320              		.loc 1 185 0
 321 001c 9D62     		str	r5, [r3, #40]
 322              		.loc 1 187 0
 323 001e 0022     		movs	r2, #0
 324              		.loc 1 186 0
 325 0020 4FF6FF75 		movw	r5, #65535
 326              		.loc 1 195 0
 327 0024 1C20     		movs	r0, #28
 328 0026 0821     		movs	r1, #8
 329              		.loc 1 186 0
 330 0028 DD62     		str	r5, [r3, #44]
 331              		.loc 1 187 0
 332 002a 9A61     		str	r2, [r3, #24]
 333              		.loc 1 188 0
 334 002c 5A63     		str	r2, [r3, #52]
 335              		.loc 1 189 0
 336 002e DA60     		str	r2, [r3, #12]
 337              		.loc 1 190 0
 338 0030 5A60     		str	r2, [r3, #4]
 339              		.loc 1 191 0
 340 0032 5C61     		str	r4, [r3, #20]
 341              		.loc 1 192 0
 342 0034 1C60     		str	r4, [r3, #0]
 343              		.loc 1 210 0
 344 0036 30BC     		pop	{r4, r5}
 345              		.loc 1 195 0
 346 0038 FFF7FEBF 		b	nvicEnableVector
 347              	.LVL3:
 348              		.cfi_endproc
 349              	.LFE200:
 350              		.size	st_lld_init, .-st_lld_init
 351 003c AFF30080 		.text
 352              	.Letext0:
 353              		.file 4 "/home/laurence/ARM-GCC/bin/../lib/gcc/arm-none-eabi/4.7.4/../../../../arm-none-eabi/inclu
ARM GAS  /tmp/ccG25I21.s 			page 18


 354              		.file 5 "../ChibiOS/os/rt/ports/ARMCMx/compilers/GCC/chtypes.h"
 355              		.file 6 "../ChibiOS/os/rt/include/chsystypes.h"
 356              		.file 7 "../ChibiOS/os/rt/include/chschd.h"
 357              		.file 8 "../ChibiOS/os/ext/CMSIS/ST/stm32f10x.h"
 358              		.file 9 "../ChibiOS/os/rt/ports/ARMCMx/chcore.h"
 359              		.file 10 "../ChibiOS/os/rt/ports/ARMCMx/chcore_v7m.h"
 360              		.file 11 "../ChibiOS/os/hal/ports/STM32/LLD/TIMv1/stm32_tim.h"
 361              		.file 12 "../ChibiOS/os/rt/include/chtm.h"
 362              		.file 13 "../ChibiOS/os/rt/include/chmtx.h"
 363              		.file 14 "../ChibiOS/os/rt/include/chsys.h"
 364              		.file 15 "../ChibiOS/os/ext/CMSIS/include/core_cm3.h"
 365              		.file 16 "../ChibiOS/os/hal/ports/common/ARMCMx/nvic.h"