ARM GAS  /tmp/ccLrMnFS.s 			page 1


   1              		.syntax unified
   2              		.cpu cortex-m3
   3              		.fpu softvfp
   4              		.eabi_attribute 20, 1
   5              		.eabi_attribute 21, 1
   6              		.eabi_attribute 23, 3
   7              		.eabi_attribute 24, 1
   8              		.eabi_attribute 25, 1
   9              		.eabi_attribute 26, 1
  10              		.eabi_attribute 30, 2
  11              		.eabi_attribute 34, 1
  12              		.eabi_attribute 18, 4
  13              		.thumb
  14              		.file	"testheap.c"
  15              		.text
  16              	.Ltext0:
  17              		.section	.gnu.lto_.jmpfuncs.96061ec392b0eed6,"",%progbits
  18 0000 789C6362 		.ascii	"x\234cb`d`g\300\016\272\231\031\030\344\2014\023\020"
  18      60646067 
  18      C00EBA99 
  18      1918E481 
  18      341310
  19 0013 314932A4 		.ascii	"1I2\244220\360 \230\334 f\025\303\317\006\216TFF\306"
  19      323230F0 
  19      2098DC20 
  19      6615C3CF 
  19      068E5446 
  20 0029 4C468663 		.ascii	"LF\206c\263\2362\202\2641\302\225p\241+\371\243\001"
  20      B39E3282 
  20      B431C295 
  20      70A12BF9 
  20      A301
  21 003b 52802AF6 		.ascii	"R\200*\366e\305:FL\3217+\266AE!Fq\242+\270\262\202\017"
  21      65C53A46 
  21      4CD1372B 
  21      B6414521 
  21      4671A22B 
  22 0053 621923BA 		.ascii	"b\031#\272\035\363\301\346\201\36511(\300M\340\300\260"
  22      1DF3C1E6 
  22      81F53131 
  22      28C04DE0 
  22      C0B0
  23 0065 783E1FCC 		.ascii	"x>\037\314\271\310\302OP\364\013\240\311\336\221G\225"
  23      B9C8C24F 
  23      50F40BA0 
  23      C9DE9147 
  23      95
  24 0076 8398CD8E 		.ascii	"\203\230\315\216n\366\221\371H\256\203\250aCW\363D\016"
  24      6EF691F9 
  24      48AE83A8 
  24      614357F3 
  24      440E
  25 0088 D3DB0C98 		.ascii	"\323\333\014\230Bg\346\241\273\007b\036+\206\235\363"
  25      4267E6A1 
  25      BB07621E 
  25      2B869DF3 
  26 0098 B0FAE7CB 		.ascii	"\260\372\347\313\\|\376y#\213\220\023\204\233\315\202"
ARM GAS  /tmp/ccLrMnFS.s 			page 2


  26      5C7CFE79 
  26      238B9013 
  26      849BCD82 
  27 00a8 11DA73E1 		.ascii	"\021\332s\341\376\3010\177\016^\363ep\313=\221\301\346"
  27      FEC1307F 
  27      0E5EF365 
  27      70CB3D91 
  27      C1E6
  28 00ba 2F668C00 		.ascii	"/f\214\000\230\203\323\3567\263\361\331\375D\032O<\342"
  28      9883D3EE 
  28      37B3F1D9 
  28      FD441A4F 
  28      3CE2
  29 00cc 913B321B 		.ascii	"\221;2\0335\355\301\323?\334.\006\206\206\177\377\377"
  29      35EDC1D3 
  29      3FDC2E06 
  29      86867FFF 
  29      FF
  30 00dd F323C52E 		.ascii	"\363#\305.#\206\032\204\237 \321\312\310\300\214\032"
  30      23861A84 
  30      9F20D1CA 
  30      C8C08C1A 
  31 00ed A433206E 		.ascii	"\2443 n\207\21213j3h\2452\2620g22\306\201$N\000\223"
  31      878A3133 
  31      6A3368A5 
  31      32B23067 
  31      3232C681 
  32 0105 3C430727 		.ascii	"<C\007'\302\312\027\300\314'\247\247\247\357\234\221"
  32      C2CA17C0 
  32      CC27A7A7 
  32      A7EF9C91 
  33 0115 9994E91F 		.ascii	"\231\224\351\037\254_\222Z\\\242_T\002\2463R\023\013"
  33      AC5F925A 
  33      5CA25F54 
  33      02A63352 
  33      130B
  34 0127 F4921900 		.ascii	"\364\222\031\000\376\256\230,"
  34      FEAE982C 
  35              		.text
  36              		.section	.gnu.lto_.inline.96061ec392b0eed6,"",%progbits
  37 0000 789C6362 		.ascii	"x\234cb`d\340e\300\016\2663Bh&\006\216\347\214g\201"
  37      6064E065 
  37      C00EB633 
  37      42682606 
  37      8EE78C67 
  38 0015 0A99429A 		.ascii	"\012\231B\232\234\030\330\026\31031\260\360\202\204"
  38      9C18D816 
  38      C83331B0 
  38      F08284
  39 0024 27F8A1D2 		.ascii	"'\370\241\322\014L\334\014\014\214\030\2420.3\017\012"
  39      0C4CDC0C 
  39      0C8C18A2 
  39      302E330F 
  39      0A
  40 0035 17550F8A 		.ascii	"\027U\017\212V\034jP$\2111\007\273\026\312M\307\243"
  40      561C6A50 
  40      24893107 
ARM GAS  /tmp/ccLrMnFS.s 			page 3


  40      BB16CA4D 
  40      C7A3
  41 0047 837C8D78 		.ascii	"\203|\215x\203\007M\024\252\226\221\013\030=\214\014"
  41      83074D14 
  41      AA96910B 
  41      183D8C0C 
  42 0057 ECFC8C20 		.ascii	"\354\374\214 \036\"j\230A\321\006\000\220\357 \212"
  42      1E226A98 
  42      41D10600 
  42      90EF208A 
  43              		.text
  44              		.section	.gnu.lto_.pureconst.96061ec392b0eed6,"",%progbits
  45 0000 789C6362 		.ascii	"x\234cb`d`f```e\200\000&\006\011F\011\000\0012\000?"
  45      60646066 
  45      60606065 
  45      80002606 
  45      09460900 
  46              		.text
  47              		.section	.gnu.lto_heap1_execute.96061ec392b0eed6,"",%progbits
  48 0000 789CCD58 		.ascii	"x\234\315XIl\023W\030~o\026\333\261\343\335\016\331"
  48      496C1357 
  48      187E6F16 
  48      DBB1E3DD 
  48      0ED9
  49 0012 484212C0 		.ascii	"HB\022\300\001\342l@\220\252\252\207^\332S\025\252\036"
  49      01E26C40 
  49      90AAAA87 
  49      5EDA5315 
  49      AA1E
  50 0024 296A23A3 		.ascii	")j#\243\004\251(*Q\325r\301\015\034z\251\204z\242\354"
  50      04A9282A 
  50      51D572C1 
  50      0D1C7AA9 
  50      847AA2EC 
  51 0038 74A109DD 		.ascii	"t\241\011\335\351F[T(\030h#7B\225Uq\310\001\251Q\333"
  51      E9465B54 
  51      28186823 
  51      37429555 
  51      71C801A9 
  52 004e 830F1C7C 		.ascii	"\203\017\034|\251\0245\375\3362\343\205\231i\210\215"
  52      A91435FD 
  52      DE32E385 
  52      9969888D 
  53 005e 6A47CA37 		.ascii	"jG\3127\377\233\377\373\337\277|\236g[!\024\177\017"
  53      FF9BFFFB 
  53      DFBF7C9E 
  53      675B2114 
  53      7F0F
  54 0070 BE3C587C 		.ascii	"\276<X|\276\235\220'pM\343\204*\307\026\010y\275KQ\""
  54      BE9D9027 
  54      704DE384 
  54      2AC71608 
  54      79BD4B51 
  55 0085 5746493A 		.ascii	"WFI:\241\346\232HzP\225\226\306-MZ:\267ti\271\270\345"
  55      A1E69A48 
  55      7A509596 
  55      C62D4D5A 
ARM GAS  /tmp/ccLrMnFS.s 			page 4


  55      3AB77469 
  56 009c 92969B5B 		.ascii	"\222\226\233[n\305\373\346&X\236#\011X\036%v?\016\313"
  56      6EC5FBE6 
  56      26589E23 
  56      09581E25 
  56      763F0ECB 
  57 00b0 7B6E17AC 		.ascii	"{n\027\254\030\365\262\255\250W2|\234\341\223V#\267"
  57      18F5B2AD 
  57      A857327C 
  57      9CE19356 
  57      23B7
  58 00c2 1AA5E5E7 		.ascii	"\032\245\345\347\226_Z\001n\005\244\025\344VPZ!n\205"
  58      965F5A01 
  58      6E05A415 
  58      E456505A 
  58      216E85
  59 00d5 94486E00 		.ascii	"\224Hn\000V\370J\007\2540\215\212\242\"\306E\224Rv\201"
  59      56F84A07 
  59      AC308D8A 
  59      A222C645 
  59      94527681 
  60 00e9 861C5654 		.ascii	"\206\034VTMw\271=1\257\257\321\037\010\206\302\221("
  60      4D77B93D 
  60      31AFAFD1 
  60      1F0886C2 
  60      9128
  61 00fb 3DFC1C6F 		.ascii	"=\374\034o\324\226nr>\235~\353\376\365\231\346\231{"
  61      D4966E72 
  61      3E9D7EEB 
  61      FEF599E6 
  61      997B
  62 010d 2B2B9D29 		.ascii	"++\235)\266\272\227\222\371\213\277\323\026\222\242"
  62      B6BA9792 
  62      F98BBFD3 
  62      1692A2
  63 011c 94780843 		.ascii	"\224x\010C\245\262\2576<\262\026R\276\365Qmu\354\306"
  63      A5B2AF36 
  63      3CB21652 
  63      BEF5516D 
  63      75ECC6
  64 012f CC5392A4 		.ascii	"\314S\222\244rR\266]\260\272$K{tU\255)\277\334\372\372"
  64      7252B65D 
  64      B0BA244B 
  64      7B7455AD 
  64      29BFDCFA 
  65 0144 CE2FD351 		.ascii	"\316/\323QO\371\035+\311OS\310\006\312xK\253I\361\201"
  65      4FF91D2B 
  65      C94F53C8 
  65      06CA784B 
  65      AB49F181 
  66 0158 C2C8A322 		.ascii	"\302\310\243\"\375\237\303\352\254\357\374\012u\236"
  66      FD9FC3EA 
  66      ACEFFC0A 
  66      759E
  67 0166 5F2E51B7 		.ascii	"_.Q\267\371)\244\217\213\2750\373\011]\213r\227g\003"
  67      F929A48F 
  67      8BBD30FB 
ARM GAS  /tmp/ccLrMnFS.s 			page 5


  67      095D8B72 
  67      976703
  68 0179 755B9BE8 		.ascii	"u[\233\350}_\335\346\247\220~\336\373\305:K\361H\332"
  68      7D5FDDE6 
  68      A7907EDE 
  68      FBC53A4B 
  68      F148DA
  69 018c 485157C8 		.ascii	"HQW\310\260\220\307\361}\253QG\031s\007g\376\245>4q"
  69      B090C7F1 
  69      7DAB5147 
  69      19730767 
  69      FEA53E34 
  70 01a1 17275ED6 		.ascii	"\027'^\326\377\223x\255\224\350R\310c\234\270||\377"
  70      FF9378AD 
  70      94E852C8 
  70      639CB87C 
  70      7CFF
  71 01b3 43331FE7 		.ascii	"C3\037\347\314\273\316\271\346\217_P\226\346\\W\225"
  71      CCBBCEB9 
  71      E68F5F50 
  71      96E65C57 
  71      95
  72 01c4 6BF7560E 		.ascii	"k\367V\016\023\362*%{\350\307\264\233(\300\237\200*"
  72      13F22A25 
  72      7BE8C7B4 
  72      9B28C09F 
  72      802A
  73 01d6 F01C5003 		.ascii	"\360\034P\003\236\007\352r\335\005|\007\350\006\276"
  73      9E07EA72 
  73      DD057C07 
  73      E806BE
  74 01e5 0BF4C8F5 		.ascii	"\013\364\310\365\006\340<\320\013\314\002}\300\367\200"
  74      06E03CD0 
  74      0BCC027D 
  74      C0F780
  75 01f4 8DC0F781 		.ascii	"\215\300\367\201~\340\005`@\372\007\245\177H\372\207"
  75      7EE00560 
  75      40FA07A5 
  75      7F48FA87 
  76 0204 811F0023 		.ascii	"\201\037\000#\300Y`\0248\007\214I\377\270\364o\002^"
  76      C0596014 
  76      38078C49 
  76      FFB8F46F 
  76      025E
  77 0216 04AE037E 		.ascii	"\004\256\003~\010l\006~\004l\221~\255\300O\201m\300"
  77      086C067E 
  77      046C917E 
  77      ADC04F81 
  77      6DC0
  78 0228 CF801DC0 		.ascii	"\317\200\035\300\317\201\235\300K\300.\340\027\300\015"
  78      CF819DC0 
  78      4BC02EE0 
  78      17C00D
  79 0237 C02F81DD 		.ascii	"\300/\201\335\300\257\200=\222\337+\367\331\010\374"
  79      C0AF803D 
  79      92DF2BF7 
  79      D908FC
ARM GAS  /tmp/ccLrMnFS.s 			page 6


  80 0246 1AB809F8 		.ascii	"\032\270\011\370\015p3\36020!\375\372\200\337\002\267"
  80      0D7033F0 
  80      323021FD 
  80      FA80DF02 
  80      B7
  81 0257 00BF036E 		.ascii	"\000\277\003n\005~\017\334\006\274\002\354\227~I\340"
  81      057E0FDC 
  81      06BC02EC 
  81      977E49E0 
  82 0267 0FC001E0 		.ascii	"\017\300\001\340U\340 \360\032p\010\370#p\030x\0358"
  82      55E020F0 
  82      1A7008F8 
  82      23701878 
  82      1D38
  83 0279 02BC01DC 		.ascii	"\002\274\001\334.\371;\200\031\340N\340-\340(\3606\020"
  83      2EF93B80 
  83      19E04EE0 
  83      2DE028F0 
  83      3610
  84 028b 2F9D1C4D 		.ascii	"/\235\034M\247C\272\210/\262\025=\334C\027\370\377;"
  84      A743BA88 
  84      2FB2153D 
  84      DC4317F8 
  84      FF3B
  85 029d F8BF57BE 		.ascii	"\370\277W\276\035\306\030\262\217\274\273\241\001v\241"
  85      1DC618B2 
  85      8FBCBBA1 
  85      0176A1
  86 02ac 66899A7B 		.ascii	"f\211\232{;\260\207\376Ju\334:D\376N{R\324M\367R*()"
  86      3BB087FE 
  86      4A75DC3A 
  86      44FE4E7B 
  86      52D44DF7 
  87 02c4 EA21244B 		.ascii	"\352!$K\364Lk\205O\003|\024\341\303$\345\345w^KQ\037"
  87      F44C6B85 
  87      4F037C14 
  87      E1C324E5 
  87      E5775E4B 
  88 02da 155BDED5 		.ascii	"\025[\336\3259\273\221\263\263'$}\234*\222\357\007_"
  88      39BB91B3 
  88      B327247D 
  88      9C2A92EF 
  88      075F
  89 02ec 2DE73374 		.ascii	"-\3473tA\003)\032 \344\026\027\037\343\210\322\306Y"
  89      4103291A 
  89      20E41617 
  89      1FE388D2 
  89      C659
  90 02fe C6F3E4C8 		.ascii	"\306\363\344\310\202\232;\0210\202\251Xe,\235\307\311"
  90      829A3B11 
  90      3082A958 
  90      652C9DC7 
  90      C9
  91 030f 725D8A3B 		.ascii	"r]\212;\232\334&\210m\264\3426*\036\014\240\245h\210"
  91      9ADC2688 
  91      6DB4E236 
  91      2A1E0CA0 
ARM GAS  /tmp/ccLrMnFS.s 			page 7


  91      A56888
  92 0322 909BE4E8 		.ascii	"\220\233\344\350\237\264H`\267\313\337\025\273\331\203"
  92      9FB44860 
  92      B7CBDF15 
  92      BBD983
  93 0331 36D7841E 		.ascii	"6\327\204\036i\213'^\251\250?\214\300\272  \211\024"
  93      698B275E 
  93      A9A83F8C 
  93      C0BA2020 
  93      8914
  94 0343 8DF0FD97 		.ascii	"\215\360\375\227\212\205\352\316\205\252$\375\317\312"
  94      8A85EACE 
  94      85AA24FD 
  94      CFCA
  95 0351 4AD0AE58 		.ascii	"J\320\256X\235\027\373\213\232/\026\353\302\252u\261"
  95      9D17FB8B 
  95      9A2F16EB 
  95      C2AA75B1 
  96 0361 6EBB6215 		.ascii	"n\273b\025F\263(\326mU,\236\011?\273T6\3536\373Y\313"
  96      46B328D6 
  96      6D552C9E 
  96      093FBB54 
  96      36EB36FB 
  97 0377 152F9DA4 		.ascii	"\025/\235\244b\304eC'%3_<i\266\302\363`+J\343\\\326"
  97      62C46543 
  97      2725335F 
  97      3C69B6C2 
  97      F3602B4A 
  98 038e 2D863F51 		.ascii	"-\206?Q\336\017\241\302\2456#dC5!\347y\310\006\0362"
  98      DE0FA1C2 
  98      A5362364 
  98      433521E7 
  98      79C8061E 
  99 03a3 6F86F456 		.ascii	"o\206\364V\0232\313CzYH\255p\322Q,\036)\026m\271\262"
  99      1332CB43 
  99      7A5948AD 
  99      70D2512C 
  99      1E29166D 
 100 03b9 CF656E0D 		.ascii	"\317en\015\206[\246\335\311\315kH/{\312T\212\317yn\244"
 100      865BA6DD 
 100      C9CD6B48 
 100      2F7BCA54 
 100      8ACF796E 
 101 03ce 746C0BA5 		.ascii	"tl\013\245c\343\2223U\322\210H\242`Z!8\277\235\340T"
 101      63E39233 
 101      55D28848 
 101      A2605A21 
 101      38BF9DE0 
 102 03e3 46B3109C 		.ascii	"F\263\020\234\337Jp(\251@\231\340\226N\231R\011T/\225"
 102      DF4A7028 
 102      A94099E0 
 102      964E9952 
 102      09542F95 
 103 03f7 80986BBB 		.ascii	"\200\230k\273\0212X\275T\202<d\301\014\031\252^*!!\201"
 103      113258BD 
 103      54823C64 
 103      C10C19AA 
ARM GAS  /tmp/ccLrMnFS.s 			page 8


 103      5E2A2121 
 104 040c 538E5209 		.ascii	"S\216R\011\231\032X\357\344\0264\334\262\216n\001C*"
 104      991A58EF 
 104      E41634DC 
 104      B28E6E01 
 104      432A
 105 041e B9D3A654 		.ascii	"\271\323\246T\302\265\221J\004\221\254\245\022\265\223"
 105      C2B5914A 
 105      0491ACA5 
 105      12B593
 106 042d 8AC66816 		.ascii	"\212\306h\026R\211ZI\305E\310mvX\351\371\323\246Tb\253"
 106      52895A49 
 106      C545C86D 
 106      7658E9F9 
 106      D3A65462 
 107 0442 1E42D84E 		.ascii	"\036B\330N*11\327\365F\310x\365R\211\213\271\236v\234"
 107      2A3131D7 
 107      F546C878 
 107      F552898B 
 107      B99E769C 
 108 0456 6BCC9844 		.ascii	"k\314\230D\346\2149\211\246\332Lb\035\"\211\024\225"
 108      E68C3989 
 108      A6DA4C62 
 108      1D228914 
 108      95
 109 0467 8A4934DB 		.ascii	"\212I4\333M\202\323,&\321l5\0117!q6\210\354\031s\020"
 109      4D82D32C 
 109      26D16C35 
 109      09372171 
 109      3688EC19 
 110 047d 2DD5BF67 		.ascii	"-\325\277g[\304\343\275\330\215\326\265v\343&\311\374"
 110      5BC4E3BD 
 110      D88DD6B5 
 110      76E326C9 
 110      FC
 111 048e 512CA1B5 		.ascii	"Q,\241\265(\312b\0118K|jig\332j\263Y[\261\357\306k\214"
 111      28CA6209 
 111      384B7C6A 
 111      6967DA6A 
 111      B3595BB1 
 112 04a6 494CA5BB 		.ascii	"IL\245\273\331\311\020W\347\311L\2768\251\216q\366\031"
 112      D9C91057 
 112      E7C94CBE 
 112      38A98E71 
 112      F619
 113 04b8 AB348F4E 		.ascii	"\2534\217N\273\011\271\230\273\305\204:+'\364\033\341"
 113      BB09B998 
 113      BBC5843A 
 113      2B27F41B 
 113      E1
 114 04c9 DF753554 		.ascii	"\337u5T\034#\342\212\310\357Dl\315\315\353\367\021\302"
 114      1C23E28A 
 114      C8EF446C 
 114      CDCDEBF7 
 114      11C2
 115 04db CE79AD70 		.ascii	"\316y\255p\306Q\244q\363\234\352prk1\265|\326\234^W"
 115      C651A471 
ARM GAS  /tmp/ccLrMnFS.s 			page 9


 115      F39CEA70 
 115      726B31B5 
 115      7CD69C5E 
 116 04f0 6DB4BC01 		.ascii	"m\264\274\001\221\254\237*\335v\235r3\232E\247\272\255"
 116      91AC9F2A 
 116      DD769D72 
 116      339A45A7 
 116      BAAD
 117 0502 B48C0D15 		.ascii	"\264\214\015\025&\204\305\263\246\226{\252\327r\217"
 117      2684C5B3 
 117      A6967BAA 
 117      D7728F
 118 0511 D072A711 		.ascii	"\320r\247\021\262\267\372\207J/\237C\376\254\343\274"
 118      B2B7FA87 
 118      4A2F9F43 
 118      FEACE3BC 
 119 0521 7A8C4114 		.ascii	"z\214A\024\212\203\330X\233AlB$\353\207\312f\273Ax\030"
 119      8A83D858 
 119      9B416C42 
 119      24EB87CA 
 119      66BB4178 
 120 0536 CD62109B 		.ascii	"\315b\020\233\255\006\341'\204\177\020X.\016\"\261\352"
 120      AD06E127 
 120      847F1058 
 120      2E0E22B1 
 120      EA
 121 0547 AE75D90D 		.ascii	"\256u\331\015\"!\216\316Y\307\256%\314\2633\341\344"
 121      22218ECE 
 121      59C7AE25 
 121      CCB333E1 
 121      E4
 122 0558 D66B9E9D 		.ascii	"\326k\236\235\263fs\373j\323\334-\210d\255\362\255v"
 122      B36673FB 
 122      6AD3DC2D 
 122      8864ADF2 
 122      AD76
 123 056a CD6D6034 		.ascii	"\315m`4\213\346n\265j.z#\216\316\312\002W\365\261\276"
 123      8BE66EB5 
 123      6A2E7A23 
 123      8ECECA02 
 123      57F5B1BE 
 124 057e 22F199A7 		.ascii	"\"\361\231\247\331\357i\306~\333\214\373\010?a,\366"
 124      D9EF69C6 
 124      7EDB8CFB 
 124      083F612C 
 124      F6
 125 058f AF6272A0 		.ascii	"\257br\240\332\014\255\237\007[.v9Y\233.\017 \222\350"
 125      DA0CAD9F 
 125      075B2E76 
 125      39599B2E 
 125      0F2092E8 
 126 05a3 32A9E8F2 		.ascii	"2\251\350\362\240]\227\275\214f\321\345A\253.\007E\227"
 126      A05D97BD 
 126      8C66D1E5 
 126      41AB2E07 
 126      4597
 127 05b5 B5CC9CA3 		.ascii	"\265\314\234\243\334\372M\035\315\231\025\016\325\246"
ARM GAS  /tmp/ccLrMnFS.s 			page 10


 127      DCFA4D1D 
 127      CD99150E 
 127      D5A6
 128 05c3 C26144B2 		.ascii	"\302aD\262\326\321\210]\205>F\263\250p\304\252\302\020"
 128      D6D1885D 
 128      853E46B3 
 128      A870C4AA 
 128      C210
 129 05d5 AB902960 		.ascii	"\253\220)`\261\317\360\333n$\304\226M\366\016\343\313"
 129      B1CFF0DB 
 129      6E24C496 
 129      4DF60EE3 
 129      CB
 130 05e6 60797E3B 		.ascii	"`y~;\341\217\233\345\251\215\332\245\326\310\030\026"
 130      E18F9BE5 
 130      A98DDAA5 
 130      D6C81816 
 131 05f6 A98D5AA5 		.ascii	"\251\215Z\245\026\026\251]\337O\0151-\360_Q.\245\337"
 131      1616A95D 
 131      DF4F0D31 
 131      2DF05F51 
 131      2EA5DF
 132 0609 A072E465 		.ascii	"\240r\344ew\357T\336\025a\"\3427\221\352\003EE\240\005"
 132      77EF54DE 
 132      156122E2 
 132      3791EA03 
 132      4545A005 
 133 061d 42A92106 		.ascii	"B\251!\006\361\032cG>n\261\307hG29\360\344\304\344\213"
 133      F11A6347 
 133      3E6EB1C7 
 133      68473239 
 133      F0E4C4E4 
 134 0632 93CF3C3B 		.ascii	"\223\317<;0\235:8=\360\3624\307\211\324\013S\311q\342"
 134      309D3A38 
 134      3DF0F234 
 134      C789D40B 
 134      53C971E2 
 135 0646 9EDC37FD 		.ascii	"\236\3347\375\322TrP=\220\034\322\016\036J\016+SC\312"
 135      D2547250 
 135      3D901CD2 
 135      0E1E4A0E 
 135      2B5343CA 
 136 065a 14FE8FD0 		.ascii	"\024\376\217\320\003\312\301C\377\002\371\351a\010"
 136      03CAC143 
 136      FF02F9E9 
 136      6108
 137              		.text
 138              		.section	.gnu.lto_heap1_setup.96061ec392b0eed6,"",%progbits
 139 0000 789C6362 		.ascii	"x\234cb`\004BL \011\304\273\201X\001\210\031\231\031"
 139      6004424C 
 139      2009C4BB 
 139      81580188 
 139      199919
 140 0013 1899269C 		.ascii	"\030\231&\234c`hT`bd\0041\200Z\352\231\030\353C!:Ou"
 140      63606854 
 140      60626404 
 140      31805AEA 
ARM GAS  /tmp/ccLrMnFS.s 			page 11


 140      9918EB43 
 141 002b 3C96BF33 		.ascii	"<\226\2773\203m?\323\201\007\377\353\031\030\230\201"
 141      836D3FD3 
 141      8107FFEB 
 141      19189881 
 142 003b 42AC0C2D 		.ascii	"B\254\014-\015\015\002\014\361P\243\003A4Hc\020#\023"
 142      0D0D020C 
 142      F150A303 
 142      41344863 
 142      102313
 143 004e 98C17C86 		.ascii	"\230\301|\206\201\355\312\214u\214\261\214\013\030Y"
 143      81EDCA8C 
 143      758CB18C 
 143      0B1859
 144 005d 8172550C 		.ascii	"\201rU\014?\0338R\201N\211gd\204\350\201\21202f\242"
 144      3F1B3852 
 144      814E8967 
 144      6484E881 
 144      8A303266 
 145 0072 F09918B5 		.ascii	"\360\231\030\265\031\264R\031\231\2313\031\031\343@"
 145      19B45219 
 145      99993319 
 145      19E340
 146 0081 32273881 		.ascii	"2'8\201D\007'\330\311\251\214,\014/x\200\024\320\310"
 146      440727D8 
 146      C9A98C2C 
 146      0C2F7880 
 146      14D0C8
 147 0094 730C8C40 		.ascii	"s\014\214@7\301\314\2079\203\021l;\320\015\014rzz\372"
 147      37C1CC87 
 147      3983116C 
 147      3BD00D0C 
 147      727A7AFA 
 148 00a8 CE199949 		.ascii	"\316\031\231I\231\376\301\372%\251\305%\372E%`:#5\261"
 148      99FEC1FA 
 148      25A9C525 
 148      FA452560 
 148      3A2335B1 
 149 00bc 402F9901 		.ascii	"@/\231\001\000\236\2122\311"
 149      009E8A32 
 149      C9
 150              		.text
 151              		.section	.gnu.lto_.cgraph.96061ec392b0eed6,"",%progbits
 152 0000 789C3D90 		.ascii	"x\234=\220\315JC1\020\205g\222\333\366%J\273\363\245"
 152      CD4A4331 
 152      10856792 
 152      DBF6254A 
 152      BBF3A5
 153 0013 5CD90B2D 		.ascii	"\\\331\013-\264P\301\027\230B@Q\241\212\335\025q\223"
 153      B450C117 
 153      98424051 
 153      A18ADD15 
 153      7193
 154 0025 9528F8FB 		.ascii	"\225(\370\373\006\331\273l\267Jp\351+\210\2313\327\334"
 154      06D9BB6C 
 154      B74A70E9 
 154      2B889933 
ARM GAS  /tmp/ccLrMnFS.s 			page 12


 154      D7DC
 155 0037 45BE9CF9 		.ascii	"E\276\234\37193\271\216\230<\021\3750\331\347\036Y\210"
 155      3933B98E 
 155      983C11FD 
 155      30D9E71E 
 155      5988
 156 0049 AE3F48E4 		.ascii	"\256?H\344\366\374\310=\260pU\374\312\342\240V+\346"
 156      F6FCC83D 
 156      B07055FC 
 156      CAE2A056 
 156      2BE6
 157 005b 67165FC5 		.ascii	"g\026_\305\033KS\305\013K\257\212'\226~\025\357,\203"
 157      1B4B53C5 
 157      0B4BAF8A 
 157      27967E15 
 157      EF2C83
 158 006e 7FE1A94F 		.ascii	"\177\341\251O\341\363\267\320S\004{\224@G\361K\331P"
 158      E1F3B7D0 
 158      53047B94 
 158      4047F14B 
 158      D950
 159 0080 BE3FD070 		.ascii	"\276?\320p8\375n4\234\301R~\266\263\362\216\341\242"
 159      38FD6E34 
 159      9CC1527E 
 159      B6B3F28E 
 159      E1A2
 160 0092 D36043E1 		.ascii	"\323`C\341\322\030;&\320S\006\213\375\332\352\363z\250"
 160      D2183B26 
 160      D053068B 
 160      FDDAEAF3 
 160      7AA8
 161 00a4 88574056 		.ascii	"\210W@V\224\246\033 \031\262\302S\330\014\2651mP\031"
 161      94A61B20 
 161      19B2C253 
 161      D80CB531 
 161      6D5019
 162 00b7 761EE314 		.ascii	"v\036\343\024e\332\336c)E\331q\217\\\334\332DC<\324"
 162      65DADE63 
 162      2945D971 
 162      8F5CDCDA 
 162      44433CD4 
 163 00cb 54B8B36D 		.ascii	"T\270\263mF0\036\301w\014\3331\\'0\235\300\263E[\013"
 163      46301EC1 
 163      770CDB31 
 163      5C27309D 
 163      C0B3455B 
 164 00e0 C7168653 		.ascii	"\307\026\206St\341\0143dg\310\332}\216\027\314q_ \276"
 164      74E10C33 
 164      6467C8DA 
 164      7D8E17CC 
 164      715F20BE 
 165 00f4 C063961A 		.ascii	"\300c\226\032IK\214?\306\333O<\017\360\343\351\017+"
 165      494B8C3F 
 165      C6DB4F3C 
 165      0FF0E3E9 
 165      0F2B
 166 0106 DE78EE   		.ascii	"\336x\356"
ARM GAS  /tmp/ccLrMnFS.s 			page 13


 167              		.text
 168              		.section	.gnu.lto_.vars.96061ec392b0eed6,"",%progbits
 169 0000 789C6362 		.ascii	"x\234cb`d`f``\220d\200\000\226U\214\014,\365\314[\031"
 169      60646066 
 169      60609064 
 169      80009655 
 169      8C0C2CF5 
 170 0017 1919EA19 		.ascii	"\031\031\352\031\32612\261\3263\254ed\006\222\000D\223"
 170      D63132B1 
 170      D633AC65 
 170      64069200 
 170      4493
 171 0029 04F5     		.ascii	"\004\365"
 172              		.text
 173              		.section	.gnu.lto_.refs.96061ec392b0eed6,"",%progbits
 174 0000 789C6362 		.ascii	"x\234cb`d`f``\210`\200\000I\006V\222!\023#\220dd`ab"
 174      60646066 
 174      60608860 
 174      80004906 
 174      56922113 
 175 001b 6586400E 		.ascii	"e\206@\016f\026F\026\006d\314\000\000RR\001X"
 175      66164616 
 175      0664CC00 
 175      00525201 
 175      58
 176              		.text
 177              		.section	.gnu.lto_.statics.96061ec392b0eed6,"",%progbits
 178 0000 789C6362 		.ascii	"x\234cb`d`b\300\016@\342\214\020&\000\000\375\000\011"
 178      60646062 
 178      C00E40E2 
 178      8C102600 
 178      00FD0009 
 179              		.text
 180              		.section	.gnu.lto_.decls.96061ec392b0eed6,"",%progbits
 181 0000 789CAD5A 		.ascii	"x\234\255Z\177p\024\325\035\177\3736\367+\211\021\261"
 181      7F7014D5 
 181      1D7FFB36 
 181      F72B8911 
 181      B1
 182 0011 6582D381 		.ascii	"e\202\323\201\350\024e\264\344@\250b\2472\261t\024k"
 182      E81465B4 
 182      E440A862 
 182      A732B174 
 182      146B
 183 0023 AD3395CE 		.ascii	"\2553\225\316\364\237\233\233\313e\223;M\356\316\275"
 183      F49F9B9B 
 183      CB65933B 
 183      4DEECEBD 
 184 0033 0D04673A 		.ascii	"\015\004g:\263\300\250A\251\020\030!\001\301S\311h\254"
 184      B3C0A841 
 184      A9101821 
 184      01C153C9 
 184      68AC
 185 0045 F24B4105 		.ascii	"\362KA\005'\2445\374\010F~\010\024\301@\021\"(\003\026"
 185      27A435FC 
 185      08467E08 
 185      14C14011 
ARM GAS  /tmp/ccLrMnFS.s 			page 14


 185      22280316 
 186 0059 988815A3 		.ascii	"\230\210\025\243\351\367\275\335}\373\366\262{\277\342"
 186      E9F7BDDD 
 186      7DFBF6B2 
 186      7BBFE2
 187 0068 CEEDDB77 		.ascii	"\316\355\333w\273\357}\276\277\337\373\276\267\213\221"
 187      BBEF7DBE 
 187      BFDFFBBE 
 187      B78B91
 188 0077 80C85105 		.ascii	"\200\310Q\005\227!8^\231\214\320\323.\204D\270w/\234"
 188      9721385E 
 188      998CD0D3 
 188      2E8444B8 
 188      772F9C
 189 008a 2EFD4CC1 		.ascii	".\375L\301\371&\234!hW\015'\351U\003\205\027\256\363"
 189      F9269C21 
 189      68570D27 
 189      E9550385 
 189      17AEF3
 190 009d E0FA3738 		.ascii	"\340\37278U8\233\341|\036\316ep\256\204s\025\234E\244"
 190      55389BE1 
 190      7C1ECE65 
 190      70AE8473 
 190      159C45A4 
 191 00b1 3F5C5F81 		.ascii	"?\\_\201s\035\234\3334\222\354 \375o\204\353\002\270"
 191      731D9CDB 
 191      3492EC20 
 191      FD6F84EB 
 191      02B8
 192 00c3 96C1B554 		.ascii	"\226\301\265T\247I\372\315\320\351\356\204g\255p\356"
 192      A749FACD 
 192      D0E9EE84 
 192      67AD70EE 
 193 00d3 12345E16 		.ascii	"\0224^\026\303u\021\234\273\341\\\016\347\0368\347\303"
 193      C375119C 
 193      BBE15C0E 
 193      E71E38E7 
 193      C3
 194 00e4 D903E712 		.ascii	"\331\003\347\022\035\337\255c\257\324\371Z\246\363\370"
 194      1DDFAD63 
 194      AFD4F95A 
 194      A6F3F8
 195 00f3 BCCE7F2A 		.ascii	"\274\316\177*\215\017\"\003\351\263W\247a\310JxY\315"
 195      8D0F2203 
 195      E9B357A7 
 195      61C84A78 
 195      59CD
 196 0105 C98CF5B6 		.ascii	"\311\214\365\266\253\364\272!\033\177\224\240gUu\201"
 196      ABF4BA21 
 196      1B7F94A0 
 196      67557581 
 197 0115 9A7A5A9D 		.ascii	"\232zZ\235\265\247l4jQ\341\250h>\003\255\306\242\200"
 197      B5A76C34 
 197      6A51E1A8 
 197      683E03AD 
 197      C6A280
 198 0128 50E6034E 		.ascii	"P\346\003N0\255\226B\265\002:L@\353Tu)\264\022\002\302"
ARM GAS  /tmp/ccLrMnFS.s 			page 15


 198      30AD9642 
 198      B5023A4C 
 198      40EB5475 
 198      29B41202 
 199 013d CBC26800 		.ascii	"\313\302h\000\306\002\272\035u\250\364\320\321\365\313"
 199      C602BA1D 
 199      75A8F4D0 
 199      D1F5CB
 200 014c 28D4D9B3 		.ascii	"(\324\331\263a\234V\317\005\033\243\337\010\360\267"
 200      619C56CF 
 200      051BA3DF 
 200      08F0B7
 201 015b 1D6003C2 		.ascii	"\035`\003\302:\341v\215\230\252\021#w\221~\177\260\255"
 201      3AE1768D 
 201      98AA1123 
 201      77917E7F 
 201      B0AD
 202 016d 1A0D3FC4 		.ascii	"\032\015?\304\233Q\012\204Y\272P\235\345\266\3105\006"
 202      9B510A84 
 202      59BA509D 
 202      E5B6C835 
 202      06
 203 017e BD4040E0 		.ascii	"\275@@\340\217*(\001aF\011c\240\202\321/\242\020\001"
 203      8F2A2801 
 203      61460963 
 203      A082D12F 
 203      A21001
 204 0191 E10D618C 		.ascii	"\341\015a\214\006FU\206|\250\331\304A\016\375x\235\274"
 204      06465586 
 204      7CA8D9C4 
 204      410EFD78 
 204      9DBC
 205 01a3 29F8A0E7 		.ascii	")\370\240\347\375\202\316\351\325\305\237\355\363#\035"
 205      FD82CEE9 
 205      D5C59FED 
 205      F3231D
 206 01b2 DBE5E3D9 		.ascii	"\333\345\343\331\245\377\265V\032\260\366\330\250\021"
 206      A5FFB556 
 206      1AB0F6D8 
 206      A811
 207 01c0 2FBF1E54 		.ascii	"/\277\036T\031\020f\213z\217\354\324;\204\022\240\336"
 207      1910668B 
 207      7A8FECD4 
 207      3B8412A0 
 207      DE
 208 01d1 2618E4B7 		.ascii	"&\030\344\267\2558\3611\266\261\264&\247\263\0266\001"
 208      AD38F131 
 208      B6B1B426 
 208      A7B31636 
 208      01
 209 01e2 8EC19AF5 		.ascii	"\216\301\232\365\030\366\014\243^\301\260Z\347\242-"
 209      18F60CA3 
 209      5EC1B05A 
 209      E7A22D
 210 01f1 BDA23DAA 		.ascii	"\275\242=\252Q\267J\242\037\324pjj\241\332,\272oD\313"
 210      51B74AA2 
 210      1FD4706A 
ARM GAS  /tmp/ccLrMnFS.s 			page 16


 210      6AA1DA2C 
 210      BA6F44CB 
 211 0205 88B1BADC 		.ascii	"\210\261\272\334\026O\251b\000^J\363(\245\371\216p\243"
 211      164FA962 
 211      005E4AF3 
 211      28A5F98E 
 211      70A3
 212 0217 8DA790BB 		.ascii	"\215\247\220\273\206\247\364\266\216\263\361\024\254"
 212      86A7F4B6 
 212      8EB3F114 
 212      AC
 213 0224 798A4650 		.ascii	"y\212FP7q\327\323j\2630\177\323/\234h\362j~\217\032"
 213      3771D7D3 
 213      6AB3307F 
 213      D32F9C68 
 213      F26A7E8F 
 214 0239 F90C53F3 		.ascii	"\371\014S\363\265\265\333\367\352\352(\000m;E[\201\015"
 214      B5B5DBF7 
 214      EAEA2800 
 214      6D3B455B 
 214      810D
 215 024b B41FDB2F 		.ascii	"\264\037\333/\357\376\255\241m_\232\317\370\254>\343"
 215      EFFEADA1 
 215      6D5F9ACF 
 215      F8AC3EE3 
 216 025b 633EE3D3 		.ascii	"c>\343\323}\206\036\326(\317\243\027FO\211\206f;;6\015"
 216      7D861ED6 
 216      28CFA317 
 216      464F8986 
 216      663B3B36 
 217 0270 08F6ECE7 		.ascii	"\010\366\354\347`M\020n\226[\217\372T\025\037<V(\302"
 217      604D106E 
 217      965B8FFA 
 217      54151F3C 
 217      5628C2
 218 0283 5E976DC4 		.ascii	"^\227m\304wq\021\337\327Z\346hG\225F\274\3567)\267s"
 218      777111DF 
 218      D75AE668 
 218      479546BC 
 218      EE3729B7 
 219 0298 9C12B00F 		.ascii	"\234\022\260\017m]\346C\316e\372[\3078\273\314\360\301"
 219      6D5DE643 
 219      CE65FA5B 
 219      C738BBCC 
 219      F0C1
 220 02aa 45D39533 		.ascii	"E\323\2253\301]\020.\006\006z\216*\227P\273\320z^(4"
 220      C15D102E 
 220      06067A8E 
 220      2A9750BB 
 220      D07A5E28 
 221 02bf 52342E02 		.ascii	"R4.\002B\212F\373R\2069P^\000\"\343\355\005\212C\224"
 221      428A46FB 
 221      52863950 
 221      5E0022E3 
 221      ED058A43 
 222 02d4 3ED83A6E 		.ascii	">\330:n\244\254i\303\340J\006\331\335v6/q+\322\230{"
 222      A4AC69C3 
ARM GAS  /tmp/ccLrMnFS.s 			page 17


 222      E04A06D9 
 222      DD76362F 
 222      712BD298 
 223 02e9 9179656F 		.ascii	"\221yeo\333\230\002|\222\001\255\025\215\301\352\360"
 223      DB98027C 
 223      9201AD15 
 223      8DC1EAF0 
 224 02f9 AAB359BC 		.ascii	"\252\263Y\274\333\353(\246\305\273+x\217\203)\320\350"
 224      DBEB28A6 
 224      C5BB2B78 
 224      8F8329D0 
 224      E8
 225 030a 3E0A59E3 		.ascii	">\012Y\343\374\000\235.\333E67l=\366\215>8\347\200\204"
 225      FC009D2E 
 225      DB453637 
 225      6C3DF68D 
 225      3E38E780 
 226 031f D17EDAF3 		.ascii	"\321~\332\363\220m\254\034\342b\245w\245;]nd\314\216"
 226      906DAC1C 
 226      E262A577 
 226      A53B5D6E 
 226      64CC8E
 227 0332 CE8C3B8F 		.ascii	"\316\214;\217OG)\337G\030\337[;\337\335\365\240\205"
 227      4F4729DF 
 227      4718DF5B 
 227      3BDFDDF5 
 227      A085
 228 0344 EF4CF18D 		.ascii	"\357L\361\215\321\342\"\322\363\270-\337\3079\276\257"
 228      D1E222D2 
 228      F3B82DDF 
 228      C739BEAF 
 229 0354 EEBCBC6D 		.ascii	"\356\274\274m\221h\303\272c\354\331\311\221*b\344\177"
 229      9168C3BA 
 229      63ECD9C9 
 229      912A62E4 
 229      7F
 230 0365 9F26C87F 		.ascii	"\237&\310\177\250 ]E\246 CGDg\003\244!a\324C{\236\266"
 230      A8205D45 
 230      A6204347 
 230      446703A4 
 230      2161D443 
 231 037c 15E4B445 		.ascii	"\025\344\264E\220\203;l\005\031m\211\221\2234|\0171"
 231      90833B6C 
 231      05196D89 
 231      9193347C 
 231      0F31
 232 038e D0C10D23 		.ascii	"\320\301\015#\037\0224\314\343\014\263wz\001Q\307!\346"
 232      1F1234CC 
 232      E30CB377 
 232      7A0151C7 
 232      21E6
 233 03a0 9DFF9CA7 		.ascii	"\235\377\234\247\201\3779\323\361\331}-\347>\365h\270"
 233      81FF39D3 
 233      F1D97D2D 
 233      E73EF568 
 233      B8
 234 03b1 79835DA4 		.ascii	"y\203]\244`)\22793\036\334\305\262)O\332\314\350\261"
ARM GAS  /tmp/ccLrMnFS.s 			page 18


 234      60299739 
 234      331EDCC5 
 234      B2294FDA 
 234      CCE8B1
 235 03c4 CE711E36 		.ascii	"\316q\0366\307y\314l*\357\016\030u\270\014]\202\177"
 235      C779CC6C 
 235      2AEF0E18 
 235      75B80C5D 
 235      827F
 236 03d6 9E6EF364 		.ascii	"\236n\363d\326g\246!c!7!f\230\2450\332HI^\261\365\263"
 236      D667A621 
 236      63213721 
 236      6698A530 
 236      DA48495E 
 237 03ed 2B9C9F5D 		.ascii	"+\234\237][\373\366G\3456n&\344\025/f\016\376KJ\375"
 237      5BFBF647 
 237      E5366E26 
 237      E4152F66 
 237      0EFE4B4A 
 238 0402 3D4AFD5B 		.ascii	"=J\375[[\352\337r\3247\367\265|/\330P\3679\317\224\367"
 238      5BEADF72 
 238      D437F7B5 
 238      7C2FD850 
 238      F739CF94 
 239 0417 FE3C07A3 		.ascii	"\376<\007\243\177O]\370\222\313L\256V\357\035o\330l"
 239      7F4F5DF8 
 239      92CB4CAE 
 239      56EF1D6F 
 239      D86C
 240 0429 46094F8A 		.ascii	"F\011O\212\376\267\344\242\3371\3467\367]~u\225k\244"
 240      FEB7E4A2 
 240      DF31E637 
 240      F75D7E75 
 240      956BA4
 241 043c F1A43133 		.ascii	"\361\24413\310P\273\037\034Y<\031\210C\014\2617\013"
 241      C850BB1F 
 241      1C593C19 
 241      88430CB1 
 241      370B
 242 044e A2B34759 		.ascii	"\242\263GY\021\027\270\015\304\303y!:\363\370\024C\354"
 242      1117B80D 
 242      C4C37921 
 242      3AF3F814 
 242      43EC
 243 0460 CB82382A 		.ascii	"\313\2028*G\036\233\031b\177^\210\316<>\307\020/dA,"
 243      471E9B19 
 243      627F5E88 
 243      CE3C3EC7 
 243      102F6441 
 244 0475 CF91C725 		.ascii	"\317\221\307%\014q /Dg\036\2273\304\301,\210\025v<\016"
 244      0C71202F 
 244      44671E97 
 244      33C4C12C 
 244      8815763C 
 245 048a F3A9F40C 		.ascii	"\363\251\364\014\363*\237a\256p\033c\307\265\265[>\362"
 245      F32A9F61 
 245      AE701B63 
ARM GAS  /tmp/ccLrMnFS.s 			page 19


 245      C7B5B55B 
 245      3EF2
 246 049c 8F24215C 		.ascii	"\217$!\\\3456G\276\2263\371\215|v\332\320\346\246\024"
 246      E53647BE 
 246      9633F98D 
 246      7C76DAD0 
 246      E6A614
 247 04af 431D782F 		.ascii	"C\035x/\333|\227\335\2574\314\327\031\346`\226\371."
 247      DB7C97DD 
 247      AF34CCD7 
 247      19E66096 
 247      F92E
 248 04c1 9B5F5906 		.ascii	"\233_Y\006,}\276:\325\336U\336\312\215\230^\206F\206"
 248      2C7DBE3A 
 248      D5DE55DE 
 248      CA8D985E 
 248      864686
 249 04d4 3F737864 		.ascii	"?sxd\315\325\362r\247\326\001\241\025O\200\262\015\373"
 249      CDD5F272 
 249      A7D601A1 
 249      154F80B2 
 249      0DFB
 250 04e6 18277A9D 		.ascii	"\030'z\235U\265u\330F7io7\300f\357\355\354++0\347+["
 250      55B575D8 
 250      4637696F 
 250      37C066EF 
 250      EDEC2B2B 
 251 04fe 4C53DC53 		.ascii	"LS\334Sp\360\\Z\240\226\2739\321\263hJ\037\344\327`"
 251      70F05C5A 
 251      A096BB39 
 251      D1B3684A 
 251      1FE4D760 
 252 0512 32B37FE0 		.ascii	"2\263\177\3406\323\204Mg\323\322\204\334\301R\024l\247"
 252      36D3844D 
 252      67D3D284 
 252      DCC15214 
 252      6CA7
 253 0524 DB4C13B6 		.ascii	"\333L\023\266\374\200\015]\011ii\202`\235\365\005\246"
 253      FC800D5D 
 253      09696982 
 253      609DF505 
 253      A6
 254 0535 3D41575E 		.ascii	"=AW^~\2551\372\230\013\223M_\233ab\3457\207A\2430M\266"
 254      7EAD31FA 
 254      980B934D 
 254      5F9B6162 
 254      E5378741 
 255 054d 53E18F70 		.ascii	"S\341\217p\232la\232\324T\223\257@'x\201\376\233\237"
 255      9A6C619A 
 255      D45493AF 
 255      40277881 
 255      FE9B9F
 256 0560 4013472E 		.ascii	"@\023G.\320\033T\240/8\201\016\216P\240\213\234@\007"
 256      D01B54A0 
 256      2F38810E 
 256      8E50A08B 
 256      9C4007
ARM GAS  /tmp/ccLrMnFS.s 			page 20


 257 0573 AFE427D0 		.ascii	"\257\344'\320dN\240\2746\0326`\273\215\006r\327H\240"
 257      644EA0BC 
 257      361A3660 
 257      BB8D0672 
 257      D748A0
 258 0586 063AEDF6 		.ascii	"\006:\355\3664\2128RTwj\036\011\363f\252\273\001>\254"
 258      348A3852 
 258      54776A1E 
 258      09F366AA 
 258      BB013EAC 
 259 059a ACD9773E 		.ascii	"\254\331w>`[(\3305.\254v\354\232d\250\335\235f\006\267"
 259      605B28D8 
 259      352EAC76 
 259      EC9A64A8 
 259      DD9D6606 
 260 05af D50CE431 		.ascii	"\325\014\3441\241\366?\272\257d\3560\031\317\310\037"
 260      A1F63FBA 
 260      AF64EE30 
 260      19CFC81F 
 261 05bf 0FFA2920 		.ascii	"\017\372)  \363\361\010\272\276\301_\207\262\315S\310"
 261      20F3F108 
 261      BABEC15F 
 261      87B2CD53 
 261      C8
 262 05d0 625E34CC 		.ascii	"b^4\314\274\206\022\0271\324\376Y#\315\"g\220Ij\031"
 262      BC861217 
 262      31D4FE59 
 262      23CD2267 
 262      90496A19 
 263 05e4 03ECEB19 		.ascii	"\003\354\353\031\351B/\357\225T'\225\251\315c:\306\345"
 263      E9422FEF 
 263      95542795 
 263      A9CD633A 
 263      C6E5
 264 05f6 7366505D 		.ascii	"sfP]L\037$s[\032\265s\212?\370\306\252B\024\257\037"
 264      4C1F2473 
 264      5B1AB573 
 264      8A3FF8C6 
 264      AA4214AF 
 265 060b 18BDE931 		.ascii	"\030\275\3511b\264\377\017\005$I\371-\261x\315tc\262"
 265      62B4FF0F 
 265      052449F9 
 265      2DB178CD 
 265      7463B2
 266 061e 29B09169 		.ascii	")\260\221ifkg\333\256Y\032hN\213\265\035\264\347nl\267"
 266      666B67DB 
 266      AE591A68 
 266      4E8BB51D 
 266      B4E76E6C 
 267 0633 5C2277CD 		.ascii	"\\\"w\315M\201\226wm7\005\204a\011M@8+`\035\364\302"
 267      4D819677 
 267      6D370584 
 267      61094D40 
 267      382B601D 
 268 0649 5B05F9CA 		.ascii	"[\005\371\312\360\203\3471 \364@\026\002\014\356\305"
 268      F083E731 
 268      20F44016 
ARM GAS  /tmp/ccLrMnFS.s 			page 21


 268      020CEEC5 
 269 0659 379B26D8 		.ascii	"7\233&\330\317L\320\373Q\266\335:\253\021*,FP\251 \332"
 269      CF4CD0FB 
 269      51B6DD3A 
 269      AB112A2C 
 269      4650A920 
 270 066e AED13186 		.ascii	"\256\3211\2069\370\220\321\272\312\2223\032\365\211"
 270      39F890D1 
 270      BACA9233 
 270      1AF589
 271 067d 59CC6AC4 		.ascii	"Y\314j\304e?C\354\373cf\036';\"\032\312\326\242\342"
 271      653F43EC 
 271      FB63661E 
 271      273B221A 
 271      CAD6A2E2 
 272 0691 BC29F7C3 		.ascii	"\274)\367\303\371 V\014CL[\356\222M9\347\011\342\020"
 272      F920560C 
 272      434C5BEE 
 272      924D39E7 
 272      09E210
 273 06a4 9F8A7DC3 		.ascii	"\237\212}\303x\350\336\227\315\340\323\263\312\245m"
 273      78E8DE97 
 273      CDE0D3B3 
 273      CAA56D
 274 06b3 C20C9921 		.ascii	"\302\014\231!\265/\233=\247g\221L\037\303\236\365\032"
 274      B52F9B3D 
 274      A767914C 
 274      1FC39EF5 
 274      1A
 275 06c4 9087F767 		.ascii	"\220\207\367gc\263*W\27747\324\002B\2770\001\215\016"
 275      63B32A57 
 275      BF3437D4 
 275      0242BF30 
 275      018D0E
 276 06d7 085F4050 		.ascii	"\010_@P\004\204s\264\374\212\226\227i\331\202I\271\234"
 276      048473B4 
 276      FC8A9697 
 276      69D98249 
 276      B99C
 277 06e9 962FD0F2 		.ascii	"\226/\320\362EZ\256\243e\007-\327\323\362CZ\366\322"
 277      455AAEA3 
 277      65072DD7 
 277      D3F2435A 
 277      F6D2
 278 06fb 721F2D0F 		.ascii	"r\037-\017\320\362\023Z\036\241\345Q\323\373\235\315"
 278      D0F2135A 
 278      1EA1E551 
 278      D3FB9DCD 
 279 070b 74D2FABA 		.ascii	"t\322\372\272\313\210M\262q\331_9\322\211A\003\377\222"
 279      CB884DB2 
 279      71D95F39 
 279      D2894103 
 279      FF92
 280 071d 215EC80B 		.ascii	"!^\310\013\261\302Y\247\3079\235\366\201Nq@8A5x\214"
 280      B1C259A7 
 280      C7399DF6 
 280      814E7140 
ARM GAS  /tmp/ccLrMnFS.s 			page 22


 280      38413578 
 281 0732 8FF8655E 		.ascii	"\217\370e^cG\371\352\326o>fo\356\354\00347i`\331\310"
 281      6347F9EA 
 281      D66F3E66 
 281      6FEEEC03 
 281      34376960 
 282 0748 40FB8F96 		.ascii	"@\373\217\226e\026'\333\336FZ<\035\310\030O'\371xz\205"
 282      651627DB 
 282      DE465A3C 
 282      1DC8184F 
 282      27F9787A 
 283 075d 313150C8 		.ascii	"11P\310\272\325N\245\2078\225\036\001\225\212\001\341"
 283      BAD54EA5 
 283      8738951E 
 283      01958A01 
 283      E1
 284 076e DF54A59F 		.ascii	"\337T\245\237Qg:\301+\266\303\313^\211\366p\257D\323"
 284      51673AC1 
 284      2BB6C3CB 
 284      5E89F670 
 284      AF44D3
 285 0781 B6F4F97A 		.ascii	"\266\364\371zN\221\322\316\261\360\232\306\302\353\224"
 285      4E91D2CE 
 285      B1F09AC6 
 285      C2EB94
 286 0790 85B769B9 		.ascii	"\205\267i\271_\310\301\237S\346n\201E\2757\240\245t"
 286      5FC8C19F 
 286      53E66E81 
 286      45BD37A0 
 286      A574
 287 07a2 6FB0B54C 		.ascii	"o\260\265LK\262\015\204\256Z\006\361e\251\216q\032\337"
 287      4BB20D84 
 287      AE5A06F1 
 287      65A98E71 
 287      1ADF
 288 07b4 406B9694 		.ascii	"@k\226\224\222\266q\246{\206[\263\226\372\370\332\271"
 288      92B671A6 
 288      7B865BB3 
 288      96FAF8DA 
 288      B9
 289 07c5 D2AC4C7F 		.ascii	"\322\254L\177n\332\226M2\345n"
 289      6EDA964D 
 289      32E56E
 290 07d0 8D118C36 		.ascii	"\215\021\2146\200\266\365\254\334\372}A:\357\030m\245"
 290      80B6F5AC 
 290      DCFA7D41 
 290      3AEF186D 
 290      A5
 291 07e1 86396B9B 		.ascii	"\2069k\233\233\237\345r\363\365\275WN7\331\330\0003"
 291      9B9FE572 
 291      F3F5BD57 
 291      4E37D9D8 
 291      0033
 292 07f3 F2CDA2DB 		.ascii	"\362\315\242\333\366\233\006;}\235\267\315\016\316s"
 292      F69B063B 
 292      7D9DB7CD 
 292      0ECE73
ARM GAS  /tmp/ccLrMnFS.s 			page 23


 293 0802 D941BFED 		.ascii	"\331A\277\355\373M\027O\3150\020P\323\336@3\212?c\024"
 293      FB4D174F 
 293      CD301050 
 293      D3DE4033 
 293      8A3F6314 
 294 0816 F7609DE2 		.ascii	"\367`\235\342\305\002,\364\265\243\205&\032\322\243"
 294      C5022CF4 
 294      B5A38526 
 294      1AD2A3
 295 0825 93547F84 		.ascii	"\223T\177\204\363\013\255c\234\030\310%\325\246\"i|"
 295      F30BAD63 
 295      9C18C825 
 295      D5A62269 
 295      7C
 296 0836 62F43943 		.ascii	"b\3649C5_a:\201\352\"\346\200\332\317P\007\263\242."
 296      355F613A 
 296      81EA22E6 
 296      80DACF50 
 296      07B3A22E 
 297 084a 75E58A7A 		.ascii	"u\345\212z\216\241v\217\315\206\252g\3309\240\236g\250"
 297      8EA1768F 
 297      CD86AA67 
 297      D839A09E 
 297      67A8
 298 085c BD595153 		.ascii	"\275YQS\305v\250\314D\027\231\213\037\036\353\344\224"
 298      C576A8CC 
 298      4417998B 
 298      1F1EEBE4 
 298      94
 299 086d 192D04B3 		.ascii	"\031-\004\263\2609\226\365\265\305\012\002\031\217\326"
 299      B03996F5 
 299      B5C50A02 
 299      198FD6
 300 087c AA5D97C8 		.ascii	"\252]\227\310(\016\3537O\332\0278\216\357\001\010\361"
 300      280EEB37 
 300      4FDA1738 
 300      8EEF0108 
 300      F1
 301 088d 6B788C5E 		.ascii	"kx\214^3>|\301\350\222\227\275\015\330\277\371\314\247"
 301      333E7CC1 
 301      E89297BD 
 301      0DD8BFF9 
 301      CCA7
 302 089f 2C8DBE15 		.ascii	",\215\276\025\265\023\334\256\005\345\024\224t\372\016"
 302      B513DCAE 
 302      05E51494 
 302      74FA0E
 303 08ae 8FB72824 		.ascii	"\217\267($ |\2171\177\303\312\231F\017\2435>\203Bwy"
 303      207C8F31 
 303      7FC3CA99 
 303      460FA335 
 303      3E834277 
 304 08c3 06F41F86 		.ascii	"\006\364\037\206\241\3778\034\375\324\322\245\013S\303"
 304      A1FF381C 
 304      FDD4D2A5 
 304      0B53C3
 305 08d2 E5F6A267 		.ascii	"\345\366\242g\350N\310S\352|\341\211\214;!\372\000\261"
ARM GAS  /tmp/ccLrMnFS.s 			page 24


 305      E84EC853 
 305      EA7CE189 
 305      8C3B21FA 
 305      00B1
 306 08e4 40F492B9 		.ascii	"@\364\222\271\304\347\274\021HZ\030\312\327\353\254"
 306      C4E7BC11 
 306      485A18CA 
 306      D7EBAC
 307 08f3 9A711F70 		.ascii	"\232q\037p\276h\371\314\211~r\204\331\037\015\212\373"
 307      BE68F9CC 
 307      897E7284 
 307      D91F0D8A 
 307      FB
 308 0904 F208C658 		.ascii	"\362\010\306X\246\237\365\275\313\276n\026\255|<#\346"
 308      A69FF5BD 
 308      CBBE6E16 
 308      AD7C3C23 
 308      E6
 309 0915 AA04EDD3 		.ascii	"\252\004\355\323\000g\306\026\2453F?r\320\377\245\345"
 309      0067C616 
 309      A533463F 
 309      72D0FFA5 
 309      E5
 310 0926 03999116 		.ascii	"\003\231\221\026\213%<\213\234,\0370Y:\333\266\037\266"
 310      8B253C8B 
 310      9C2C1F30 
 310      593ADBB6 
 310      1FB6
 311 0938 683620FC 		.ascii	"h6 \374=\017Q2\372\361\222tI \203\026,|\364\230>\267"
 311      3D0F5132 
 311      FAF19274 
 311      49208316 
 311      2C7CF498 
 312 094e C6F2411B 		.ascii	"\306\362A\033$\272yp\221\361{\266\345\231\364\251\251"
 312      24BA7970 
 312      91F17BB6 
 312      E599F4A9 
 312      A9
 313 095f 304D3B87 		.ascii	"0M;\207\031W\203/\326Z\271Z\361\223\231\271U\034\036"
 313      1957832F 
 313      D65AB95A 
 313      F19399B9 
 313      551C1E
 314 0972 E4A718E1 		.ascii	"\344\247\030\341m+\332v\337d%\335\366S\231e\265\235"
 314      6D2BDA76 
 314      DF6425DD 
 314      F6539965 
 314      B59D
 315 0984 4244DE48 		.ascii	"BD\336H\3343\033\365\\6\235\347\253\367\273\323\234"
 315      DC331BF5 
 315      5C369DE7 
 315      ABF7BBD3 
 315      9C
 316 0995 E7252B97 		.ascii	"\347%+\227\267\240\227\325\256\003t\244W\325\301\241"
 316      B7A097D5 
 316      AE0374A4 
 316      57D5C1A1 
ARM GAS  /tmp/ccLrMnFS.s 			page 25


 317 09a5 21D1F866 		.ascii	"!\321\370frA\2619\236]9\316\222\376\264\357!\011\342"
 317      7241B139 
 317      9E5D39CE 
 317      92FEB4EF 
 317      2109E2
 318 09b8 CB262241 		.ascii	"\313&\"A\003\231\325\224\211FFy\214\026\027\233\261"
 318      0399D594 
 318      89464679 
 318      8C16179B 
 318      B1
 319 09c9 F9C9DBEF 		.ascii	"\371\311\333\357{\234\006l\202\367\252\025oc\027Y\256"
 319      7B9C066C 
 319      82F7AA15 
 319      6F631759 
 319      AE
 320 09da ABA78686 		.ascii	"\253\247\206\206\306\353\371\005\371\226\203\305Y\227"
 320      C6EBF905 
 320      F99683C5 
 320      5997
 321 09e8 F9D218E6 		.ascii	"\371\322\030\346,!\343\347)-\300E\016\337\261@\312*"
 321      2C21E3E7 
 321      292DC045 
 321      0EDFB140 
 321      CA2A
 322 09fa 92E54E87 		.ascii	"\222\345N\207h\227\023\221\273\354\233/\333\357X\212"
 322      68971391 
 322      BBEC9B2F 
 322      DBEF588A 
 323 0a0a 2C4B0EF2 		.ascii	",K\016\362>\003\226\034T\001\244o\377\267\005o\377\331"
 323      3E03961C 
 323      5401A46F 
 323      FFB7056F 
 323      FFD9
 324 0a1c 2E39C8E4 		.ascii	".9\310\344\340\354K\353En\311\361\022c\342\302Qw\001"
 324      E0EC4BEB 
 324      456EC9F1 
 324      1263E2C2 
 324      517701
 325 0a2f CB388B5C 		.ascii	"\3138\213\\\004\031\243v\006\231\337*f\270X\006\342"
 325      0419A376 
 325      0699DF2A 
 325      66B85806 
 325      E2
 326 0a40 7A863838 		.ascii	"z\20688\202u\221\261\036.\012\010\377\020\311\312\343"
 326      827591B1 
 326      1E2E0A08 
 326      FF10C9CA 
 326      E3
 327 0a51 2D5A6EA4 		.ascii	"-Zn\244\345f1\353*$M\311\257\211\231\326u\357\210\226"
 327      E56631EB 
 327      2A244DC9 
 327      AF8999D6 
 327      75EF8896 
 328 0a65 77FE1C6C 		.ascii	"w\376\034lU\032\263\234\007k\335\234\032\006\204-b\376"
 328      551AB39C 
 328      076BDD9C 
 328      1A06842D 
ARM GAS  /tmp/ccLrMnFS.s 			page 26


 328      62FE
 329 0a77 F9F156D1 		.ascii	"\371\361V\321)?\346G\001\263\035Ynpq\376\311\372c>g"
 329      293FE647 
 329      01B31D59 
 329      6E7071FE 
 329      C9FA633E 
 330 0a8c 86DED5E3 		.ascii	"\206\336\325\343r*\332\2546W\301R\017\030\304\246=\237"
 330      722ADAAC 
 330      3657C152 
 330      0F18C4A6 
 330      3D9F
 331 0a9e 44DFA9E5 		.ascii	"D\337\251\345\232P\002\211\333K\007X\334j\372\303\350"
 331      9A500289 
 331      DB4B0758 
 331      DC6AFAC3 
 331      E8
 332 0aaf 5F8CD640 		.ascii	"_\214\326@\207\2717\223\026}\204\324v 5\016\365\026"
 332      87B93793 
 332      167D84D4 
 332      7620350E 
 332      F516
 333 0ac1 AF51BD16 		.ascii	"\257Q\275\026\222\004F\267(%\347\270<l\343\227\207\346"
 333      920446B7 
 333      2825E7B8 
 333      3C6CE397 
 333      87E6
 334 0ad3 903551C7 		.ascii	"\2205Q\307\357*@\267\377t\324\355mY|) \3540\035D\030"
 334      EF2A40B7 
 334      FF74D4ED 
 334      6D597C29 
 334      20EC301D 
 335 0ae9 874E825C 		.ascii	"\207N\202\\\255U:\027\203\035e\264\311[\272L^-\016\004"
 335      AD553A17 
 335      831D65B4 
 335      C95BBA4C 
 335      5E2D0E04 
 336 0afd 2D91EBBE 		.ascii	"-\221\353\276\235>$n;\326\214f\315\203\255\255IRyX\333"
 336      9D3E246E 
 336      3BD68C66 
 336      CD83ADAD 
 336      49527958 
 337 0b12 01EABF83 		.ascii	"\001\352\277\203cFS.\363\3204\277&\223\2343\333;E\373"
 337      6346532E 
 337      F3D034BF 
 337      26939C33 
 337      DB3B45FB 
 338 0b26 85B89603 		.ascii	"\205\270\226\0039\367\333\345\330oy\306~\273\035\373"
 338      39F7DBE5 
 338      D86F79C6 
 338      7EBB1DFB 
 339 0b36 CDCFD86F 		.ascii	"\315\317\330o\217c\277%\031\373\365\210\226\215\263"
 339      8F63BF25 
 339      19FBF588 
 339      968DB3
 340 0b45 B4BEAB33 		.ascii	"\264\276\2533\366\335\313\305\374u\015RC\\\236\027\214"
 340      F6DDCBC5 
 340      FC750D52 
ARM GAS  /tmp/ccLrMnFS.s 			page 27


 340      435C9E17 
 340      8C
 341 0b56 48A14450 		.ascii	"H\241DPq?\360\247\277T\314D\267TV\372gF\242\325\321"
 341      713FF0A7 
 341      BF54CC44 
 341      B75456FA 
 341      6746A2D5 
 342 0b6b 471EF5C7 		.ascii	"G\036\365\307\223~Y\361Gc\341\372\306\032\311\037\216"
 342      937E59F1 
 342      4763E1FA 
 342      C61AC91F 
 342      8E
 343 0b7c 90869511 		.ascii	"\220\206\225\021T\302\365s'\243OJA\345!\177$\336 \371"
 343      54C2F573 
 343      27A34F4A 
 343      41E5217F 
 343      24DE20F9 
 344 0b90 EB438DB2 		.ascii	"\353C\215\262\024\013K\376\373\376\374\360\244\007f"
 344      140B4BFE 
 344      FBFEFCF0 
 344      A40766
 345 0b9f CEF45747 		.ascii	"\316\364WGc~\000\254\217V\373\353\302a\177Hn\230\024"
 345      637E00AC 
 345      8F56FBEB 
 345      C2617F48 
 345      6E9814
 346 0bb2 8BC7A449 		.ascii	"\213\307\244IR\250:\352\237Vyw\3454\006\237Tjj\244Z"
 346      52A83AEA 
 346      9F567977 
 346      E534069F 
 346      546A6AA4 
 347 0bc7 802F05F8 		.ascii	"\200/\005\370:I\251m\214\205\203\312\204\014\354@\273"
 347      3A49A96D 
 347      8C8583CA 
 347      840CEC40 
 347      BB
 348 0bd8 705C96A0 		.ascii	"p\\\226\240Kq$\230\220\343s\2425\222\\B\245\201\002"
 348      4B712498 
 348      90E373A2 
 348      35925C42 
 348      A58102
 349 0beb EAC549E5 		.ascii	"\352\305I\345\361P}\264.\026Tn\033\206\223\210\313J"
 349      F1507DB4 
 349      2E16546E 
 349      1B869388 
 349      CB4A
 350 0bfd 92303AF3 		.ascii	"\2220:\363\341&\000\323\221\274\215\321\230r\327\264"
 350      E12600D3 
 350      91BC8DD1 
 350      9872D7B4 
 351 0c0d A022152E 		.ascii	"\240\"\025.\021<f?\353sNV \003\344\\\224\275\242\230"
 351      113C663F 
 351      EB734E56 
 351      2003E45C 
 351      94BDA298 
 352 0c21 D4A41411 		.ascii	"\324\244\024\021\306\205\306\"\242P!\342\216\004keI"
 352      C685C622 
ARM GAS  /tmp/ccLrMnFS.s 			page 28


 352      A25021E2 
 352      8E046B65 
 352      49
 353 0c32 F234342A 		.ascii	"\36244*RSP\2719\223\032\224&\202D[^\257Dd\020=\031|"
 353      525350B9 
 353      39931A94 
 353      2682445B 
 353      5EAF4464 
 354 0c4a A2516A04 		.ascii	"\242Qj\004\273\334\232\241_r^R\231\227\220\222\320y"
 354      BBDC9AA1 
 354      5F725E52 
 354      99979092 
 354      D079
 355 0c5c 543812B4 		.ascii	"T8\022\264\364\314\344\005\311p\244\206hJ\353\020T|"
 355      F4CCE405 
 355      C970A486 
 355      684AEB10 
 355      547C
 356 0c6e ACB33B11 		.ascii	"\254\263;\021$\222\300%!Ks<JB\216\306\203\312]YT\037"
 356      2492C025 
 356      214B733C 
 356      4A428EC6 
 356      83CA5D59 
 357 0c84 6F4844EB 		.ascii	"oHD\353%9\351'\352\015G\014\236\250%\246\336\031\324"
 357      2539E927 
 357      EA0D470C 
 357      9EA825A6 
 357      DE19D4
 358 0c97 E0A2714F 		.ascii	"\340\242qO8\036\003\011\225\022\322;\010\317\302J\323"
 358      381E0309 
 358      9512D23B 
 358      08CFC24A 
 358      D3
 359 0ca8 1DB95835 		.ascii	"\035\271X58\347\356\006\202'Ku`\215\240\202\345iX\376"
 359      38E7EE06 
 359      82274B75 
 359      608DA082 
 359      E56958FE 
 360 0cbc 3596EFC2 		.ascii	"5\226\357\302\362\335X\236\216\345{Dy\312d8\247\340"
 360      F2DD589E 
 360      8EE57B44 
 360      79CA6438 
 360      A7E0
 361 0cce 7A192E53 		.ascii	"z\031.S]\211 `{\2100s%\031\256\361zp\246\242p$$\023"
 361      5D892060 
 361      7B883073 
 361      2519AEF1 
 361      7A70A6A2 
 362 0ce6 09430D92 		.ascii	"\011C\015\222WI*!\005\364\353!LN\207k\"H\357x\224\206"
 362      57492A21 
 362      05F4EB21 
 362      4C4E876B 
 362      2248EF78 
 363 0cfc 788D44FF 		.ascii	"x\215D\377\327\326\207\352\222\036E\226j\223T\006Rq"
 363      D7D687EA 
 363      921E4596 
 363      6A935406 
ARM GAS  /tmp/ccLrMnFS.s 			page 29


 363      5271
 364 0d0e 3524EBE0 		.ascii	"5$\353\340\241!\230\\3\017nx\245\246\250\022\206n\356"
 364      A121985C 
 364      330F6E78 
 364      A5A6A812 
 364      866EEE
 365 0d21 B94ABCFA 		.ascii	"\271J\274\372\261D\2114G\212)\015\241\344\343\320D\232"
 365      B1448934 
 365      478A290D 
 365      A1E4E3D0 
 365      449A
 366 0d33 4B2A6222 		.ascii	"K*b\"\330Xf\030\250>\232T\202\312\365\234\311\310\035"
 366      D8586618 
 366      A83E9A54 
 366      82CAF59C 
 366      C9C81D
 367 0d46 5F223837 		.ascii	"_\"87\024U\242\261\272\342D\020P\251\031]\264\0127\244"
 367      1455A2B1 
 367      BAE24410 
 367      50A9195D 
 367      B40A37A4 
 368 0d5a 84140397 		.ascii	"\204\024\003\227\253\203V\340.\244}1\341(TO5\0137\023"
 368      AB8356E0 
 368      2EA47D31 
 368      E128544F 
 368      350B3713 
 369 0d6e F178BDA7 		.ascii	"\361x\275\247A3>\\\343sc\222\354n\240\346tEH\037wuc"
 369      41333E5C 
 369      E3736392 
 369      EC6EA0E6 
 369      7445481F 
 370 0d85 6DAD2497 		.ascii	"m\255$\227*\022P\327\352\311\2338\365\223\373\304\000"
 370      2A1250D7 
 370      EAC99B38 
 370      F593FBC4 
 370      00
 371 0d96 E40ADAC6 		.ascii	"\344\012\332\306\263'\343\331S\360\354;\361\354\251"
 371      B327E3D9 
 371      53F0EC3B 
 371      F1ECA9
 372 0da5 78F6343C 		.ascii	"x\3664<7t\035\361\357)A\251I\012\203\247\216s\350J\207"
 372      37741DF1 
 372      EF2941A9 
 372      490A83A7 
 372      8E73E84A 
 373 0dba 98302AD1 		.ascii	"\2300*\321\032'%\2451\341\012\376\016\230+\015R\312"
 373      1A2725A5 
 373      31E10AFE 
 373      0E982B0D 
 373      52CA
 374 0dcc A1645292 		.ascii	"\241dR\222\225\322pd\0264x\024T\336\230,\326\376\334"
 374      95D27064 
 374      16347814 
 374      54DE982C 
 374      D6FEDC
 375 0ddf 0FE152A2 		.ascii	"\017\341R\242U\357\253\257\217\207\301\247g\202\365"
 375      55EFABAF 
ARM GAS  /tmp/ccLrMnFS.s 			page 30


 375      8F87C1A7 
 375      6782F5
 376 0dee 1F9014AD 		.ascii	"\037\220\024\255\331_Gi\017\037\251~L\012+\017\306\242"
 376      D95F4769 
 376      0F1FA97E 
 376      4C0A2B0F 
 376      C6A2
 377 0e00 8A8F2212 		.ascii	"\212\217\"\022JE\244\346%E8\224\224\212\210\211]\224"
 377      4A45A4E6 
 377      25453894 
 377      948A8889 
 377      5D94
 378 0e12 36DC0BC9 		.ascii	"6\334\013\3115\240\015\217\316wI\"\244(\222\034#\275"
 378      35A00D8F 
 378      CE774922 
 378      A428921C 
 378      23BD
 379 0e24 7C06C353 		.ascii	"|\006\303Sn\250\224\3435!%T\311\356L$\244~U\021\"\234"
 379      6EA894E3 
 379      35212554 
 379      C9EE4C24 
 379      A47E5511 
 380 0e3a 8494683C 		.ascii	"\204\224h<V\021\212\325T\324\312\241\272\0060\256v\207"
 380      56118AD5 
 380      54D4CAA1 
 380      BA0630AE 
 380      7687
 381 0e4c 3446FF07 		.ascii	"4F\377\007\251\026\001G"
 381      A9160147 
 382              		.text
 383              		.section	.gnu.lto_.symtab.96061ec392b0eed6,"",%progbits
 384 0000 5F746573 		.ascii	"_test_assert\000\000\002\000\000\000\000\000\000\000"
 384      745F6173 
 384      73657274 
 384      00000200 
 384      00000000 
 385 0016 00008001 		.ascii	"\000\000\200\001\000\000chHeapStatus\000\000\002\000"
 385      00006368 
 385      48656170 
 385      53746174 
 385      75730000 
 386 002c 00000000 		.ascii	"\000\000\000\000\000\000\000\000\210\001\000\000chH"
 386      00000000 
 386      88010000 
 386      636848
 387 003b 65617046 		.ascii	"eapFree\000\000\002\000\000\000\000\000\000\000\000"
 387      72656500 
 387      00020000 
 387      00000000 
 387      0000
 388 004d 008E0100 		.ascii	"\000\216\001\000\000chHeapAlloc\000\000\002\000\000"
 388      00636848 
 388      65617041 
 388      6C6C6F63 
 388      00000200 
 389 0062 00000000 		.ascii	"\000\000\000\000\000\000\000\222\001\000\000chCoreG"
 389      00000092 
ARM GAS  /tmp/ccLrMnFS.s 			page 31


 389      01000063 
 389      68436F72 
 389      6547
 390 0074 65745374 		.ascii	"etStatusX\000\000\002\000\000\000\000\000\000\000\000"
 390      61747573 
 390      58000002 
 390      00000000 
 390      00000000 
 391 0088 00970100 		.ascii	"\000\227\001\000\000chHeapObjectInit\000\000\002\000"
 391      00636848 
 391      6561704F 
 391      626A6563 
 391      74496E69 
 392 00a1 00000000 		.ascii	"\000\000\000\000\000\000\000\000\232\001\000\000pat"
 392      00000000 
 392      9A010000 
 392      706174
 393 00b0 7465726E 		.ascii	"ternheap\000\000\000\000\000\000\000\000\000\000\000"
 393      68656170 
 393      00000000 
 393      00000000 
 393      000000
 394 00c3 00A40100 		.ascii	"\000\244\001\000\000testheap1\000\000\000\000\000\000"
 394      00746573 
 394      74686561 
 394      70310000 
 394      00000000 
 395 00d7 00000000 		.ascii	"\000\000\000\000\000\000\272\001\000\000test\000\000"
 395      0000BA01 
 395      00007465 
 395      73740000 
 396 00e7 02000000 		.ascii	"\002\000\000\000\000\000\000\000\000\000\242\001\000"
 396      00000000 
 396      0000A201 
 396      00
 397 00f4 00       		.ascii	"\000"
 398              		.text
 399              		.section	.gnu.lto_.opts,"",%progbits
 400 0000 272D6444 		.ascii	"'-dD''-mcpu=cortex-m3''-mno-thumb-interwork''-mthum"
 400      27272D6D 
 400      6370753D 
 400      636F7274 
 400      65782D6D 
 401 0033 6227272D 		.ascii	"b''-ggdb''-g3''-O2''-fomit-frame-pointer''-falign-f"
 401      67676462 
 401      27272D67 
 401      3327272D 
 401      4F322727 
 402 0066 756E6374 		.ascii	"unctions=16''-ffunction-sections''-fdata-sections''"
 402      696F6E73 
 402      3D313627 
 402      272D6666 
 402      756E6374 
 403 0099 2D666E6F 		.ascii	"-fno-common''-flto'\000"
 403      2D636F6D 
 403      6D6F6E27 
 403      272D666C 
ARM GAS  /tmp/ccLrMnFS.s 			page 32


 403      746F2700 
 404              		.text
 405              		.cfi_sections	.debug_frame
 406              		.section	.text.heap1_execute,"ax",%progbits
 407              		.align	2
 408              		.p2align 4,,15
 409              		.thumb
 410              		.thumb_func
 411              		.type	heap1_execute, %function
 412              	heap1_execute:
 413              	.LFB171:
 414              		.file 1 "../ChibiOS/test/rt/testheap.c"
 415              		.loc 1 69 0
 416              		.cfi_startproc
 417              		@ args = 0, pretend = 0, frame = 8
 418              		@ frame_needed = 0, uses_anonymous_args = 0
 419 0000 70B5     		push	{r4, r5, r6, lr}
 420              	.LCFI0:
 421              		.cfi_def_cfa_offset 16
 422              		.cfi_offset 4, -16
 423              		.cfi_offset 5, -12
 424              		.cfi_offset 6, -8
 425              		.cfi_offset 14, -4
 426 0002 82B0     		sub	sp, sp, #8
 427              	.LCFI1:
 428              		.cfi_def_cfa_offset 24
 429              		.loc 1 74 0
 430 0004 FFF7FEFF 		bl	chCoreGetStatusX
 431              	.LVL0:
 432              		.loc 1 80 0
 433 0008 01A9     		add	r1, sp, #4
 434 000a 0020     		movs	r0, #0
 435 000c FFF7FEFF 		bl	chHeapStatus
 436              	.LVL1:
 437              		.loc 1 81 0
 438 0010 1021     		movs	r1, #16
 439 0012 0020     		movs	r0, #0
 440 0014 FFF7FEFF 		bl	chHeapAlloc
 441              	.LVL2:
 442              		.loc 1 82 0
 443 0018 011C     		adds	r1, r0, #0
 444 001a 18BF     		it	ne
 445 001c 0121     		movne	r1, #1
 446 001e 0446     		mov	r4, r0
 447 0020 0120     		movs	r0, #1
 448              	.LVL3:
 449 0022 FFF7FEFF 		bl	_test_assert
 450              	.LVL4:
 451 0026 0546     		mov	r5, r0
 452 0028 08B1     		cbz	r0, .L7
 453              	.LVL5:
 454              	.L1:
 455              		.loc 1 140 0
 456 002a 02B0     		add	sp, sp, #8
 457 002c 70BD     		pop	{r4, r5, r6, pc}
 458              	.LVL6:
 459              	.L7:
ARM GAS  /tmp/ccLrMnFS.s 			page 33


 460              		.loc 1 83 0
 461 002e 2046     		mov	r0, r4
 462 0030 FFF7FEFF 		bl	chHeapFree
 463              	.LVL7:
 464              		.loc 1 84 0
 465 0034 6FF0FF01 		mvn	r1, #255
 466 0038 2846     		mov	r0, r5
 467 003a FFF7FEFF 		bl	chHeapAlloc
 468              	.LVL8:
 469              		.loc 1 85 0
 470 003e D0F10101 		rsbs	r1, r0, #1
 471 0042 38BF     		it	cc
 472 0044 0021     		movcc	r1, #0
 473 0046 0220     		movs	r0, #2
 474              	.LVL9:
 475 0048 FFF7FEFF 		bl	_test_assert
 476              	.LVL10:
 477 004c 0028     		cmp	r0, #0
 478 004e ECD1     		bne	.L1
 479              		.loc 1 88 0
 480 0050 01A9     		add	r1, sp, #4
 481 0052 7E48     		ldr	r0, .L8
 482 0054 FFF7FEFF 		bl	chHeapStatus
 483              	.LVL11:
 484              		.loc 1 91 0
 485 0058 1021     		movs	r1, #16
 486 005a 7C48     		ldr	r0, .L8
 487 005c FFF7FEFF 		bl	chHeapAlloc
 488              	.LVL12:
 489              		.loc 1 92 0
 490 0060 1021     		movs	r1, #16
 491              		.loc 1 91 0
 492 0062 0546     		mov	r5, r0
 493              	.LVL13:
 494              		.loc 1 92 0
 495 0064 7948     		ldr	r0, .L8
 496              	.LVL14:
 497 0066 FFF7FEFF 		bl	chHeapAlloc
 498              	.LVL15:
 499              		.loc 1 93 0
 500 006a 1021     		movs	r1, #16
 501              		.loc 1 92 0
 502 006c 0446     		mov	r4, r0
 503              	.LVL16:
 504              		.loc 1 93 0
 505 006e 7748     		ldr	r0, .L8
 506              	.LVL17:
 507 0070 FFF7FEFF 		bl	chHeapAlloc
 508              	.LVL18:
 509 0074 0646     		mov	r6, r0
 510              	.LVL19:
 511              		.loc 1 94 0
 512 0076 2846     		mov	r0, r5
 513              	.LVL20:
 514 0078 FFF7FEFF 		bl	chHeapFree
 515              	.LVL21:
 516              		.loc 1 95 0
ARM GAS  /tmp/ccLrMnFS.s 			page 34


 517 007c 2046     		mov	r0, r4
 518 007e FFF7FEFF 		bl	chHeapFree
 519              	.LVL22:
 520              		.loc 1 96 0
 521 0082 3046     		mov	r0, r6
 522 0084 FFF7FEFF 		bl	chHeapFree
 523              	.LVL23:
 524              		.loc 1 97 0
 525 0088 6946     		mov	r1, sp
 526 008a 7048     		ldr	r0, .L8
 527 008c FFF7FEFF 		bl	chHeapStatus
 528              	.LVL24:
 529 0090 B0F1010E 		subs	lr, r0, #1
 530 0094 DEF10001 		rsbs	r1, lr, #0
 531 0098 51EB0E01 		adcs	r1, r1, lr
 532 009c 0320     		movs	r0, #3
 533 009e FFF7FEFF 		bl	_test_assert
 534              	.LVL25:
 535 00a2 0028     		cmp	r0, #0
 536 00a4 C1D1     		bne	.L1
 537              		.loc 1 100 0
 538 00a6 1021     		movs	r1, #16
 539 00a8 6848     		ldr	r0, .L8
 540 00aa FFF7FEFF 		bl	chHeapAlloc
 541              	.LVL26:
 542              		.loc 1 101 0
 543 00ae 1021     		movs	r1, #16
 544              		.loc 1 100 0
 545 00b0 0446     		mov	r4, r0
 546              	.LVL27:
 547              		.loc 1 101 0
 548 00b2 6648     		ldr	r0, .L8
 549              	.LVL28:
 550 00b4 FFF7FEFF 		bl	chHeapAlloc
 551              	.LVL29:
 552              		.loc 1 102 0
 553 00b8 1021     		movs	r1, #16
 554              		.loc 1 101 0
 555 00ba 0546     		mov	r5, r0
 556              	.LVL30:
 557              		.loc 1 102 0
 558 00bc 6348     		ldr	r0, .L8
 559              	.LVL31:
 560 00be FFF7FEFF 		bl	chHeapAlloc
 561              	.LVL32:
 562              		.loc 1 103 0
 563 00c2 FFF7FEFF 		bl	chHeapFree
 564              	.LVL33:
 565              		.loc 1 104 0
 566 00c6 2846     		mov	r0, r5
 567 00c8 FFF7FEFF 		bl	chHeapFree
 568              	.LVL34:
 569              		.loc 1 105 0
 570 00cc 2046     		mov	r0, r4
 571 00ce FFF7FEFF 		bl	chHeapFree
 572              	.LVL35:
 573              		.loc 1 106 0
ARM GAS  /tmp/ccLrMnFS.s 			page 35


 574 00d2 6946     		mov	r1, sp
 575 00d4 5D48     		ldr	r0, .L8
 576 00d6 FFF7FEFF 		bl	chHeapStatus
 577              	.LVL36:
 578 00da 0138     		subs	r0, r0, #1
 579 00dc 4242     		rsbs	r2, r0, #0
 580 00de 52EB0001 		adcs	r1, r2, r0
 581 00e2 0420     		movs	r0, #4
 582 00e4 FFF7FEFF 		bl	_test_assert
 583              	.LVL37:
 584 00e8 0028     		cmp	r0, #0
 585 00ea 9ED1     		bne	.L1
 586              		.loc 1 109 0
 587 00ec 1121     		movs	r1, #17
 588 00ee 5748     		ldr	r0, .L8
 589 00f0 FFF7FEFF 		bl	chHeapAlloc
 590              	.LVL38:
 591              		.loc 1 110 0
 592 00f4 1021     		movs	r1, #16
 593              		.loc 1 109 0
 594 00f6 0446     		mov	r4, r0
 595              	.LVL39:
 596              		.loc 1 110 0
 597 00f8 5448     		ldr	r0, .L8
 598              	.LVL40:
 599 00fa FFF7FEFF 		bl	chHeapAlloc
 600              	.LVL41:
 601 00fe 0546     		mov	r5, r0
 602              	.LVL42:
 603              		.loc 1 111 0
 604 0100 2046     		mov	r0, r4
 605              	.LVL43:
 606 0102 FFF7FEFF 		bl	chHeapFree
 607              	.LVL44:
 608              		.loc 1 112 0
 609 0106 6946     		mov	r1, sp
 610 0108 5048     		ldr	r0, .L8
 611 010a FFF7FEFF 		bl	chHeapStatus
 612              	.LVL45:
 613 010e 831E     		subs	r3, r0, #2
 614 0110 5942     		rsbs	r1, r3, #0
 615 0112 5941     		adcs	r1, r1, r3
 616 0114 0520     		movs	r0, #5
 617 0116 FFF7FEFF 		bl	_test_assert
 618              	.LVL46:
 619 011a 0028     		cmp	r0, #0
 620 011c 85D1     		bne	.L1
 621              		.loc 1 113 0
 622 011e 1021     		movs	r1, #16
 623 0120 4A48     		ldr	r0, .L8
 624 0122 FFF7FEFF 		bl	chHeapAlloc
 625              	.LVL47:
 626              		.loc 1 116 0
 627 0126 6946     		mov	r1, sp
 628              		.loc 1 113 0
 629 0128 0446     		mov	r4, r0
 630              	.LVL48:
ARM GAS  /tmp/ccLrMnFS.s 			page 36


 631              		.loc 1 116 0
 632 012a 4848     		ldr	r0, .L8
 633              	.LVL49:
 634 012c FFF7FEFF 		bl	chHeapStatus
 635              	.LVL50:
 636 0130 0128     		cmp	r0, #1
 637 0132 00F08980 		beq	.L5
 638              		.loc 1 116 0 is_stmt 0 discriminator 2
 639 0136 6946     		mov	r1, sp
 640 0138 4448     		ldr	r0, .L8
 641 013a FFF7FEFF 		bl	chHeapStatus
 642              	.LVL51:
 643 013e 0238     		subs	r0, r0, #2
 644 0140 4242     		rsbs	r2, r0, #0
 645 0142 52EB0001 		adcs	r1, r2, r0
 646              	.L3:
 647              		.loc 1 116 0 discriminator 4
 648 0146 0620     		movs	r0, #6
 649 0148 FFF7FEFF 		bl	_test_assert
 650              	.LVL52:
 651 014c 0028     		cmp	r0, #0
 652 014e 7FF46CAF 		bne	.L1
 653              		.loc 1 118 0 is_stmt 1
 654 0152 2846     		mov	r0, r5
 655 0154 FFF7FEFF 		bl	chHeapFree
 656              	.LVL53:
 657              		.loc 1 119 0
 658 0158 2046     		mov	r0, r4
 659 015a FFF7FEFF 		bl	chHeapFree
 660              	.LVL54:
 661              		.loc 1 120 0
 662 015e 6946     		mov	r1, sp
 663 0160 3A48     		ldr	r0, .L8
 664 0162 FFF7FEFF 		bl	chHeapStatus
 665              	.LVL55:
 666 0166 B0F1010C 		subs	ip, r0, #1
 667 016a DCF10003 		rsbs	r3, ip, #0
 668 016e 53EB0C01 		adcs	r1, r3, ip
 669 0172 0720     		movs	r0, #7
 670 0174 FFF7FEFF 		bl	_test_assert
 671              	.LVL56:
 672 0178 0028     		cmp	r0, #0
 673 017a 7FF456AF 		bne	.L1
 674              		.loc 1 123 0
 675 017e 1021     		movs	r1, #16
 676 0180 3248     		ldr	r0, .L8
 677 0182 FFF7FEFF 		bl	chHeapAlloc
 678              	.LVL57:
 679              		.loc 1 124 0
 680 0186 1021     		movs	r1, #16
 681              		.loc 1 123 0
 682 0188 0546     		mov	r5, r0
 683              	.LVL58:
 684              		.loc 1 124 0
 685 018a 3048     		ldr	r0, .L8
 686              	.LVL59:
 687 018c FFF7FEFF 		bl	chHeapAlloc
ARM GAS  /tmp/ccLrMnFS.s 			page 37


 688              	.LVL60:
 689 0190 0446     		mov	r4, r0
 690              	.LVL61:
 691              		.loc 1 125 0
 692 0192 2846     		mov	r0, r5
 693              	.LVL62:
 694 0194 FFF7FEFF 		bl	chHeapFree
 695              	.LVL63:
 696              		.loc 1 126 0
 697 0198 6946     		mov	r1, sp
 698 019a 2C48     		ldr	r0, .L8
 699 019c FFF7FEFF 		bl	chHeapStatus
 700              	.LVL64:
 701 01a0 B0F1020E 		subs	lr, r0, #2
 702 01a4 DEF10001 		rsbs	r1, lr, #0
 703 01a8 51EB0E01 		adcs	r1, r1, lr
 704 01ac 0820     		movs	r0, #8
 705 01ae FFF7FEFF 		bl	_test_assert
 706              	.LVL65:
 707 01b2 0028     		cmp	r0, #0
 708 01b4 7FF439AF 		bne	.L1
 709              		.loc 1 127 0
 710 01b8 2021     		movs	r1, #32
 711 01ba 2448     		ldr	r0, .L8
 712 01bc FFF7FEFF 		bl	chHeapAlloc
 713              	.LVL66:
 714              		.loc 1 128 0
 715 01c0 FFF7FEFF 		bl	chHeapFree
 716              	.LVL67:
 717              		.loc 1 129 0
 718 01c4 2046     		mov	r0, r4
 719 01c6 FFF7FEFF 		bl	chHeapFree
 720              	.LVL68:
 721              		.loc 1 130 0
 722 01ca 6946     		mov	r1, sp
 723 01cc 1F48     		ldr	r0, .L8
 724 01ce FFF7FEFF 		bl	chHeapStatus
 725              	.LVL69:
 726 01d2 0138     		subs	r0, r0, #1
 727 01d4 4242     		rsbs	r2, r0, #0
 728 01d6 52EB0001 		adcs	r1, r2, r0
 729 01da 0920     		movs	r0, #9
 730 01dc FFF7FEFF 		bl	_test_assert
 731              	.LVL70:
 732 01e0 0028     		cmp	r0, #0
 733 01e2 7FF422AF 		bne	.L1
 734              		.loc 1 133 0
 735 01e6 6946     		mov	r1, sp
 736 01e8 1848     		ldr	r0, .L8
 737 01ea FFF7FEFF 		bl	chHeapStatus
 738              	.LVL71:
 739              		.loc 1 134 0
 740 01ee 0099     		ldr	r1, [sp, #0]
 741 01f0 1648     		ldr	r0, .L8
 742 01f2 FFF7FEFF 		bl	chHeapAlloc
 743              	.LVL72:
 744              		.loc 1 135 0
ARM GAS  /tmp/ccLrMnFS.s 			page 38


 745 01f6 6946     		mov	r1, sp
 746              		.loc 1 134 0
 747 01f8 0446     		mov	r4, r0
 748              	.LVL73:
 749              		.loc 1 135 0
 750 01fa 1448     		ldr	r0, .L8
 751              	.LVL74:
 752 01fc FFF7FEFF 		bl	chHeapStatus
 753              	.LVL75:
 754 0200 D0F10101 		rsbs	r1, r0, #1
 755 0204 38BF     		it	cc
 756 0206 0021     		movcc	r1, #0
 757 0208 0A20     		movs	r0, #10
 758 020a FFF7FEFF 		bl	_test_assert
 759              	.LVL76:
 760 020e 0028     		cmp	r0, #0
 761 0210 7FF40BAF 		bne	.L1
 762              		.loc 1 136 0
 763 0214 2046     		mov	r0, r4
 764 0216 FFF7FEFF 		bl	chHeapFree
 765              	.LVL77:
 766              		.loc 1 138 0
 767 021a 6946     		mov	r1, sp
 768 021c 0B48     		ldr	r0, .L8
 769 021e FFF7FEFF 		bl	chHeapStatus
 770              	.LVL78:
 771 0222 431E     		subs	r3, r0, #1
 772 0224 5942     		rsbs	r1, r3, #0
 773 0226 5941     		adcs	r1, r1, r3
 774 0228 0B20     		movs	r0, #11
 775 022a FFF7FEFF 		bl	_test_assert
 776              	.LVL79:
 777 022e 0028     		cmp	r0, #0
 778 0230 7FF4FBAE 		bne	.L1
 779              	.LVL80:
 780              		.loc 1 139 0
 781 0234 9DE80A00 		ldmia	sp, {r1, r3}
 782 0238 0C20     		movs	r0, #12
 783 023a CA1A     		subs	r2, r1, r3
 784              	.LVL81:
 785 023c 5342     		rsbs	r3, r2, #0
 786 023e 53EB0201 		adcs	r1, r3, r2
 787              	.LVL82:
 788 0242 FFF7FEFF 		bl	_test_assert
 789              	.LVL83:
 790 0246 F0E6     		b	.L1
 791              	.LVL84:
 792              	.L5:
 793              		.loc 1 116 0
 794 0248 0146     		mov	r1, r0
 795 024a 7CE7     		b	.L3
 796              	.L9:
 797              		.align	2
 798              	.L8:
 799 024c 00000000 		.word	.LANCHOR0
 800              		.cfi_endproc
 801              	.LFE171:
ARM GAS  /tmp/ccLrMnFS.s 			page 39


 802              		.size	heap1_execute, .-heap1_execute
 803              		.section	.text.heap1_setup,"ax",%progbits
 804              		.align	2
 805              		.p2align 4,,15
 806              		.thumb
 807              		.thumb_func
 808              		.type	heap1_setup, %function
 809              	heap1_setup:
 810              	.LFB170:
 811              		.loc 1 64 0
 812              		.cfi_startproc
 813              		@ args = 0, pretend = 0, frame = 0
 814              		@ frame_needed = 0, uses_anonymous_args = 0
 815              		@ link register save eliminated.
 816              		.loc 1 66 0
 817 0000 40F20000 		movw	r0, #:lower16:.LANCHOR0
 818 0004 40F20001 		movw	r1, #:lower16:test
 819 0008 C0F20000 		movt	r0, #:upper16:.LANCHOR0
 820 000c C0F20001 		movt	r1, #:upper16:test
 821 0010 4FF4CD62 		mov	r2, #1640
 822              		.loc 1 67 0
 823              		.loc 1 66 0
 824 0014 FFF7FEBF 		b	chHeapObjectInit
 825              	.LVL85:
 826              		.cfi_endproc
 827              	.LFE170:
 828              		.size	heap1_setup, .-heap1_setup
 829              		.global	patternheap
 830              		.global	testheap1
 831 0018 AFF30080 		.section	.rodata.patternheap,"a",%progbits
 831      AFF30080 
 832              		.align	2
 833              		.type	patternheap, %object
 834              		.size	patternheap, 8
 835              	patternheap:
 836 0000 00000000 		.word	testheap1
 837 0004 00000000 		.word	0
 838              		.section	.rodata.str1.4,"aMS",%progbits,1
 839              		.align	2
 840              	.LC0:
 841 0000 48656170 		.ascii	"Heap, allocation and fragmentation test\000"
 841      2C20616C 
 841      6C6F6361 
 841      74696F6E 
 841      20616E64 
 842              		.section	.rodata.testheap1,"a",%progbits
 843              		.align	2
 844              		.type	testheap1, %object
 845              		.size	testheap1, 16
 846              	testheap1:
 847 0000 00000000 		.word	.LC0
 848 0004 00000000 		.word	heap1_setup
 849 0008 00000000 		.word	0
 850 000c 00000000 		.word	heap1_execute
 851              		.section	.bss.test_heap,"aw",%nobits
 852              		.align	3
 853              		.set	.LANCHOR0,. + 0
ARM GAS  /tmp/ccLrMnFS.s 			page 40


 854              		.type	test_heap, %object
 855              		.size	test_heap, 32
 856              	test_heap:
 857 0000 00000000 		.space	32
 857      00000000 
 857      00000000 
 857      00000000 
 857      00000000 
 858              		.text
 859              	.Letext0:
 860              		.file 2 "/home/laurence/ARM-GCC/bin/../lib/gcc/arm-none-eabi/4.7.4/include/stddef.h"
 861              		.file 3 "/home/laurence/ARM-GCC/bin/../lib/gcc/arm-none-eabi/4.7.4/../../../../arm-none-eabi/inclu
 862              		.file 4 "../ChibiOS/os/rt/ports/ARMCMx/compilers/GCC/chtypes.h"
 863              		.file 5 "../ChibiOS/os/rt/include/chsystypes.h"
 864              		.file 6 "../ChibiOS/os/rt/include/chschd.h"
 865              		.file 7 "../ChibiOS/os/rt/ports/ARMCMx/chcore.h"
 866              		.file 8 "../ChibiOS/os/rt/ports/ARMCMx/chcore_v7m.h"
 867              		.file 9 "../ChibiOS/os/rt/include/chtm.h"
 868              		.file 10 "../ChibiOS/os/rt/include/chmtx.h"
 869              		.file 11 "../ChibiOS/os/rt/include/chmemcore.h"
 870              		.file 12 "../ChibiOS/os/rt/include/chheap.h"
 871              		.file 13 "../ChibiOS/test/rt/test.h"
 872              		.file 14 "../ChibiOS/os/ext/CMSIS/include/core_cm3.h"