ARM GAS  /tmp/cc7Xh41j.s 			page 1


   1              		.syntax unified
   2              		.cpu cortex-m3
   3              		.fpu softvfp
   4              		.eabi_attribute 20, 1
   5              		.eabi_attribute 21, 1
   6              		.eabi_attribute 23, 3
   7              		.eabi_attribute 24, 1
   8              		.eabi_attribute 25, 1
   9              		.eabi_attribute 26, 1
  10              		.eabi_attribute 30, 2
  11              		.eabi_attribute 34, 1
  12              		.eabi_attribute 18, 4
  13              		.thumb
  14              		.file	"testmsg.c"
  15              		.text
  16              	.Ltext0:
  17              		.section	.gnu.lto_.jmpfuncs.71cb4bdd77e25612,"",%progbits
  18 0000 789C6362 		.ascii	"x\234cb`d`g\300\016z\201X\031\210\231\200\210I\222!"
  18      60646067 
  18      C00E7A81 
  18      58198899 
  18      80884992 
  19 0015 959101A8 		.ascii	"\225\221\001\250\230\251\212\341g\203D*##\243\034\003"
  19      98A98AE1 
  19      6783442A 
  19      2323A31C 
  19      03
  20 0026 E3DC8619 		.ascii	"\343\334\206\031\016\251\214L\014\267v<\006J\202d\321"
  20      0EA98C4C 
  20      0CB7763C 
  20      064A8264 
  20      D1
  21 0037 485606A8 		.ascii	"HV\006\250\306\023 C@Z9R\031\231\031\343\031\031\256"
  21      C6132043 
  21      405A3952 
  21      199919E3 
  21      1919AE
  22 004a CC5C0652 		.ascii	"\314\\\006R\300\300\310\310\304\002\244J\300\352X\030"
  22      C0C0C8C8 
  22      C402A44A 
  22      C0EA5818 
  23 005a 9C1950B8 		.ascii	"\234\031P\270N\250\\G\006\006\026G'g\006Y==}\347\214"
  23      4EA85C47 
  23      06061647 
  23      27670659 
  23      3D3D7DE7 
  24 006f CCA44CFF 		.ascii	"\314\244L\377`\375\222\324\342\022\375\242\0220\235"
  24      60FD92D4 
  24      E212FDA2 
  24      12309D
  25 007e 5B9CAE97 		.ascii	"[\234\256\227\314\000\000!\034\035`"
  25      CC000021 
  25      1C1D60
  26              		.text
  27              		.section	.gnu.lto_.inline.71cb4bdd77e25612,"",%progbits
  28 0000 789C6362 		.ascii	"x\234cb`d\340e\300\016z\2414\023\003\203V\017##\003"
  28      6064E065 
ARM GAS  /tmp/cc7Xh41j.s 			page 2


  28      C00E7AA1 
  28      34130383 
  28      560F2323 
  29 0015 9340432D 		.ascii	"\223@C-\003\333\002y&\006f\036\260(\0237\003\003\343"
  29      03DB0279 
  29      2606661E 
  29      B0281337 
  29      0303E3
  30 0028 043F306F 		.ascii	"\004?0o\202\337\004?\020\237\004Av\001\006\006\326\011"
  30      82DF043F 
  30      109F0441 
  30      76010606 
  30      D609
  31 003a 7E0C60C4 		.ascii	"~\014`\304\310\300\243\306\0102\024\311\006\240\004"
  31      C8C0A3C6 
  31      083214C9 
  31      06A004
  32 0049 3ACD0000 		.ascii	":\315\000\000.\313\022\021"
  32      2ECB1211 
  33              		.text
  34              		.section	.gnu.lto_.pureconst.71cb4bdd77e25612,"",%progbits
  35 0000 789C6362 		.ascii	"x\234cb`d`f```e\200\000&\006IF\011\000\0015\000@"
  35      60646066 
  35      60606065 
  35      80002606 
  35      49460900 
  36              		.text
  37              		.section	.gnu.lto_msg1_execute.71cb4bdd77e25612,"",%progbits
  38 0000 789CAD55 		.ascii	"x\234\255U\317O\023A\024~of\267\264\264V\374\201\026"
  38      CF4F1341 
  38      147E6F66 
  38      B7B4B456 
  38      FC8116
  39 0013 A4502A26 		.ascii	"\244P*&F\223\366_P\271\350\311\240\361bR\210\226\325"
  39      4693F65F 
  39      50B9E8C9 
  39      A0F16252 
  39      8896D5
  40 0026 365131B4 		.ascii	"6Q1\264z\360`K\361\246\007bb\322\226\220\210(\001\022"
  40      7AF0604B 
  40      F1A60762 
  40      62D29690 
  40      88280112 
  41 003a 8D27633C 		.ascii	"\215'c<\240Q\202\204\020N\0341\222\300A\215\007\017"
  41      A0518284 
  41      104E1C31 
  41      92C0418D 
  41      070F
  42 004c C6C48404 		.ascii	"\306\304\204\004\337\314\316\226\226n\2665a\011|\263"
  42      DFCCCE96 
  42      966EB635 
  42      61097CB3 
  43 005c BBEF7BEF 		.ascii	"\273\357{\357{\337\233\035\030 \375T_-\364\373\306\015"
  43      7BDF9B1D 
  43      1820FD54 
  43      5F2DF4FB 
  43      C60D
ARM GAS  /tmp/cc7Xh41j.s 			page 3


  44 006e 9022440E 		.ascii	"\220\"D\016\310F\226\001\206B\014Q,\210\222a\230\271"
  44      C8469601 
  44      86420C51 
  44      2C889261 
  44      98B9
  45 0080 2499EE30 		.ascii	"$\231\3560\214g\263\217G>\345\316\346\326\266\266:\014"
  45      8C67B38F 
  45      473EE5CE 
  45      E6D6B6B6 
  45      3A0C
  46 0092 F1B40F61 		.ascii	"\361\264\017a\261\270\336\325\002\006\"\204@ \003\255"
  46      B1B8DED5 
  46      02062284 
  46      402003AD 
  47 00a2 B246158F 		.ascii	"\262F\025\217K\036\374\037I\253\233\364\353c.\240H\272"
  47      4B1EFC1F 
  47      49AB9BF4 
  47      EB632EA0 
  47      48BA
  48 00b4 246D1666 		.ascii	"$m\026f\320\344\271\025\017m\213\015gK\305\030\204P"
  48      D0E4B915 
  48      0F6D8B0D 
  48      674BC518 
  48      8450
  49 00c6 5037F277 		.ascii	"P7\362wkW\034)c\272\030\034\225\314\237\371k\265\231"
  49      6B571C29 
  49      63BA181C 
  49      95CC9FF9 
  49      6BB599
  50 00d9 C5B2061B 		.ascii	"\305\262\006\033\244\326\325z\012\026\253|\231\375\361"
  50      A4D6D57A 
  50      0A16AB7C 
  50      99FDF1
  51 00e8 75933912 		.ascii	"u\2239\022\027\037Nt-\215\272\336\263\017k[\031\200"
  51      171F4E74 
  51      2D8DBADE 
  51      B30F6B5B 
  51      1980
  52 00fa E308317C 		.ascii	"\343\0101|\212a\340\204\343\204:\3413B\027\341sB7\341"
  52      8A61E084 
  52      E3843AE1 
  52      334217E1 
  52      734237E1 
  53 010e 04A147DD 		.ascii	"\004\241G\335{\325\275O\335\373\325}\220p\232\260\235"
  53      7BD5BD4F 
  53      DDFBD57D 
  53      90709AB0 
  53      9D
  54 011f 708A3044 		.ascii	"p\2120D8I\330\2510\254\220.\035\036d\263M\314\344\233"
  54      3849D8A9 
  54      30AC902E 
  54      1D1E64B3 
  54      4DCCE49B 
  55 0133 4FFBD424 		.ascii	"O\373\324$z\004\212-w\201\224\213\005_\204\\\357Ja\222"
  55      7A048A2D 
  55      7781948B 
  55      055F845C 
ARM GAS  /tmp/cc7Xh41j.s 			page 4


  55      EF4A6192 
  56 0147 A267688C 		.ascii	"\242gh\214q\304(\274\3126\031\350\326\212P\030\242\205"
  56      71C428BC 
  56      CA3619E8 
  56      D68A5018 
  56      A285
  57 0159 87DD83BF 		.ascii	"\207\335\203\277\331\200\201\215\23047\267\350\273Q"
  57      D980818D 
  57      983437B7 
  57      E8BB51
  58 0168 EE5A73ED 		.ascii	"\356Zs\355\2554\000r\227g\337}i3U\200-\230\305\354\256"
  58      AD340072 
  58      9767DF7D 
  58      69335580 
  58      2D98C5EC 
  59 017d 38064FC2 		.ascii	"8\006O\302\011\262\233K\360qR\201\006\356\221\"\334"
  59      09B29B4B 
  59      F0715281 
  59      06EE9122 
  59      DC
  60 018e 06FA4904 		.ascii	"\006\372I\004Z\205\375JD\257\370\263\300\345\212\226"
  60      5A85FD4A 
  60      44AFF8B3 
  60      C0E58A96 
  61 019e 537A49C8 		.ascii	"SzI\310\334[\177\014_\313\306\332e\302\006\225p/\243"
  61      DC5B7F0C 
  61      5FCBC6DA 
  61      65C20695 
  61      702FA3
  62 01b1 4A228756 		.ascii	"J\"\207V\312A\206\344\033\024s8#>7\313\023Nl\021\313"
  62      CA4186E4 
  62      1B147338 
  62      233E37CB 
  62      134E6C11 
  63 01c6 65E41204 		.ascii	"e\344\022\004\300z\243+YM\330g\312\022\035\310\217`"
  63      C07AA32B 
  63      594DD867 
  63      CA121DC8 
  63      8F60
  64 01d8 1F2C3041 		.ascii	"\037,0AU\001\373)\200\251\006\015< \325\235\373\306"
  64      5501FB29 
  64      80A9060D 
  64      3C20D59D 
  64      FBC6
  65 01ea CD3C5188 		.ascii	"\315<Q\210\220\020\315Tv\320j\265\231ZeV\253\3156~O"
  65      9010CD54 
  65      76D06AB5 
  65      995A6556 
  65      ABCD367E 
  66 01ff 71994F17 		.ascii	"q\231O\027\222\370F\241\325\022\345R\011\016QMn\212"
  66      92F846A1 
  66      D512E552 
  66      090E514D 
  66      6E8A
  67 0211 32F030C0 		.ascii	"2\3600\300<0%\334\334\032\024Y\376\260\372\353\214\341"
  67      3C3025DC 
  67      DC1A1459 
ARM GAS  /tmp/cc7Xh41j.s 			page 5


  67      FEB0FAEB 
  67      8CE1
  68 0223 0B125DC7 		.ascii	"\013\022]\307\327\"3\011\277\377<z\362\231W\314\032"
  68      D7223309 
  68      BFFF3C7A 
  68      F29957CC 
  68      1A
  69 0234 63382BB7 		.ascii	"c8+\267a\345\304\343\030\222\363p\225\315\303U9\017"
  69      61E5C4E3 
  69      1892F370 
  69      95CDC355 
  69      390F
  70 0246 AE662A35 		.ascii	"\256f*5.\216\255sK\273\332\346\324\265\376\273p\337"
  70      2E8EAD73 
  70      4BBBDAE6 
  70      D4B5FEBB 
  70      70DF
  71 0258 CAAC9A0E 		.ascii	"\312\254\232\016P\323\2325\011\027\2251h\034B\333w."
  71      50D39A35 
  71      09179531 
  71      681C42DB 
  71      772E
  72 026a CE27CB23 		.ascii	"\316'\313#7\275\021\0314\330\301o%\276n\361\351\376"
  72      37BD1119 
  72      34D8C16F 
  72      25BE6EF1 
  72      E9FE
  73 027c 887477AE 		.ascii	"\210tw\256Xr\327S\267\273\236]s\327\343\340\356\274"
  73      5872D753 
  73      B7BB9E5D 
  73      73D7E3E0 
  73      EEBC
  74 028e ADBB9D55 		.ascii	"\255\273\235U\356z\234\334\235\266uw\245\350\350\256"
  74      EE7A9CDC 
  74      9DB67577 
  74      A5E8E8AE 
  75 029e 87CA6CBB 		.ascii	"\207\312l\273\273Z\334v\327Koj\273\353\265\334\335\330"
  75      BB5ADC76 
  75      D74B6F6A 
  75      BBEBB5DC 
  75      DDD8
  76 02b0 76D757B7 		.ascii	"v\327W\267\273\276]s\327\347\340\356\262\255\273\341"
  76      BBBE5D73 
  76      D7E7E0EE 
  76      B2ADBBE1 
  77 02c0 2A777D4E 		.ascii	"*w}N\356\276\264\337\273\316\356\372\250L\331\336-s"
  77      EEBEB4DF 
  77      BBCEEEFA 
  77      A84CD9DE 
  77      2D73
  78 02d2 D71F1749 		.ascii	"\327\037\027Ij\271\353W\356\352s\243\376\035qm\024\347"
  78      6AB9EB57 
  78      EEEA73A3 
  78      FE1D716D 
  78      14E7
  79 02e4 32E3CCA3 		.ascii	"2\343\314\243\012A\235\361Al\207\201\261l\376\224A\013"
  79      0A419DF1 
ARM GAS  /tmp/cc7Xh41j.s 			page 6


  79      416C8781 
  79      B16CFE94 
  79      410B
  80 02f6 D3FC0E80 		.ascii	"\323\374\016\200e\300\035&\364\210\303\216\376}\210"
  80      65C01D26 
  80      F488C38E 
  80      FE7D88
  81 0305 232D1889 		.ascii	"#-\030\211D\273\023\311\253\311\363\027\243i#\225\216"
  81      44BB13C9 
  81      ABC9F317 
  81      A3692395 
  81      8E
  82 0316 0EA625DE 		.ascii	"\016\246%\336L]\217\304\201\245osZ\035+\013\032H\211"
  82      4C5D8FC4 
  82      81A56F73 
  82      5A1D2B0B 
  82      1A4889
  83 0329 90E4ADF8 		.ascii	"\220\344\255\370\215;\375F4\236H'\006\215+\375\251H"
  83      8D3BFD46 
  83      349E4827 
  83      068D2BFD 
  83      A948
  84 033b 023A1DA2 		.ascii	"\002:\035\242D\272\004h\247\317t\303?\372H\307\203"
  84      44BA0468 
  84      A7CF74C3 
  84      3FFA48C7 
  84      83
  85              		.text
  86              		.section	.gnu.lto_thread.71cb4bdd77e25612,"",%progbits
  87 0000 789C6362 		.ascii	"x\234cb`\004BL \011\304\312@\011E \315\310\314\300\310"
  87      6004424C 
  87      2009C4CA 
  87      40094520 
  87      CDC8CCC0 
  88 0015 34E11C03 		.ascii	"4\341\034\003C\243\002\023##\210\001\324R\317\304X\037"
  88      43A30213 
  88      23238801 
  88      D452CFC4 
  88      581F
  89 0027 0AD179EA 		.ascii	"\012\321y\352\367/\30633\330\3663\035x\360\277^\205"
  89      F72FC633 
  89      33D8F633 
  89      1D78F0BF 
  89      5E85
  90 0039 617143C3 		.ascii	"aqC\303\244\011\315\015\036\251\214\014L\014\012\214"
  90      A409CD0D 
  90      1EA98C0C 
  90      4C0C0A8C 
  91 0049 0CF18C0C 		.ascii	"\014\361\214\014w\276\363I2\244222(0\200h&\006\026\220"
  91      77BEF349 
  91      32A43232 
  91      32283080 
  91      68260616 
  92 005e 3EA00206 		.ascii	">\240\002\006vF\306X\306\005\214* >+CKC\203\000H=\030"
  92      7646C658 
  92      C6058C2A 
  92      203E2B43 
ARM GAS  /tmp/cc7Xh41j.s 			page 7


  92      4B438300 
  93 0075 04826890 		.ascii	"\004\202h\220mA@\015 \006\363\031\006\3267\323\331c"
  93      6D41400D 
  93      2006F319 
  93      06D637D3 
  93      D963
  94 0087 191731B2 		.ascii	"\031\0271\262\002\245\252\030~6p\244223\30632B\264$"
  94      02A5AA18 
  94      7E3670A4 
  94      323233C6 
  94      333242B4 
  95 009c 3332828C 		.ascii	"32\202\214gap\004\222@%@\365_\210Q\356\004W\376\207"
  95      67617004 
  95      92402540 
  95      F55F8851 
  95      EE0457FE 
  96 00b1 18E5CE10 		.ascii	"\030\345\316\020\345\347\030\030\217\314\340\203\250"
  96      E5E71818 
  96      8FCCE083 
  96      A8
  97 00be 8748C040 		.ascii	"\207H\300@ H\007\320\301@g3\310\352\351\351;gd&e\372"
  97      204807D0 
  97      C1406733 
  97      C8EAE9E9 
  97      3B676426 
  98 00d4 07EB97A4 		.ascii	"\007\353\227\244\026\227\350\027\225\200\351\334\342"
  98      1697E817 
  98      9580E9DC 
  98      E2
  99 00e1 74BD6406 		.ascii	"t\275d\006\306\002\000\362\004B;"
  99      C60200F2 
  99      04423B
 100              		.text
 101              		.section	.gnu.lto_.cgraph.71cb4bdd77e25612,"",%progbits
 102 0000 789C3D8E 		.ascii	"x\234=\216;\012\002A\020\005\337\233\331\3171<\233'"
 102      3B0A0241 
 102      1005DF9B 
 102      D9CF313C 
 102      9B27
 103 0012 E9850545 		.ascii	"\351\205\005E\027\324\003\230m\246\201\370\301\013L"
 103      17D40398 
 103      6DA681F8 
 103      C10B4C
 104 0021 BE273050 		.ascii	"\276'0PL=\203\3303\264\335IQ\025<:\200\210\000\036\260"
 104      4C3D83D8 
 104      33B4DD49 
 104      51153C3A 
 104      8088001E 
 105 0036 0B470AB1 		.ascii	"\013G\012\261\233 \262_\315\303\201\0027\336(\241X\327"
 105      9B20B25F 
 105      CDC38102 
 105      37DE28A1 
 105      58D7
 106 0048 91574A74 		.ascii	"\221WJt\271P*\2273\245v9Q\032\227;\245\375KD\203\376"
 106      B9502A97 
 106      33A57639 
 106      511A973B 
ARM GAS  /tmp/cc7Xh41j.s 			page 8


 106      A5FD4B44 
 107 005e F555D648 		.ascii	"\365U\326H\205\025\336\213\317,\352C\3432S{\241\366"
 107      8515DE8B 
 107      CF2CEA43 
 107      E332537B 
 107      A1F6
 108 0070 B5F5C1FA 		.ascii	"\265\365\301\372`}c}\233\031\2202\331\242\177\352\236"
 108      607D637D 
 108      9B199032 
 108      D9A27FEA 
 108      9E
 109 0081 72342625 		.ascii	"r4&%~\327OE\235"
 109      7ED74F45 
 109      9D
 110              		.text
 111              		.section	.gnu.lto_.vars.71cb4bdd77e25612,"",%progbits
 112 0000 789C25C4 		.ascii	"x\234%\304\301\015\000 \010\004\301=\220:,\225\206\324"
 112      C10D0020 
 112      0804C13D 
 112      903A2C95 
 112      86D4
 113 0012 F8B13F49 		.ascii	"\370\261?I\230\307\030\302\201I\213#H\236T_Y\275\345"
 113      98C718C2 
 113      81498B23 
 113      489E545F 
 113      59BDE5
 114 0025 912C8DFA 		.ascii	"\221,\215\372\003h\036\006+"
 114      03681E06 
 114      2B
 115              		.text
 116              		.section	.gnu.lto_.refs.71cb4bdd77e25612,"",%progbits
 117 0000 789C25C7 		.ascii	"x\234%\307\301\015\0000\014\302@\023\350\036\335\177"
 117      C10D0030 
 117      0CC24013 
 117      E81EDD7F 
 118 0010 CA44C2F7 		.ascii	"\312D\302\367\362 \014|Z\356\245\310C\374R\027\305\002"
 118      F2200C7C 
 118      5AEEA5C8 
 118      43FC5217 
 118      C502
 119 0022 0B82007B 		.ascii	"\013\202\000{"
 120              		.text
 121              		.section	.gnu.lto_.statics.71cb4bdd77e25612,"",%progbits
 122 0000 789C6362 		.ascii	"x\234cb`d`b\300\016@\342\214\020&\000\000\375\000\011"
 122      60646062 
 122      C00E40E2 
 122      8C102600 
 122      00FD0009 
 123              		.text
 124              		.section	.gnu.lto_.decls.71cb4bdd77e25612,"",%progbits
 125 0000 789CAD5B 		.ascii	"x\234\255[\015p\024\325\035\177\273\233\273\313\221"
 125      0D7014D5 
 125      1D7FBB9B 
 125      BBCB91
 126 000f 18408B83 		.ascii	"\030@\213\203\265\325\350\210U[rR\255b\247:\264tF\254"
 126      B5D5E888 
 126      555B7252 
ARM GAS  /tmp/cc7Xh41j.s 			page 9


 126      AD62A73A 
 126      B47446AC 
 127 0023 A59DF1A3 		.ascii	"\245\235\361\243\037\323^\257\307eI\256\346>\272\267"
 127      1FD35EAF 
 127      C76549AE 
 127      E63EBAB7 
 128 0033 81E84C67 		.ascii	"\201\350Lg\026\020\213\035?\002m\005\212-\221\017\201"
 128      16108B1D 
 128      3F026D05 
 128      8A2D910F 
 128      81
 129 0044 51234421 		.ascii	"Q#D!\210\025\202@R \025\220\204\017\011\204\322\033"
 129      88158240 
 129      52201590 
 129      840F0984 
 129      D21B
 130 0056 B41A3F89 		.ascii	"\264\032?\211(\020H\377\357\355\356\333\3676\273\267"
 130      281048FF 
 130      EFEDEEDB 
 130      F736BBB7 
 131 0066 771776F2 		.ascii	"w\027v\362\336\356\275{\377\337\373\177\277\217\275"
 131      DEEEBD7B 
 131      FFDFFB7F 
 131      BF8FBD
 132 0075 884840F8 		.ascii	"\210H@\370z\024n\203p\365\335\201\320\037\374\010I\320"
 132      7A146E83 
 132      70F5DD81 
 132      D01FFC08 
 132      49D0
 133 0087 7627149F 		.ascii	"v'\024\237Q\232\240<\007\345y(\253\221~\225BY\013e="
 133      519AA03C 
 133      07E57928 
 133      AB917E95 
 133      42590B65 
 134 009c 94D7A0BC 		.ascii	"\224\327\240\274\011\245\035\312}\200\365 \224\230\240"
 134      09A51DCA 
 134      7D80F520 
 134      9498A0
 135 00ab D3D6C23D 		.ascii	"\323\326\302=\001\345\000\224w\240|\" \356\302\364\225"
 135      01E50094 
 135      77A07C22 
 135      20EEC2F4 
 135      95
 136 00bc 50EE8252 		.ascii	"P\356\202R\001\245\034J\000\312N(\313\214\361\272\241"
 136      01A51C4A 
 136      00CA4E28 
 136      CB8CF1BA 
 136      A1
 137 00cd FC0EE8E2 		.ascii	"\374\016\350\342P\316B)\201\317\365pOB9\007e\027|\036"
 137      50CE4229 
 137      81CFF570 
 137      4F423907 
 137      65177C1E 
 138 00e1 30C6C33C 		.ascii	"0\306\303<\376\014\236\017B9\017\345\002\224\373\261"
 138      FE0C9E0F 
 138      42390FE5 
 138      0294FBB1 
ARM GAS  /tmp/cc7Xh41j.s 			page 10


 139 00f1 7C503AF0 		.ascii	"|P:\360\200\"B\333\340&\210\226\\\233\220\216\251B\237"
 139      802242DB 
 139      E0268896 
 139      5C9B908E 
 139      A9429F
 140 0104 B950BAE0 		.ascii	"\271P\272\340y\242\240\363\201\371\303\362\2545dk7d"
 140      79A2A0F3 
 140      81F9C3F2 
 140      AC35646B 
 140      3764
 141 0116 C5324B36 		.ascii	"\3052K6\371\330\013\367\367\333\344\022E]\236j\243\257"
 141      F9D80BF7 
 141      F7DBE412 
 141      455D9E6A 
 141      A3AF
 142 0128 68F48BD9 		.ascii	"h\364\213\331h\361U\206\376\244i\263\265\246\307\264"
 142      68F15586 
 142      FEA469B3 
 142      B5A6C7B4 
 143 0138 29FFAA18 		.ascii	")\377\252\030\215\0325\270\232&-\252\010\242y\270\375"
 143      8D1A35B8 
 143      9A262DAA 
 143      08A279B8 
 143      FD
 144 0149 F84A6DEC 		.ascii	"\370Jm\354X\204\256@a\001\232\300\032\370\251\034\236"
 144      5884AE40 
 144      61019AC0 
 144      1AF8A91C 
 144      9E
 145 015a 30D438B4 		.ascii	"0\3248\264B#\227\020\026\226\011A\030G\304\315\016\243"
 145      42239710 
 145      16960941 
 145      1847C4CD 
 145      0EA3
 146 016c 20BD03BE 		.ascii	" \275\003\276\256\260\236\351#V\2329D%\035\242\304\240"
 146      AEB09EE9 
 146      23569A39 
 146      44251DA2 
 146      C4A0
 147 017e 7C4E184D 		.ascii	"|N\030M\236\010K\232\301*\351\342N\263\222\031\255<"
 147      9E084B9A 
 147      C12AE9E2 
 147      4EB39219 
 147      AD3C
 148 0190 C83E4906 		.ascii	"\310>I\006G\356\264MB\231\243v.G\1775\306\327\004\225"
 148      47EEB44D 
 148      4299A376 
 148      2E477F35 
 148      C6D70495 
 149 01a4 63C60D8D 		.ascii	"c\306\015\215(\250QW\320j\242\240\200\200nBk\014\255"
 149      28A85157 
 149      D06AA2A0 
 149      80806E42 
 149      6B0CAD
 150 01b7 E96318B7 		.ascii	"\351c\030\267KP\313\341W\372\014\356\012F\177\221\240"
 150      4B50CBE1 
 150      57FA0CEE 
ARM GAS  /tmp/cc7Xh41j.s 			page 11


 150      0A467F91 
 150      A0
 151 01c8 DF2BC0D7 		.ascii	"\337+\300\327/\0107\241\346'\267\264\21775\357\017\362"
 151      2F0837A1 
 151      E627B7B4 
 151      8F3735EF 
 151      0FF2
 152 01da 9680CF7A 		.ascii	"\226\200\317z/\035\030\177\215\007\373\022\207\2460"
 152      2F1D187F 
 152      8D07FB12 
 152      87A630
 153 01e9 685E82F9 		.ascii	"h^\202\371\035\376\020@\027\003\302]\345\253\204\313"
 153      1DFE1040 
 153      1703C25D 
 153      E5AB84CB 
 154 01f9 C993447C 		.ascii	"\311\223D|\025\032\356*C \325\003\336\306z\036\214e"
 154      151AEE2A 
 154      4320D503 
 154      DEC67A1E 
 154      8C65
 155 020b B202D7D5 		.ascii	"\262\002\327\325\350\037Z\333'\215s\264)\300K@\007\026"
 155      E81F5ADB 
 155      278D73B4 
 155      29C04B40 
 155      0716
 156 021d D16B82A9 		.ascii	"\321k\202\251\230e\317~\361\271\241\360\353\320rM[\200"
 156      9865CF7E 
 156      F1B9A1F0 
 156      EBD0724D 
 156      5B80
 157 022f BB92E144 		.ascii	"\273\222\341Dt\214\364Z+\\\2156\006\\\006$=\321\365"
 157      748CF45A 
 157      2B5C8D36 
 157      065C0624 
 157      3DD1F5
 158 0242 682508DB 		.ascii	"h%\010\333\270m\366\024\335\254\310 {Or\343\223tY'\210"
 158      B86DF614 
 158      DDACC820 
 158      7B4F72E3 
 158      93745927 
 159 0257 AC167956 		.ascii	"\254\026yV9\347\012\013w\216\311!\363\006C[\226\202"
 159      39E70A0B 
 159      778EC921 
 159      F306435B 
 159      9682
 160 0269 44749C8A 		.ascii	"Dt\234\212\330\263h\2069\204\316\250\3266{,A\304\024"
 160      D8B36886 
 160      3984CEA8 
 160      D6367B2C 
 160      41C414
 161 027c EB814FDE 		.ascii	"\353\201O\336\226\255C\331:\336\3308\247i([\245\350"
 161      96AD43D9 
 161      3ADED838 
 161      A769285B 
 161      A5E8
 162 028e 8F2427CC 		.ascii	"\217$'\314\325f\011\277\317')\274.\224\002k\037\012"
 162      D56609BF 
ARM GAS  /tmp/cc7Xh41j.s 			page 12


 162      CF2729BC 
 162      2E94026B 
 162      1F0A
 163 02a0 EE5901F7 		.ascii	"\356Y\001\3670\015l<\323\307\234Ia\223\335c|\020\000"
 163      300D6C3C 
 163      D3C79C49 
 163      6193DD63 
 163      7C1000
 164 02b3 C6072E6A 		.ascii	"\306\007.j\365\024\343\016\324fE;\253Q@:EUzr\305\251"
 164      F514E30E 
 164      D466453B 
 164      AB51403A 
 164      45557A72 
 165 02c9 F6B13CE3 		.ascii	"\366\261<\343[\363\326\232\2071\267\331\005\301\354"
 165      5BF3D69A 
 165      8731B7D9 
 165      05C1EC
 166 02d8 0A1C232B 		.ascii	"\012\034#+D\223\221\376\257\362\\\354\270X\\t\360\\"
 166      449391FE 
 166      AFF25CEC 
 166      B8585C74 
 166      F05C
 167 02ea 701ABC14 		.ascii	"p\032\274\024\315\3078\225l&j*\241\020?D|*\332%\\\012"
 167      CDC73895 
 167      6C266A2A 
 167      A1103F44 
 167      7C2ADA25 
 168 0300 20AF529E 		.ascii	" \257R\236O\257\032\3546d\311\003IDYB\371o@\321\351"
 168      4FAF1AEC 
 168      3664C903 
 168      49445942 
 168      F96F40D1 
 169 0315 5987C2AD 		.ascii	"Y\207\302\255\310h?\333|~7g\024\343\272\364\032\324"
 169      C8683FDB 
 169      7C7E3767 
 169      14E3BAF4 
 169      1AD4
 170 0327 04CCE3C0 		.ascii	"\004\314\343\300\362\207\205\235\002\016\355\371\222"
 170      F287859D 
 170      020EEDF9 
 170      92
 171 0334 8939F0F2 		.ascii	"\2119\360\362\373\202\263\032\254\251\302\364\302\012"
 171      FB82B31A 
 171      ACA9C2F4 
 171      C20A
 172 0342 2B713A60 		.ascii	"+q:`.\242\230\235\023\013A\254\034\202h\314\265\371"
 172      2EA2989D 
 172      130B41AC 
 172      1C8268CC 
 172      B5F9
 173 0354 67FB6E92 		.ascii	"g\373n\222\355\227J\246\212[v\3623G!X\207\010\326*\311"
 173      ED974AA6 
 173      8A5B76F2 
 173      33472158 
 173      8708D62A 
 174 0369 9A3AF6B5 		.ascii	"\232:\366\265\207L\377\012\330\246\216\000\237\367\003"
 174      874CFF0A 
ARM GAS  /tmp/cc7Xh41j.s 			page 13


 174      D8A68E00 
 174      9FF703
 175 0378 74660D18 		.ascii	"tf\015\030Y~$*\234@Dk\251*\3176/|\353\216\334\332\264"
 175      597E242A 
 175      9C40446B 
 175      A92ACF36 
 175      2F7CEB8E 
 176 038f 1286DD3E 		.ascii	"\022\206\335>\032\321\246\341dM~w\371E\324JF<\352\350"
 176      1AD1A6E1 
 176      644D7E77 
 176      F945D44A 
 176      463CEAE8 
 177 03a3 64471927 		.ascii	"dG\031'\273\320\372\212\243\223\011\214\371\274\203"
 177      BBD0FA8A 
 177      A393098C 
 177      F9BC83
 178 03b2 45A4A35F 		.ascii	"E\244\243_GF\177\227\214~\302q\364\023\314\350\315["
 178      47467F97 
 178      8C7EC271 
 178      F413CCE8 
 178      CD5B
 179 03c4 0E8F7418 		.ascii	"\016\217t\030<\3506x\216 gM~\222\370\357\322\022\201"
 179      3CE83678 
 179      8E20674D 
 179      7E92F8EF 
 179      D21281
 180 03d7 0AB964D7 		.ascii	"\012\271d\327\325\246\305\356*c\207\"\237\231\371UD"
 180      D5A6C5EE 
 180      2A638722 
 180      9F99F955 
 180      44
 181 03e8 AB4B4CDE 		.ascii	"\253KL\336\233\267,}\373\306\341\306\222\316\313\013"
 181      9BB72C7D 
 181      FBC6E1C6 
 181      92CECB0B 
 182 03f8 1474FB3D 		.ascii	"\024t\373=\303\213%\023\261\231\"vz \272\373\023\217"
 182      C38B2513 
 182      B1992276 
 182      7A20BAFB 
 182      138F
 183 040a B88E2276 		.ascii	"\270\216\"v\025\204\350\316\343\253\024\261\307\003"
 183      1584E8CE 
 183      E3AB14B1 
 183      C703
 184 0418 71549E3C 		.ascii	"qT\236<\266R\304lA\210\356<n\242\210}\036\210c\363\344"
 184      B652C46C 
 184      4188EE3C 
 184      6EA2887D 
 184      1E8863F3 
 185 042d 713345EC 		.ascii	"q3E\354/\010\321\235\3077)\342\200\007b\245\023\217"
 185      2F08D19D 
 185      C73729E2 
 185      800762A5 
 185      138F
 186 043f 437CCA3E 		.ascii	"C|\312>9\376\307Z\"\210hG\211\2319.\264\256\337\035"
 186      39FEC75A 
 186      22886847 
ARM GAS  /tmp/cc7Xh41j.s 			page 14


 186      8999392E 
 186      B4AEDF1D 
 187 0453 2AC2FF29 		.ascii	"*\302\377)\324\316\022+\355-.,\3559)C\237\226\366P\320"
 187      D4CE122B 
 187      ED2D2E2C 
 187      ED392943 
 187      9F96F650 
 188 0468 FE8D5E53 		.ascii	"\376\215^S\235\267[\351\230\007)\346\200\307T\347\345"
 188      9DB75BE9 
 188      980729E6 
 188      80C754E7 
 188      E5
 189 0479 565CBAA2 		.ascii	"V\\\272\242{\314\266\261\213\230t\311\257'\303\302r"
 189      7BCCB6B1 
 189      8B9874C9 
 189      AF27C3C2 
 189      72
 190 048a 611C1ACE 		.ascii	"a\034\032\316\376q\226\310\230\257\327R\217\207\302"
 190      FE7196C8 
 190      98AFD752 
 190      8F87C2
 191 0499 73F8F327 		.ascii	"s\370\363'\263\265\261~f\207\354\316=\233v\347\212x"
 191      B3B5B17E 
 191      6687ECCE 
 191      3D9B76E7 
 191      8A78
 192 04ab A63D49D3 		.ascii	"\246=I\323n\313b\373\254\235?\326<\202\365q\2115k\257"
 192      6ECB62FB 
 192      AC9D3FD6 
 192      3C82F571 
 192      89356BAF 
 193 04bf 3F6F2C05 		.ascii	"?o,\005\303\202`\233\265\005~\022\266\224g\352\256\260"
 193      C382609B 
 193      B5057E12 
 193      B69467EA 
 193      AEB0
 194 04d1 DE22FA82 		.ascii	"\336\"\372\202q\334S\226\343\362\354\346\021\305\305"
 194      71DC5396 
 194      E3F2ECE6 
 194      11C5C5
 195 04e0 E9F14922 		.ascii	"\351\361I\"\373\240\245\307\307\251\036u\305\024*\316"
 195      FBA0A5C7 
 195      C7A91E75 
 195      C5142ACE 
 196 04f0 1F7D9638 		.ascii	"\037}\2268\347\012\023\347\206\341\213\263\200\210\363"
 196      E70A13E7 
 196      86E18BB3 
 196      8088F3
 197 04ff B48F8AB3 		.ascii	"\264\217\212\263f\230\342,d\304\371\353\236\202\304"
 197      6698E22C 
 197      64C4F9EB 
 197      9E82C4
 198 050e B9991147 		.ascii	"\271\231\021G_M]\206\026x\255\2460[\013\305\313\320"
 198      5F4D5D86 
 198      1678ADA6 
 198      305B0BC5 
 198      CBD0
ARM GAS  /tmp/cc7Xh41j.s 			page 15


 199 0520 D0B50C6E 		.ascii	"\320\265\014n5\3272\375\233+\320\320\253\204\031\312"
 199      35D732FD 
 199      9B2BD0D0 
 199      AB8419CA 
 200 0530 3C23F907 		.ascii	"<#\371\007\341\037\323\366m9Y\364b\235\307\\I1\263S"
 200      E11FD3F6 
 200      6D3959F4 
 200      629DC75C 
 200      4931B353 
 201 0544 86BB6421 		.ascii	"\206\273d!\207\005\315\024\260g\347pw\024\005\257\331"
 201      8705CD14 
 201      B067E770 
 201      771405AF 
 201      D9
 202 0555 9B88CBAC 		.ascii	"\233\210\313\254\267\\\346\014\3432\207\354\341\237"
 202      B75CE60C 
 202      E33287EC 
 202      E19F
 203 0563 DF1A7C2B 		.ascii	"\337\032|+\025\350ls\367\333\036\271\321Q\"\343\022"
 203      15E86C73 
 203      F7DB1EB9 
 203      D15122E3 
 203      12
 204 0574 D1BFA803 		.ascii	"\321\277\250\003f\177T\304|\\\330Z\236\325\313\363\""
 204      667F54C4 
 204      7C5CD85A 
 204      9ED5CBF3 
 204      22
 205 0585 DE7A7652 		.ascii	"\336zvR\275\234^\265\270}\212\016\232\327\256\340\010"
 205      BD9C5EB5 
 205      B87D8A0E 
 205      9AD7AEE0 
 205      08
 206 0596 A15C233A 		.ascii	"\241\\#:\255\313q\253\265\365|\315sW\240\317\235aa\037"
 206      ADCB71AB 
 206      B5F57CCD 
 206      7357A0CF 
 206      9D61611F 
 207 05aa 6CD175EA 		.ascii	"l\321u\352\276\227\212r\224\241\027\313\"\324\3428|"
 207      BE978A72 
 207      94A117CB 
 207      22D4E238 
 207      7C
 208 05bb 5EF0A278 		.ascii	"^\360\242x\215e\201\017\250\005:w{\205\020o\203J\316"
 208      8D65810F 
 208      A8053A77 
 208      7B85106F 
 208      834ACE
 209 05ce 069A6503 		.ascii	"\006\232e\003nG3\211[\226\260&x\231\230\340s\306\004"
 209      6E473389 
 209      5B96B026 
 209      789998E0 
 209      73C604
 210 05e1 ADEDF7F0 		.ascii	"\255\355\367\360&\230\344\216$\242\271~L\331\342h\202"
 210      2698E48E 
 210      24A2B97E 
 210      4CD9E268 
ARM GAS  /tmp/cc7Xh41j.s 			page 16


 210      82
 211 05f2 16CE0407 		.ascii	"\026\316\004\007\035M \272\232\000Sg\233/\316\356?,"
 211      1D4D20BA 
 211      9A005367 
 211      9B2FCEEE 
 211      3F2C
 212 0604 ECA7987D 		.ascii	"\354\247\230}U\205 V\272\033\265\2051\352\253`T1,\254"
 212      55852056 
 212      BA1BB585 
 212      31EAAB60 
 212      54312CAC 
 213 0618 0771C2C2 		.ascii	"\007q\302\302\006\326\264\317\370\351Z\2141-\257F\363"
 213      06D6B4CF 
 213      F8E95A8C 
 213      312DAF46 
 213      F3
 214 0629 F9065761 		.ascii	"\371\006Wa\370\354\370\034\305\354\371qnan\366T\217"
 214      F8ECF81C 
 214      C5ECF971 
 214      6E616EF6 
 214      548F
 215 063b 9E9B5651 		.ascii	"\236\233VQ\304\316\251\205 V\016A\364\334]k\002\267"
 215      C4CEA985 
 215      20560E41 
 215      F4DC5D6B 
 215      02B7
 216 064d FA14510B 		.ascii	"\372\024Q\013\031{\263\243\013mf\\\350\304\273\353\216"
 216      197BB3A3 
 216      0B6D665C 
 216      E8C4BBEB 
 216      8E
 217 065e 39B990C4 		.ascii	"9\271\220\3048\277\351\320\357P\314\256\326\212\334"
 217      38BFE9D0 
 217      EF50CCAE 
 217      D68ADC
 218 066d 4ACFCF83 		.ascii	"J\317\317\203Dt\202Bf\017V\344\326\221\327\026\265P"
 218      44748242 
 218      660F56E4 
 218      D691D716 
 218      B550
 219 067f 1DB101DB 		.ascii	"\035\261\001\333A\344{\337o\006l\366@\231\351\220\272"
 219      41E47BDF 
 219      6F066CF6 
 219      4099E990 
 219      BA
 220 0690 B2180FDD 		.ascii	"\262\030\017\335\314xh\033x\250\024\026\266\022\017"
 220      CC78681B 
 220      78A81416 
 220      B6120F
 221 069f DD46EA1D 		.ascii	"\335F\352\035\226\237\272\257\024\332\331\325\370gT"
 221      969FBAAF 
 221      14DAD9D5 
 221      F86754
 222 06ae 07FD85E9 		.ascii	"\007\375\205\351\240\222\263\230\373ho\260\243\235\361"
 222      A092B398 
 222      FB686FB0 
 222      A39DF1
ARM GAS  /tmp/cc7Xh41j.s 			page 17


 223 06bd 5B0BA37D 		.ascii	"[\013\243}\227\345\036n\242\247\025\365C\2709\001:\327"
 223      97E51E6E 
 223      A2A715F5 
 223      43B83901 
 223      3AD7
 224 06cf BDE59569 		.ascii	"\275\345\225i'\332\230\035\212I\226\026OQ\310\256=^"
 224      27DA981D 
 224      8A499616 
 224      4F51C8AE 
 224      3D5E
 225 06e1 E96A9213 		.ascii	"\351j\222\023\233C/\366<5,\354\201\015\325\245aa\257"
 225      9B432FF6 
 225      3C352CEC 
 225      810DD5A5 
 225      6161AF
 226 06f4 808DF636 		.ascii	"\200\215\3666\251\273H\335C\352\001R_ \265F\014\373"
 226      A9BB48DD 
 226      43EA0152 
 226      5F20B546 
 226      0CFB
 227 0706 28A99F20 		.ascii	"(\251\237 \365|R?C\352\225\244n&\365FRo\"\365?I\335"
 227      F57C523F 
 227      43EA95A4 
 227      6E26F546 
 227      526F22F5 
 228 071d 49EAB7F2 		.ascii	"I\352\267\362q\212\235\374[\034\221\036\206\233\257"
 228      718A9DFC 
 228      5B1C911E 
 228      869BAF
 229 072c 5798D3F0 		.ascii	"W\230\323\360g\002t\323sz_\257\355X~\237\230\377\201"
 229      670274D3 
 229      737A5FAF 
 229      ED587E9F 
 229      98FF81
 230 073f 381ED49D 		.ascii	"8\036\324\235\245\375\342\320\227,;\350\320}\007\003"
 230      A5FDE2D0 
 230      972C3BE8 
 230      D07D0703 
 231 074f FCC05D17 		.ascii	"\374\300]\027m\340\003\342\320wa>\343C\301+\305\303"
 231      6DE003E2 
 231      D077613E 
 231      E343C12B 
 231      C5C3
 232 0761 241BEFA1 		.ascii	"$\033\357\241|o:\277\356\2033>\223i\237m\245\350\343"
 232      7C6F3ABF 
 232      EE83333E 
 232      93699F6D 
 232      A5E8E3
 233 0774 578A3EBA 		.ascii	"W\212>\272R\364\005\231\343]\312X71\216\363K\027\374"
 233      52F40599 
 233      E35DCA58 
 233      37318EF3 
 233      4B17FC
 234 0787 E2CD9BBD 		.ascii	"\342\315\233\275c\"v\370e\245&{\357\267\177v\344F\223"
 234      632276F8 
 234      65A5267B 
 234      EFB77F76 
ARM GAS  /tmp/cc7Xh41j.s 			page 18


 234      E44693
 235 079a 9BE705DB 		.ascii	"\233\347\005\333Q\244\355]\037\257\"\233\227\354\245"
 235      51A4ED5D 
 235      1FAF229B 
 235      97ECA5
 236 07a9 98D93533 		.ascii	"\230\33153x\230\023\005\230ju\316wGY\273\251Hf\317\345"
 236      78981305 
 236      986A75CE 
 236      774759BB 
 236      A94866CF 
 237 07be BC274A2D 		.ascii	"\274'J-\347\235\337{\005\317\330\273<c\327\242\347\264"
 237      E79DDF7B 
 237      05CFD8BB 
 237      3C63D7A2 
 237      E7B4
 238 07d0 B58D8D5A 		.ascii	"\265\215\215Z\323\024\355\370\340\340\325\306\313y\310"
 238      D314EDF8 
 238      E0E0D5C6 
 238      CB79C8
 239 07df EB54D56D 		.ascii	"\353T\325m\271\317|\207\036\337\232\227\205\305\035"
 239      B9CF7C87 
 239      1EDF9A97 
 239      85C51D
 240 07ee F886850F 		.ascii	"\370\206\205\017\304\321\310\371\022Q\037\345\375\344"
 240      C4D1C8F9 
 240      12511FE5 
 240      FDE4
 241 07fc 8AA5BB27 		.ascii	"\212\245\273'ZD}\026\337\230\347\343\230\347y\222\246"
 241      5A447D16 
 241      DF98E7E3 
 241      98E77992 
 241      A6
 242 080d 0D0C0E4A 		.ascii	"\015\014\016J\346l4\357\277\314\031\2156\206\362\271"
 242      E66C34EF 
 242      BFCC198D 
 242      3686F2B9 
 243 081d 1793B22E 		.ascii	"\027\223\262.\361\021\231\217>\246c\301\002\262\343"
 243      F111998F 
 243      3EA663C1 
 243      02B2E3
 244 082c BB3A785E 		.ascii	"\273:x^X\":Gh?u\234\377?\345\226\220\213\2178\315\377"
 244      58223A47 
 244      683F759C 
 244      FF3FE596 
 244      908B8F38 
 245 0842 7E8FC5EF 		.ascii	"~\217\305\357qk2\375\232\215\371\317\011\363s\203\026"
 245      716B32FD 
 245      9A8DF9CF 
 245      09F37383 
 245      16
 246 0853 F3DDED77 		.ascii	"\363\335\355w\361\314\347@\022\321\002B\371\245#\353"
 246      F1CCE740 
 246      12D10242 
 246      F9A523EB 
 247 0863 5F72AC77 		.ascii	"_r\254w\037\364b\335\\\2724Q\314\236c^\013F\375\362"
 247      1FF462DD 
 247      5CBA3451 
ARM GAS  /tmp/cc7Xh41j.s 			page 19


 247      CC9E635E 
 247      0B46FDF2 
 248 0877 9EF55653 		.ascii	"\236\365VS\314\354o\212]\272\230K\320\243\344}\341\313"
 248      CCEC6F8A 
 248      5DBA984B 
 248      D0A3E47D 
 248      E1CB
 249 0889 14B1BF20 		.ascii	"\024\261\277 \304J\007\036\365\365\325z\212\330\331"
 249      C44A071E 
 249      F5F5D57A 
 249      8AD8D9
 250 0898 7BB10E42 		.ascii	"{\261\016B\337\240\230]\221B\020\335\271\334A\021\373"
 250      DFA0985D 
 250      914210DD 
 250      B9DC4111 
 250      FB
 251 08a9 3C101DCF 		.ascii	"<\020\035\317#\207^\254\373\204\205\263\260J\203\261"
 251      23875EAC 
 251      FB8485B3 
 251      B04A83B1 
 252 08b9 CE91A9F8 		.ascii	"\316\221\251\370<\251\007I=K\302\365\034R\317\225\230"
 252      3CA90749 
 252      3D4BC2F5 
 252      1C52CF95 
 252      98
 253 08ca FDC59EA0 		.ascii	"\375\305\236\240\031=\333?\264\334\305\346\251\336\376"
 253      193DDB3F 
 253      B4DCC5E6 
 253      A9DEFE
 254 08d9 E21E3EBF 		.ascii	"\342\036>\277\245\324\345\266\350y\\\302\236\320\315"
 254      A5D4E5B6 
 254      E8795CC2 
 254      9ED0CD
 255 08e8 44CF9F3B 		.ascii	"D\317\237;~\341\036=<\020lz\011\341\023\222S\360\340"
 255      7EE11E3D 
 255      3C106C7A 
 255      09E11392 
 255      53F0E0
 256 08fb 562B78CE 		.ascii	"V+x\316\035p\012\236\222\202\336\351Y\012\371\212M\214"
 256      1D700A9E 
 256      9282DEE9 
 256      590AF98A 
 256      4D8C
 257 090d F9448CD9 		.ascii	"\371D\214\331#,1\316\330\266\300\271\220 \011\020\312"
 257      232C31CE 
 257      D8B6C0B9 
 257      90200910 
 257      CA
 258 091e BF38CAF1 		.ascii	"\2778\312\361\027N\216\327\035\345\360qn\326(a7[N1\373"
 258      174E8ED7 
 258      1DE5F071 
 258      6ED62861 
 258      375B4E31 
 259 0933 0F0F7F0B 		.ascii	"\017\017\177\013\254c\276@1\007~Y\304\026XG\324\346"
 259      AC63BE40 
 259      31077E59 
 259      C4165847 
ARM GAS  /tmp/cc7Xh41j.s 			page 20


 259      D4E6
 260 0945 68379807 		.ascii	"h7\230\007`\332c\332\015\253\031\315\214\242\000\366"
 260      60DA63DA 
 260      0DAB19CD 
 260      8CA200F6 
 261 0955 49E25909 		.ascii	"I\342Y\011g\241W\030\025\037\3516\346\240\202\261\226"
 261      67A15718 
 261      151FE936 
 261      E6A082B1 
 261      96
 262 0966 12AC3728 		.ascii	"\022\2547(V\363\223Gw\320\3034\311\266B\222\370\025"
 262      56F39347 
 262      77D0C334 
 262      C9B64292 
 262      F815
 263 0978 92445748 		.ascii	"\222DWH\022Y!I\250\320\356\"j\247j\204]\311\201;\234"
 263      12592149 
 263      A8D0EE22 
 263      6AA76A84 
 263      5DC9813B 
 264 098d 192E6A27 		.ascii	"\031.j'X\310\017@VJ\305\374\002\213\325\343\012\342"
 264      58C80F40 
 264      564AC5FC 
 264      028BD5E3 
 264      0AE2
 265 099f 147B189B 		.ascii	"\024{\030\233\364\266\033\307\343\266\265!\036\313\235"
 265      F4B61BC7 
 265      E3B6B521 
 265      1ECB9D
 266 09ae 933592E3 		.ascii	"\2235\222\343\222\305\351;\021\035b\224\267\377\300"
 266      92C5E93B 
 266      111D6294 
 266      B7FFC0
 267 09bd B05FA191 		.ascii	"\260_\241\221\375\327q\212\331\363NQ\023\307\320\213"
 267      FDD7718A 
 267      D9F34E51 
 267      13C7D08B 
 268 09cd 0D67D83C 		.ascii	"\015g\330<I\343\220/,,$\311w1\251\227\220z9\251_\220"
 268      49E3902F 
 268      2C2C24C9 
 268      7731A997 
 268      907A39A9 
 269 09e3 F2D831E1 		.ascii	"\362\3301\341\020\244\340\213$\321\310|\375\277\272"
 269      10A4E08B 
 269      24D1C87C 
 269      FDBFBA
 270 09f2 18B11D16 		.ascii	"\030\261\035\026\376F\021\267\377zx\261\255\007kXXF"
 270      FE4611B7 
 270      FF7A78B1 
 270      AD076B58 
 270      5846
 271 0a04 11BB7AAC 		.ascii	"\021\273z\254y\245`/g0E\364\356\0103\343w\205\013A\034"
 271      79A5602F 
 271      673045F4 
 271      EE0833E3 
 271      77850B41 
 272 0a19 E56EA727 		.ascii	"\345n\247'\030;=\005v*\011\013O\023\253\274D\352fR\277"
ARM GAS  /tmp/cc7Xh41j.s 			page 21


 272      183B3D05 
 272      762A090B 
 272      4F13ABBC 
 272      44EA6652 
 273 0a2e CC4E98A7 		.ascii	"\314N\230\247F\230\023f6\341<59\317\340\254\252\212"
 273      46981366 
 273      36E13C35 
 273      39CFE0AC 
 273      AA8A
 274 0a40 3AED7E85 		.ascii	":\355~\205\3143g\231\200\373{G!\247\335\217\227a\312"
 274      CC336799 
 274      80FB7B47 
 274      21A7DD8F 
 274      9761CA
 275 0a53 0D8EF3CC 		.ascii	"\015\216\363\314\006n\236Y\374\216\353i\367\243s\254"
 275      066E9E59 
 275      FC8EEB69 
 275      F7A373AC 
 276 0a63 BC338746 		.ascii	"\2743\207F\370l1\327\266\211{!\273\230r\221\375_\213"
 276      F86C31D7 
 276      B6897B21 
 276      BB987291 
 276      FD5F8B
 277 0a76 5884F73A 		.ascii	"X\204\367:Yq\003c\305\215\0229\037\177\215\265\331\362"
 277      59710363 
 277      C58D1239 
 277      1F7F8DB5 
 277      D9F2
 278 0a88 32BAC8F9 		.ascii	"2\272\310\371\310\353\324&\327!\252\276\316\326\177"
 278      C8EBD426 
 278      D721AABE 
 278      CED67F
 279 0a97 F1B68A62 		.ascii	"\361\266\212bf\223tn\347\177\334\346\0149lGh#\216\320"
 279      6693746E 
 279      E77FDCE6 
 279      0C396C47 
 279      68238ED0 
 280 0aab 524667B0 		.ascii	"RFg\260\201\226^\376\027w^\257\357\2669:\3016\306\011"
 280      81965EFE 
 280      17775EAF 
 280      EFB6393A 
 280      C136C609 
 281 0abf B6B7FADD 		.ascii	"\266\267\372\335\\\240\330\267X\355$\206\263\224\355"
 281      5CA0D8B7 
 281      58ED2486 
 281      B394ED
 282 0ace 96C3EB86 		.ascii	"\226\303\353\206\375\026\253\217\240a\306\233\007\026"
 282      FD16AB8F 
 282      A061C69B 
 282      0716
 283 0adc F40EE32D 		.ascii	"\364\016\343-\0267\3666\306\235\266\353\356\264\203"
 283      1637F636 
 283      C69DB6EB 
 283      EEB483
 284 0aeb 4B01D4F4 		.ascii	"K\001\324\364g\233O]\231{\320tNw\232'\371\315\2759\354"
 284      679B4F5D 
 284      997BD074 
ARM GAS  /tmp/cc7Xh41j.s 			page 22


 284      4E779A27 
 284      F9CDBD39 
 285 0b00 720D95B6 		.ascii	"r\015\225\266=\246\315\023f\255\373\232E\306\357\336"
 285      3DA6CD13 
 285      66ADFB9A 
 285      45C6EFDE 
 286 0b10 58A5FE9B 		.ascii	"X\245\376\233(\3654U\352\205\326\327w\031\263e\021h"
 286      28F53455 
 286      EA85D6D7 
 286      7719B365 
 286      1168
 287 0b22 7B09DAAC 		.ascii	"{\011\332\254rkm\364i\307\367L\255\004m\026\012\362"
 287      726B6DF4 
 287      69C7F74C 
 287      AD046D16 
 287      0AF2
 288 0b34 160A520B 		.ascii	"\026\012R\013\005\015\013\351?\012GER\231\334\266]B"
 288      050D0BE9 
 288      3F0A4745 
 288      5299DCB6 
 288      5D42
 289 0b46 D93D2418 		.ascii	"\331=$\030 \235R\341\377\"\260\337X\333Y\336`>\231?"
 289      209D52E1 
 289      FF22B0DF 
 289      58DB59DE 
 289      603E993F 
 290 0b5a B215D19F 		.ascii	"\262\025\321\237\312-\303.9&\271\261`~h\310\327\241"
 290      CA2DC32E 
 290      3926B9B1 
 290      607E68C8 
 290      D7A1
 291 0b6c 3E65B668 		.ascii	">e\266h\247\364-Z?\331\226\315#\363K\013\251\337 \365"
 291      A7F42D5A 
 291      3FD996CD 
 291      23F34B0B 
 291      A9DF20F5 
 292 0b80 1652EF66 		.ascii	"\026R\357f\335m1\265G\317\371\026\232\275\354\007!\344"
 292      DD6D31B5 
 292      47CFF916 
 292      9ABDEC07 
 292      21E4
 293 0b92 844EE24E 		.ascii	"\204N\342Nf\232\234N\223\370\363H\333n\004\203\034,"
 293      669A9C4E 
 293      93F8F348 
 293      DB6E0483 
 293      1C2C
 294 0ba4 42B9875C 		.ascii	"B\271\207\\\225[B\305x\226\212qr\305\222\3357\345\340"
 294      955B42C5 
 294      78968A71 
 294      72C592DD 
 294      37E5E0
 295 0bb7 E0302FC6 		.ascii	"\3400/\306\3326\234xY1\360;E\356T\314\314{\340\3059"
 295      DA369C78 
 295      5931F03B 
 295      45EE54CC 
 295      CC7BE0C5 
 296 0bcc DF15AD00 		.ascii	"\337\025\255\000\036\362xa\022\026\216\221\345K\257"
ARM GAS  /tmp/cc7Xh41j.s 			page 23


 296      1EF27861 
 296      12168E91 
 296      E54BAF
 297 0bdb 639EEC65 		.ascii	"c\236\354e\362d\317B\247<Y\302-\261f\221S\317\227\210"
 297      F264CF42 
 297      A73C59C2 
 297      2DB16691 
 297      53CF9788 
 298 0bef F89836FB 		.ascii	"\370\2306\373\205\313\377\033\344\273j\263\255\2577"
 298      85CBFF1B 
 298      E4BB6AB3 
 298      ADAF37
 299 0bfe B89EBD92 		.ascii	"\270\236\275\222CK\211\231}[(\023}\007\375E/\364\014"
 299      434B8999 
 299      7D5B2813 
 299      7D07FD45 
 299      2FF40C
 300 0c11 B9B26407 		.ascii	"\271\262d\007\260\221B\366{\210\345\375\313K\035q+E"
 300      B09142F6 
 300      7B88E5FD 
 300      CB4B1D71 
 300      2B45
 301 0c23 1C2808B1 		.ascii	"\034(\010\261\322\026uz\226\201\025\335\177HL\375\227"
 301      D216757A 
 301      968115DD 
 301      7F484CFD 
 301      97
 302 0c34 D42749FD 		.ascii	"\324'I\375\236\367\232\333\246\344\243\300\216\273\222"
 302      9EF79ADB 
 302      A6E4A3C0 
 302      8EBB92
 303 0c43 DF97B8B3 		.ascii	"\337\227\270\263k\006v\222\215Y\306\203u2\267\216a\341"
 303      6B067692 
 303      8D59C683 
 303      7532B78E 
 303      61E1
 304 0c55 832202B1 		.ascii	"\203\"\002\261\3175\020\331Dl\365\303?K\244q\271\354"
 304      CF3510D9 
 304      446CF5C3 
 304      3F4BA471 
 304      B9EC
 305 0c67 D9A51D53 		.ascii	"\331\245\035S\335\371\371\320\010\313[P\2136oRX8\002"
 305      DDF9F9D0 
 305      08CB5B50 
 305      8B366F52 
 305      583802
 306 0c7a FC899639 		.ascii	"\374\211\2269\037Ag\264\261\272L\002\016\333O\366\322"
 306      1F4167B4 
 306      B1BA4C02 
 306      0EDB4FF6 
 306      D2
 307 0c8b B0D5D527 		.ascii	"\260\325\325'\242.+\223-\261\266Z\266\340#\011\023\206"
 307      A22E2B93 
 307      2DB1B65A 
 307      B6E02309 
 307      1386
 308 0c9d BA0A1D2D 		.ascii	"\272\012\035-\377\273V\312\015\211a\014\203\222\341"
ARM GAS  /tmp/cc7Xh41j.s 			page 24


 308      FFBB56CA 
 308      0D89610C 
 308      8392E1
 309 0cac 9CFE9DAD 		.ascii	"\234\376\235\255r\221\355\237@\032(\374H\003\376t\021"
 309      7291ED9F 
 309      401A28FC 
 309      4803FE74 
 309      11
 310 0cbd 9AFDC255 		.ascii	"\232\375\302U\263\346\017\235\334i?\267\334C\270\012"
 310      B3E60F9D 
 310      DC693FB7 
 310      DC43B80A 
 311 0ccd 7D04622D 		.ascii	"}\004b-\232dp\221]RA\272`\357\274\302\012W\335Q\271"
 311      9A647091 
 311      5D5241BA 
 311      60EFBCC2 
 311      0A57DD51 
 312 0ce2 86F70CA1 		.ascii	"\206\367\014\241K\3656A\377\347\236\201+\011l\347\327"
 312      4BF53641 
 312      FFE79E81 
 312      2B096CE7 
 312      D7
 313 0cf3 1906747D 		.ascii	"\031\006t}R\237\264y\362\377\304\3219X=+9\3777\234~"
 313      529FB479 
 313      F2FFC4D1 
 313      39583D2B 
 313      39FF379C 
 314 0d08 52EF4E77 		.ascii	"R\357Nw\316\225\016\277\340r\247\033p\245\303\363\220"
 314      CE950EBF 
 314      E072A71B 
 314      70A5C3F3 
 314      90
 315 0d19 3BDD7957 		.ascii	";\335yW\272\3759\307\273\340J\327\2213\215\016\272\322"
 315      BAFD39C7 
 315      BBE04AD7 
 315      91338D0E 
 315      BAD2
 316 0d2b 6DCB49A7 		.ascii	"m\313I\247\225\270\321m\312I7\313\225.\233S\276\331"
 316      95B8D16D 
 316      CA4937CB 
 316      952E9B53 
 316      BED9
 317 0d3d 161D2A89 		.ascii	"\026\035*\211\325F\025_\"S\023Q\375w\377\344\301\312"
 317      D546155F 
 317      22531351 
 317      FD77FFE4 
 317      C1CA
 318 0d4f C9E8B6AA 		.ascii	"\311\350\266\252\252\320\344\332\370\264\370O\357\017"
 318      AAD0E4DA 
 318      F8B4F84F 
 318      EF0F
 319 0d5d A5322145 		.ascii	"\2452!E\015\245S\212\232\011}\377\276\251\223\2476\204"
 319      0DA5538A 
 319      9A097DFF 
 319      BEA993A7 
 319      3684
 320 0d6f 62A9443A 		.ascii	"b\251D:^'+\231\320\335\223'\207b\265\352\303i9SU\213"
ARM GAS  /tmp/cc7Xh41j.s 			page 25


 320      5E272B99 
 320      D0DD9327 
 320      8762B5EA 
 320      C3693953 
 321 0d85 02F1A47A 		.ascii	"\002\361\244z\313\267#\252\034\252M%\344P]\264^\221"
 321      CBB723AA 
 321      1CAA4D25 
 321      E4505DB4 
 321      5E91
 322 0d97 93311993 		.ascii	"\2231\031\223\215\307=\247\305\223!@\256\213O\013\325"
 322      8DC73DA7 
 322      C5932140 
 322      AE8B4F0B 
 322      D5
 323 0da8 C462A1A8 		.ascii	"\304b\241\250\222\030\237L%\345\361rtZ<tk\325\355U\267"
 323      92189F4C 
 323      25E5F172 
 323      745A3C74 
 323      6BD5ED55 
 324 0dbd E2AFE91F 		.ascii	"\342\257\351\037\377}<\031\253\253\257\226C\031\265"
 324      FF7D3C19 
 324      ABABAF96 
 324      4319B5
 325 0dcc 1A8681D1 		.ascii	"\032\206\201\321\374j\255\"G\253\277\316\360\252\312"
 325      FC6AAD22 
 325      47ABBFCE 
 325      F0AACA
 326 0ddb 1915738B 		.ascii	"\031\025s\213\357 OU\014\011\351rx\230\020\221\033\344"
 326      EF204F55 
 326      0C09E972 
 326      78981091 
 326      1BE4
 327 0ded 58BD2AFB 		.ascii	"X\275*\373\"?H\245\352\306Dp\207H4\223\221\0255\222"
 327      223F48A5 
 327      EAC64470 
 327      87483493 
 327      91153592 
 328 0e01 917F5F8F 		.ascii	"\221\177_\217\331\374\252\013\020\0145\222\364\227\023"
 328      D9FCAA0B 
 328      100C3592 
 328      F49713
 329 0e10 7135A2A6 		.ascii	"q5\242\246\036\222\223\245\372\320\021\365\372!\212"
 329      1E9293A5 
 329      FAD011F5 
 329      FA218A
 330 0e1f 32D98CD5 		.ascii	"2\331\214\325f\036\316\230\212\011\306j#:\311\265\271"
 330      661ECE98 
 330      8A09C66A 
 330      233AC9B5 
 330      B9
 331 0e30 0862B5D5 		.ascii	"\010b\265\325X\256t$)7\250pK+\362\214\200\232V\342\251"
 331      58AE7424 
 331      2937A870 
 331      4B2BF28C 
 331      809A56E2 
 332 0e45 885A5A6F 		.ascii	"\210ZZo(\227\264\307S\201X*\251B\267ox\230\2526\226"
 332      2897B4C7 
ARM GAS  /tmp/cc7Xh41j.s 			page 26


 332      5381582A 
 332      A942B76F 
 332      7898AA36 
 333 0e5a 5264402D 		.ascii	"Rd@-\303\315\021\300\210\251\015\337\314\207&2\343\366"
 333      C3CD11C0 
 333      88A90DDF 
 333      CC872632 
 333      E3F6
 334 0e6c 04D0952A 		.ascii	"\004\320\225*r\015\030\"\242\212\312\255\242\362\035"
 334      720D1822 
 334      A28ACAAD 
 334      A2F21D
 335 0e7b 51B94D54 		.ascii	"Q\271MTn\027\225\211\242r\207\244L\270\031\312\004\261"
 335      6E179589 
 335      A27287A4 
 335      4CB819CA 
 335      04B1
 336 0e8d 4E81DB2D 		.ascii	"N\201\333-\276t\004\260\003\230\373\231\262\002\367"
 336      BE7404B0 
 336      0398FB99 
 336      B202F7
 337 0e9c 545DB5AC 		.ascii	"T]\265\254`i\242\011\271T\315\250QU\216\250\001,\307"
 337      6069A209 
 337      B954CDA8 
 337      51558EA8 
 337      012CC7
 338 0eaf 44B8A723 		.ascii	"D\270\247#\244%\240&R\3252\371<\275.Z\223\011\250\212"
 338      A425A026 
 338      52D532F9 
 338      3CBD2E5A 
 338      9309A88A 
 339 0ec3 3C3D43C4 		.ascii	"<=C\304\304\017~\245\372a0`\251\334\020Wc\320\321?S"
 339      C40F7EA5 
 339      FA613060 
 339      A9DC1057 
 339      63D0D13F 
 340 0ed8 4D4DFB5D 		.ascii	"MM\373]\272L\236!'\325D4\363\020\364\224g\342\007)\035"
 340      BA4C9E21 
 340      27D54434 
 340      F310F494 
 340      67E20729 
 341 0eed A9AFD095 		.ascii	"\251\257\320\225\234\211\324\305\301^\352H\252v\275"
 341      9C89D4C5 
 341      C15EEA48 
 341      AA76BD
 342 0efc 25988ECC 		.ascii	"%\230\216\314\214\306\325x\262f\244\331\014\246\257"
 342      8CC6D578 
 342      B266A4D9 
 342      0CA6AF
 343 0f0b 87D14731 		.ascii	"\207\321G1=I\323\210t\004\206%\217>\362\010\015rZN\202"
 343      3D49D388 
 343      74048625 
 343      8F3EF208 
 343      0D725A4E 
 344 0f20 EFD5F812 		.ascii	"\357\325\370\022\340I\015\327\344\260dBm\300\341\220"
 344      E0490DD7 
 344      E4B06442 
ARM GAS  /tmp/cc7Xh41j.s 			page 27


 344      6DC0E190 
 345 0f30 D0B1E09E 		.ascii	"\320\261\340\236\232\231\004\225\020:`8A\014\014\334"
 345      9A990495 
 345      103A6038 
 345      410C0CDC 
 346 0f40 403FCCD7 		.ascii	"@?\314\327\010,k\264\216\230\025\032\323\340\242\345"
 346      082C6BB4 
 346      8E98151A 
 346      D3E0A2E5 
 347 0f50 B1DAA999 		.ascii	"\261\332\251\231\232\373\344:9\232\221s\016\005nN\034"
 347      9AFBE43A 
 347      399A9173 
 347      0E056E4E 
 347      1C
 348 0f61 0CBAFF1C 		.ascii	"\014\272\377\034\204\363g\342\217\200@\367\026\037\202"
 348      84F367E2 
 348      8F8040F7 
 348      161F82
 349 0f70 4CA055CB 		.ascii	"L\240U\313\323\261\034\352\364\372d,\242\216\313\301"
 349      D3B11CEA 
 349      F4FA642C 
 349      A28ECBC1 
 350 0f80 86A13CE8 		.ascii	"\206\241<\350=:V\373@m\365d\370\250\312\367\203\205"
 350      3D3A56FB 
 350      406DF564 
 350      F8A8CAF7 
 350      8385
 351 0f92 E3319DB9 		.ascii	"\3431\235\271\373Ay\342\314h\031h\032G"
 351      FB4179E2 
 351      CC681968 
 351      1A47
 352 0fa0 860C2E15 		.ascii	"\206\014.\025\244\317\345\230\372a\303l\227@\263\365"
 352      A4CFE598 
 352      FA61C36C 
 352      9740B3F5 
 353 0fb0 39A0E85A 		.ascii	"9\240\350Z\364+\304\357}\012\3612\305\3602E\367\262"
 353      F42BC4EF 
 353      7D0AF132 
 353      C5F03245 
 353      F7B2
 354 0fc2 20B4D62B 		.ascii	" \264\326+ \252\352S0\321\230\031qE\255\217\326E\324"
 354      20AAEA53 
 354      30D19819 
 354      7145AD8F 
 354      D645D4
 355 0fd5 7802F294 		.ascii	"x\002\362\224\001|9\000;|1\222k\323\235\201k\012\314"
 355      017C3900 
 355      3B7C3192 
 355      6BD39D81 
 355      6B0ACC
 356 0fe8 5089C5F0 		.ascii	"P\211\305\360\035\307d\0203\015_\030Q9\3416x\200\257"
 356      1DC76410 
 356      330D5F18 
 356      5139E136 
 356      7880AF
 357 0ffb AAE53A35 		.ascii	"\252\345:5\012"
 357      0A
ARM GAS  /tmp/cc7Xh41j.s 			page 28


 358 1000 0FBAB670 		.ascii	"\017\272\266pg\374\344\307DQ\245\014nu\321\214\212\351"
 358      67FCE4C7 
 358      4451A50C 
 358      6E75D18C 
 358      8AE9
 359 1012 A0098F5B 		.ascii	"\240\011\217[a\350\241Z\236V_\243{+\333\022LG\223\361"
 359      61E8A15A 
 359      9E565FA3 
 359      7B2BDB12 
 359      4C4793F1 
 360 1026 18F63DA9 		.ascii	"\030\366=\251zZ\315\210D\024\206\"Z\036\245&\"\261("
 360      7A5ACD88 
 360      44148622 
 360      5A1EA526 
 360      22B128
 361 1039 985001ED 		.ascii	"\230P\001\355\246\222\021\2652\227ap\020\007\0245\226"
 361      A69211B5 
 361      32976170 
 361      10071435 
 361      96
 362 104a 0405F853 		.ascii	"\004\005\370S\323\247gdUT\023#2\352C\000Q\2234d\270"
 362      D3A76764 
 362      55541323 
 362      32EA4300 
 362      51933464 
 363 105f EDD6885A 		.ascii	"\355\326\210Z\021\257\256\223\2150\200@\021c\265\001"
 363      11AFAE93 
 363      8D308040 
 363      1163B501 
 364 106f C3ACA538 		.ascii	"\303\254\2458\377\305\300\023Kp,\373\000\242>\015mQ"
 364      FFC5C013 
 364      4B702CFB 
 364      00A23E0D 
 364      6D51
 365 1081 A51A1C3B 		.ascii	"\245\032\034;`\344\326\021\351\250\252\312J\022\207"
 365      60E4D611 
 365      E9A8AACA 
 365      4A1287
 366 1090 AB918027 		.ascii	"\253\221\200'\214\252RR\325Q5Ze6\214\234*g2\321\032"
 366      8CAA5252 
 366      D551355A 
 366      65368C9C 
 366      2A6732D1 
 367 10a5 39F3ADCA 		.ascii	"9\363\255\312\272T*\215\376\017\030I\346s"
 367      BA542A8D 
 367      FE0F1849 
 367      E673
 368              		.text
 369              		.section	.gnu.lto_.symtab.71cb4bdd77e25612,"",%progbits
 370 0000 5F746573 		.ascii	"_test_assert_sequence\000\000\002\000\000\000\000\000"
 370      745F6173 
 370      73657274 
 370      5F736571 
 370      75656E63 
 371 001d 00000000 		.ascii	"\000\000\000\000\271\000\000\000test_emit_token\000"
 371      B9000000 
 371      74657374 
ARM GAS  /tmp/cc7Xh41j.s 			page 29


 371      5F656D69 
 371      745F746F 
 372 0035 00020000 		.ascii	"\000\002\000\000\000\000\000\000\000\000\000\302\000"
 372      00000000 
 372      000000C2 
 372      00
 373 0042 00006368 		.ascii	"\000\000chMsgRelease\000\000\002\000\000\000\000\000"
 373      4D736752 
 373      656C6561 
 373      73650000 
 373      02000000 
 374 0058 00000000 		.ascii	"\000\000\000\000\306\000\000\000chMsgWait\000\000\002"
 374      C6000000 
 374      63684D73 
 374      67576169 
 374      74000002 
 375 006c 00000000 		.ascii	"\000\000\000\000\000\000\000\000\000R\001\000\000ch"
 375      00000000 
 375      00520100 
 375      006368
 376 007b 54686443 		.ascii	"ThdCreateStatic\000\000\002\000\000\000\000\000\000"
 376      72656174 
 376      65537461 
 376      74696300 
 376      00020000 
 377 0093 00000055 		.ascii	"\000\000\000U\001\000\000chMsgSend\000\000\002\000\000"
 377      01000063 
 377      684D7367 
 377      53656E64 
 377      00000200 
 378 00a8 00000000 		.ascii	"\000\000\000\000\000\000\000c\001\000\000patternmsg"
 378      00000063 
 378      01000070 
 378      61747465 
 378      726E6D73 
 379 00bd 00000000 		.ascii	"\000\000\000\000\000\000\000\000\000\000\000\000\332"
 379      00000000 
 379      00000000 
 379      DA
 380 00ca 01000074 		.ascii	"\001\000\000testmsg1\000\000\000\000\000\000\000\000"
 380      6573746D 
 380      73673100 
 380      00000000 
 380      000000
 381 00dd 00000000 		.ascii	"\000\000\000\000\360\001\000\000wa\000\000\002\000\000"
 381      F0010000 
 381      77610000 
 381      020000
 382 00ec 00000000 		.ascii	"\000\000\000\000\000\000\000h\001\000\000ch\000\000"
 382      00000068 
 382      01000063 
 382      680000
 383 00fb 02000000 		.ascii	"\002\000\000\000\000\000\000\000\000\000m\001\000\000"
 383      00000000 
 383      00006D01 
 383      0000
 384 0109 74687265 		.ascii	"threads\000\000\002\000\000\000\000\000\000\000\000"
ARM GAS  /tmp/cc7Xh41j.s 			page 30


 384      61647300 
 384      00020000 
 384      00000000 
 384      0000
 385 011b 00D60100 		.ascii	"\000\326\001\000\000"
 385      00
 386              		.text
 387              		.section	.gnu.lto_.opts,"",%progbits
 388 0000 272D6444 		.ascii	"'-dD''-mcpu=cortex-m3''-mno-thumb-interwork''-mthum"
 388      27272D6D 
 388      6370753D 
 388      636F7274 
 388      65782D6D 
 389 0033 6227272D 		.ascii	"b''-ggdb''-g3''-O2''-fomit-frame-pointer''-falign-f"
 389      67676462 
 389      27272D67 
 389      3327272D 
 389      4F322727 
 390 0066 756E6374 		.ascii	"unctions=16''-ffunction-sections''-fdata-sections''"
 390      696F6E73 
 390      3D313627 
 390      272D6666 
 390      756E6374 
 391 0099 2D666E6F 		.ascii	"-fno-common''-flto'\000"
 391      2D636F6D 
 391      6D6F6E27 
 391      272D666C 
 391      746F2700 
 392              		.text
 393              		.cfi_sections	.debug_frame
 394              		.section	.text.msg1_execute,"ax",%progbits
 395              		.align	2
 396              		.p2align 4,,15
 397              		.thumb
 398              		.thumb_func
 399              		.type	msg1_execute, %function
 400              	msg1_execute:
 401              	.LFB171:
 402              		.file 1 "../ChibiOS/test/rt/testmsg.c"
 403              		.loc 1 67 0
 404              		.cfi_startproc
 405              		@ args = 0, pretend = 0, frame = 0
 406              		@ frame_needed = 0, uses_anonymous_args = 0
 407 0000 10B5     		push	{r4, lr}
 408              	.LCFI0:
 409              		.cfi_def_cfa_offset 8
 410              		.cfi_offset 4, -8
 411              		.cfi_offset 14, -4
 412              	.LBB16:
 413              	.LBB17:
 414              	.LBB18:
 415              	.LBB19:
 416              		.file 2 "../ChibiOS/os/rt/include/chthreads.h"
 417              		.loc 2 179 0
 418 0002 40F20003 		movw	r3, #:lower16:ch
 419 0006 C0F20003 		movt	r3, #:upper16:ch
 420 000a 9C69     		ldr	r4, [r3, #24]
ARM GAS  /tmp/cc7Xh41j.s 			page 31


 421              	.LBE19:
 422              	.LBE18:
 423              	.LBE17:
 424              	.LBE16:
 425              		.loc 1 74 0
 426 000c 40F20000 		movw	r0, #:lower16:wa
 427 0010 A268     		ldr	r2, [r4, #8]
 428              		.loc 1 67 0
 429 0012 82B0     		sub	sp, sp, #8
 430              	.LCFI1:
 431              		.cfi_def_cfa_offset 16
 432              		.loc 1 74 0
 433 0014 C0F20000 		movt	r0, #:upper16:wa
 434 0018 40F20003 		movw	r3, #:lower16:thread
 435 001c 0132     		adds	r2, r2, #1
 436 001e C0F20003 		movt	r3, #:upper16:thread
 437 0022 0094     		str	r4, [sp, #0]
 438 0024 4FF4A471 		mov	r1, #328
 439 0028 0068     		ldr	r0, [r0, #0]
 440 002a FFF7FEFF 		bl	chThdCreateStatic
 441              	.LVL0:
 442 002e 40F20001 		movw	r1, #:lower16:threads
 443 0032 C0F20001 		movt	r1, #:upper16:threads
 444 0036 0860     		str	r0, [r1, #0]
 445              		.loc 1 76 0
 446 0038 FFF7FEFF 		bl	chMsgWait
 447              	.LVL1:
 448              	.LBB20:
 449              	.LBB21:
 450              		.file 3 "../ChibiOS/os/rt/include/chmsg.h"
 451              		.loc 3 98 0
 452 003c 046B     		ldr	r4, [r0, #48]
 453              	.LBE21:
 454              	.LBE20:
 455              		.loc 1 78 0
 456 003e 2146     		mov	r1, r4
 457 0040 FFF7FEFF 		bl	chMsgRelease
 458              	.LVL2:
 459              		.loc 1 79 0
 460 0044 E0B2     		uxtb	r0, r4
 461 0046 FFF7FEFF 		bl	test_emit_token
 462              	.LVL3:
 463              		.loc 1 80 0
 464 004a FFF7FEFF 		bl	chMsgWait
 465              	.LVL4:
 466              	.LBB22:
 467              	.LBB23:
 468              		.loc 3 98 0
 469 004e 046B     		ldr	r4, [r0, #48]
 470              	.LBE23:
 471              	.LBE22:
 472              		.loc 1 82 0
 473 0050 2146     		mov	r1, r4
 474 0052 FFF7FEFF 		bl	chMsgRelease
 475              	.LVL5:
 476              		.loc 1 83 0
 477 0056 E0B2     		uxtb	r0, r4
ARM GAS  /tmp/cc7Xh41j.s 			page 32


 478 0058 FFF7FEFF 		bl	test_emit_token
 479              	.LVL6:
 480              		.loc 1 84 0
 481 005c FFF7FEFF 		bl	chMsgWait
 482              	.LVL7:
 483              	.LBB24:
 484              	.LBB25:
 485              		.loc 3 98 0
 486 0060 046B     		ldr	r4, [r0, #48]
 487              	.LBE25:
 488              	.LBE24:
 489              		.loc 1 86 0
 490 0062 2146     		mov	r1, r4
 491 0064 FFF7FEFF 		bl	chMsgRelease
 492              	.LVL8:
 493              		.loc 1 87 0
 494 0068 E0B2     		uxtb	r0, r4
 495 006a FFF7FEFF 		bl	test_emit_token
 496              	.LVL9:
 497              		.loc 1 88 0
 498 006e 40F20001 		movw	r1, #:lower16:.LC0
 499 0072 0120     		movs	r0, #1
 500 0074 C0F20001 		movt	r1, #:upper16:.LC0
 501              		.loc 1 89 0
 502 0078 02B0     		add	sp, sp, #8
 503 007a BDE81040 		pop	{r4, lr}
 504              		.loc 1 88 0
 505 007e FFF7FEBF 		b	_test_assert_sequence
 506              	.LVL10:
 507              		.cfi_endproc
 508              	.LFE171:
 509              		.size	msg1_execute, .-msg1_execute
 510 0082 00BFAFF3 		.section	.text.thread,"ax",%progbits
 510      0080AFF3 
 510      0080AFF3 
 510      0080
 511              		.align	2
 512              		.p2align 4,,15
 513              		.thumb
 514              		.thumb_func
 515              		.type	thread, %function
 516              	thread:
 517              	.LFB170:
 518              		.loc 1 59 0
 519              		.cfi_startproc
 520              		@ args = 0, pretend = 0, frame = 0
 521              		@ frame_needed = 0, uses_anonymous_args = 0
 522              	.LVL11:
 523 0000 10B5     		push	{r4, lr}
 524              	.LCFI2:
 525              		.cfi_def_cfa_offset 8
 526              		.cfi_offset 4, -8
 527              		.cfi_offset 14, -4
 528              		.loc 1 61 0
 529 0002 4121     		movs	r1, #65
 530              		.loc 1 59 0
 531 0004 0446     		mov	r4, r0
ARM GAS  /tmp/cc7Xh41j.s 			page 33


 532              		.loc 1 61 0
 533 0006 FFF7FEFF 		bl	chMsgSend
 534              	.LVL12:
 535              		.loc 1 62 0
 536 000a 4221     		movs	r1, #66
 537 000c 2046     		mov	r0, r4
 538 000e FFF7FEFF 		bl	chMsgSend
 539              	.LVL13:
 540              		.loc 1 63 0
 541 0012 2046     		mov	r0, r4
 542 0014 4321     		movs	r1, #67
 543 0016 FFF7FEFF 		bl	chMsgSend
 544              	.LVL14:
 545              		.loc 1 65 0
 546 001a 0020     		movs	r0, #0
 547 001c 10BD     		pop	{r4, pc}
 548              		.cfi_endproc
 549              	.LFE170:
 550              		.size	thread, .-thread
 551              		.global	patternmsg
 552              		.global	testmsg1
 553 001e 00BF     		.section	.rodata.testmsg1,"a",%progbits
 554              		.align	2
 555              		.type	testmsg1, %object
 556              		.size	testmsg1, 16
 557              	testmsg1:
 558 0000 04000000 		.word	.LC1
 559 0004 00000000 		.word	0
 560 0008 00000000 		.word	0
 561 000c 00000000 		.word	msg1_execute
 562              		.section	.rodata.str1.4,"aMS",%progbits,1
 563              		.align	2
 564              	.LC0:
 565 0000 41424300 		.ascii	"ABC\000"
 566              	.LC1:
 567 0004 4D657373 		.ascii	"Messages, loop\000"
 567      61676573 
 567      2C206C6F 
 567      6F7000
 568 0013 00       		.section	.rodata.patternmsg,"a",%progbits
 569              		.align	2
 570              		.type	patternmsg, %object
 571              		.size	patternmsg, 8
 572              	patternmsg:
 573 0000 00000000 		.word	testmsg1
 574 0004 00000000 		.word	0
 575              		.text
 576              	.Letext0:
 577              		.file 4 "/home/laurence/ARM-GCC/bin/../lib/gcc/arm-none-eabi/4.7.4/include/stddef.h"
 578              		.file 5 "/home/laurence/ARM-GCC/bin/../lib/gcc/arm-none-eabi/4.7.4/../../../../arm-none-eabi/inclu
 579              		.file 6 "../ChibiOS/os/rt/ports/ARMCMx/compilers/GCC/chtypes.h"
 580              		.file 7 "../ChibiOS/os/rt/include/chsystypes.h"
 581              		.file 8 "../ChibiOS/os/rt/include/chschd.h"
 582              		.file 9 "../ChibiOS/os/rt/ports/ARMCMx/chcore.h"
 583              		.file 10 "../ChibiOS/os/rt/ports/ARMCMx/chcore_v7m.h"
 584              		.file 11 "../ChibiOS/os/rt/include/chtm.h"
 585              		.file 12 "../ChibiOS/os/rt/include/chmtx.h"
ARM GAS  /tmp/cc7Xh41j.s 			page 34


 586              		.file 13 "../ChibiOS/test/rt/test.h"
 587              		.file 14 "../ChibiOS/os/ext/CMSIS/include/core_cm3.h"