ARM GAS  /tmp/ccB7Otgp.s 			page 1


   1              		.syntax unified
   2              		.cpu cortex-m3
   3              		.fpu softvfp
   4              		.eabi_attribute 20, 1
   5              		.eabi_attribute 21, 1
   6              		.eabi_attribute 23, 3
   7              		.eabi_attribute 24, 1
   8              		.eabi_attribute 25, 1
   9              		.eabi_attribute 26, 1
  10              		.eabi_attribute 30, 2
  11              		.eabi_attribute 34, 1
  12              		.eabi_attribute 18, 4
  13              		.thumb
  14              		.file	"testpools.c"
  15              		.text
  16              	.Ltext0:
  17              		.section	.gnu.lto_.jmpfuncs.90f8300202d37bc3,"",%progbits
  18 0000 789C6362 		.ascii	"x\234cb`d`g\300\016\014\030\031\030\024\2004\013\003"
  18      60646067 
  18      C00E0C18 
  18      19181480 
  18      340B03
  19 0013 50113353 		.ascii	"P\0213S\025\303\317\006\216TF\006\306LF\206c=\217E\201"
  19      15C3CF06 
  19      8E544606 
  19      C64C4686 
  19      633D8F45 
  20 0028 324C920C 		.ascii	"2L\222\014\251\214\214\014'\230 ,&\220\020\003\023\212"
  20      A98C8C0C 
  20      2798202C 
  20      26901003 
  20      138A
  21 003a CA2FB3EA 		.ascii	"\312/\263\352@f1\242\010^\231-\006R\012\325\316\214"
  21      406631A2 
  21      085E992D 
  21      06520AD5 
  21      CE8C
  22 004c 2EFD6636 		.ascii	".\375f6\037\2224\320zT\313\217\314Y\307\010\263\234"
  22      1F9234D0 
  22      7A54CB8F 
  22      CC59C708 
  22      B39C
  23 005e 99418001 		.ascii	"\231A\200\001&\311\302\030\317\310\200i\331\2319\310"
  23      26C9C218 
  23      CFC88069 
  23      D99939C8 
  24 006e A6B13280 		.ascii	"\246\2612\200\354\203\361\2300\\&\205\244\226\021]\366"
  24      EC83F198 
  24      305C2685 
  24      A496115D 
  24      F6
  25 007f CF4C90BB 		.ascii	"\317L\220\273Q]sg\346*\260\255P\347\000\315\227\327"
  25      515D7367 
  25      E62AB0AD 
  25      50E700CD 
  25      97D7
  26 0091 D3D377CE 		.ascii	"\323\323w\316\310L\312\364\017\326/I-.\321/*\001\323"
ARM GAS  /tmp/ccB7Otgp.s 			page 2


  26      C84CCAF4 
  26      0FD62F49 
  26      2D2ED12F 
  26      2A01D3
  27 00a4 05F9F939 		.ascii	"\005\371\3719\305z\311\014\000\216\320<\225"
  27      C57AC90C 
  27      008ED03C 
  27      95
  28              		.text
  29              		.section	.gnu.lto_.inline.90f8300202d37bc3,"",%progbits
  30 0000 789C6362 		.ascii	"x\234cb`d\340e\300\0166@i\026\006\006f&F\006& \223m"
  30      6064E065 
  30      C00E3640 
  30      69160606 
  30      66264606 
  31 0018 813C1350 		.ascii	"\201<\023P\007;?\022\227\005\250\237\031\310ab\320\371"
  31      073B3F12 
  31      9705A89F 
  31      19C86162 
  31      D0F9
  32 002a CE081497 		.ascii	"\316\010\024\227i\230\301\006\221a\346\001)\233\340"
  32      6998C106 
  32      9161E601 
  32      299BE0
  33 0039 07A21981 		.ascii	"\007\242\031\201\352`<\0060\217\001\314\203\351\206"
  33      EA603C06 
  33      308F01CC 
  33      83E986
  34 0048 888248B0 		.ascii	"\210\202H\260\032\006\2055 \263D\332N3C-\345\002\271"
  34      1A068535 
  34      20B344DA 
  34      4E33432D 
  34      E502B9
  35 005b 04AA0966 		.ascii	"\004\252\011f\004\252\361 \203&\37010\000\000y\360\017"
  35      04AAF120 
  35      8326F831 
  35      30000079 
  35      F00F
  36 006d BD       		.ascii	"\275"
  37              		.text
  38              		.section	.gnu.lto_.pureconst.90f8300202d37bc3,"",%progbits
  39 0000 789C6362 		.ascii	"x\234cb`d`f``\340d\200\000\026\006\006F\011&\011f\011"
  39      60646066 
  39      6060E064 
  39      80001606 
  39      06460926 
  40 0017 00024A00 		.ascii	"\000\002J\000b"
  40      62
  41              		.text
  42              		.section	.gnu.lto_null_provider.90f8300202d37bc3,"",%progbits
  43 0000 789C6362 		.ascii	"x\234cb`\004BL \011\304=@\254\006\304\214\314\014\214"
  43      6004424C 
  43      2009C43D 
  43      40AC06C4 
  43      8CCC0C8C 
  44 0014 4C13CE31 		.ascii	"L\023\316104*012\202\030@-\365L\214\365\241\020\235"
  44      30342A30 
ARM GAS  /tmp/ccB7Otgp.s 			page 3


  44      31328218 
  44      402DF54C 
  44      8CF5A110 
  45 0029 A7FE3C63 		.ascii	"\247\376<c:2\203m?\323\201\007\377\353U\030\02674L\232"
  45      3A32836D 
  45      3FD38107 
  45      FFEB5518 
  45      1637344C 
  46 003e D0DCE091 		.ascii	"\320\334\340\221\312\310\300\304\240\304\310\020\317"
  46      CAC8C0C4 
  46      A0C4C810 
  46      CF
  47 004b C8F0E4BB 		.ascii	"\310\360\344\273\220$C*##\203\002\003\210fb`\001\351"
  47      9024432A 
  47      23238302 
  47      03886662 
  47      6001E9
  48 005e 032A6060 		.ascii	"\003*``\006\322\254\014-\015\015\002 u`\020\010\242"
  48      06D2AC0C 
  48      2D0D0D02 
  48      20756010 
  48      08A2
  49 0070 41B60401 		.ascii	"A\266\004\001\025\202\030\314\347\030\030\377\224\307"
  49      158218CC 
  49      E71818FF 
  49      94C7
  50 007e 322E6264 		.ascii	"2.bd\005kg\206\2732\020h$H\005P\035\203\274\236\236"
  50      056B6786 
  50      BB321068 
  50      24480550 
  50      1D83BC9E 
  51 0093 BE734666 		.ascii	"\276sFfR\246\177\260~Ijq\211~Q\011\230.\310\317\317"
  51      52A67FB0 
  51      7E496A71 
  51      897E5109 
  51      982EC8CF 
  52 00a8 29D64B66 		.ascii	")\326Kf`)\316\254J\005\000:|-\220"
  52      6029CEAC 
  52      4A05003A 
  52      7C2D90
  53              		.text
  54              		.section	.gnu.lto_pools1_setup.90f8300202d37bc3,"",%progbits
  55 0000 789C6362 		.ascii	"x\234cb`\004BL \011\304\013\201X\021\210\031\231\031"
  55      6004424C 
  55      2009C40B 
  55      81581188 
  55      199919
  56 0013 1899269C 		.ascii	"\030\231&\234c`hT`bd\0041\200Z\352\231\030\353C!:Ou"
  56      63606854 
  56      60626404 
  56      31805AEA 
  56      9918EB43 
  57 002b 2D567933 		.ascii	"-Vy3\203m?\323\201\007\377\353\031\030\230\201B\254"
  57      836D3FD3 
  57      8107FFEB 
  57      19189881 
  57      42AC
ARM GAS  /tmp/ccB7Otgp.s 			page 4


  58 003d 0C2D0D0D 		.ascii	"\014-\015\015\002\014\361P\243\003A4Hc\020#\023\230"
  58      020CF150 
  58      A3034134 
  58      48631023 
  58      1398
  59 004f C17C8681 		.ascii	"\301|\206\201\355\311\214u\214\261\214\013\030Y\201"
  59      EDC98C75 
  59      8CB18C0B 
  59      185981
  60 005e 72550C3F 		.ascii	"rU\014?\0338R\201N\211gd\204\350\201\21202f2B\035\224"
  60      1B385281 
  60      4E896764 
  60      84E8818A 
  60      30326632 
  61 0075 0AD47B82 		.ascii	"\012\324{\202\011\314\000Y\221\312\310\302\300p\216"
  61      09CC0059 
  61      91CAC8C2 
  61      C0708E
  62 0084 81116833 		.ascii	"\201\021h3\314\024\230e\214`;\20061\310\353\351\351"
  62      CC149865 
  62      8C603B80 
  62      3631C8EB 
  62      E9E9
  63 0096 3B676426 		.ascii	";gd&e\372\007\353\227\244\026\227\350\027\225\200\351"
  63      65FA07EB 
  63      97A41697 
  63      E8179580 
  63      E9
  64 00a7 82FCFC9C 		.ascii	"\202\374\374\234b\275d\006\000\334>.;"
  64      62BD6406 
  64      00DC3E2E 
  64      3B
  65              		.text
  66              		.section	.gnu.lto_pools1_execute.part.0.90f8300202d37bc3,"",%progbits
  67 0000 789CCD55 		.ascii	"x\234\315U=h\024A\024~of\366\357\366\376\242 \021\305"
  67      3D681441 
  67      147E6F66 
  67      F6EFF6FE 
  67      A22011C5 
  68 0014 1CB1B1CA 		.ascii	"\034\261\261\312\005A\260\263\260\261\223\234X\306\200"
  68      0541B0B3 
  68      B0B1939C 
  68      58C680
  69 0023 CB8A2742 		.ascii	"\313\212'BDSYx\233KZ\341\210Mr\227\302\370\0235E\012"
  69      44535978 
  69      9B4B5AE1 
  69      884D7297 
  69      C2F81335 
  70 0039 4B1B316A 		.ascii	"K\0331j\212p\036(!\225ED\305\346\012\013\033A\210\357"
  70      8A701E28 
  70      21954544 
  70      C5E60A0B 
  70      1B4188EF 
  71 004d CDEEDE99 		.ascii	"\315\356\336\231\2733\204\024\232=v\277\331\231\367"
  71      BB338414 
  71      9A3D76BF 
  71      D999F7
ARM GAS  /tmp/ccB7Otgp.s 			page 5


  72 005c BD79DF37 		.ascii	"\275y\3377\263s\002\220~\335W\205\356+6\300qBL\001&"
  72      B3730290 
  72      7EDD5785 
  72      EE2B36C0 
  72      71424C01 
  73 0071 2B0D6A24 		.ascii	"+\015j$Qh\024\2504\312\020\027rJ\310\273\257\000\202"
  73      516814A8 
  73      34CA1017 
  73      724AC8BB 
  73      AF0082
  74 0084 13C6540A 		.ascii	"\023\306T\012\202a\003m=n\012wER\257\325X\243\301a+"
  74      8261036D 
  74      3D6E0A77 
  74      4552AFD5 
  74      58A3C161 
  75 0099 EC5EC8D9 		.ascii	"\354^\310\331\302\014\303\035\035\356\010w#Oo\211\027"
  75      C20CC31D 
  75      1DEE0877 
  75      234F6F89 
  75      17
  76 00aa C7E82D81 		.ascii	"\307\350-\201.GM\346\\DnP}\245\244\220\3120-\333I\270"
  76      2E474DE6 
  76      5C446E50 
  76      7DA5A490 
  76      CA302DDB 
  77 00c0 58BAA80B 		.ascii	"X\272\250\013\356\033\204\205 \250T\246\202s\345\315"
  77      EE1B8485 
  77      20A854A6 
  77      8273E5CD 
  78 00d0 ADAD011F 		.ascii	"\255\255\001\037A\200@\030C\3700\373Y\036\006\037\021"
  78      41804018 
  78      43F830FB 
  78      591E061F 
  78      11
  79 00e1 72C02840 		.ascii	"r\300(@mW\247\2513\337W\312\375\021U\002\363\352\363"
  79      6D57A7A9 
  79      33DF57CA 
  79      FD115502 
  79      F3EAF3
  80 00f4 E9906647 		.ascii	"\351\220fG4\354E\253\274.\3073*M\203\275\314\325<\262"
  80      34EC45AB 
  80      BC2EC733 
  80      2A4D83BD 
  80      CCD53CB2 
  81 0108 8BA9BA58 		.ascii	"\213\251\272X\360\317\352[\257\035\332W\005v\221~T\357"
  81      F0CFEA5B 
  81      AF1DDA57 
  81      0576917E 
  81      54EF
  82 011a EC495775 		.ascii	"\354IWu7k\374\037\215\3775\267\317\215\3778\267\204"
  82      376BFC1F 
  82      8DFF35B7 
  82      CF8DFF38 
  82      B784
  83 012c 3BF2707D 		.ascii	";\362p}\336|)\202\315\255\022\300Q\204Q\274\217\203"
  83      DE7C2982 
  83      CDAD12C0 
ARM GAS  /tmp/ccB7Otgp.s 			page 6


  83      518451BC 
  83      8F83
  84 013e F46D8EE2 		.ascii	"\364m\216\342\022\241\214\336\025\3413B\203\360)\241"
  84      12A18CDE 
  84      15E13342 
  84      83F029A1 
  85 014e 49F884D0 		.ascii	"I\370\204\320\212\306\355\010\035\302E\302\004\341c"
  85      8AC6ED08 
  85      1DC245C2 
  85      04E163
  86 015d 4297F011 		.ascii	"B\227\360\021a\222\360!a\212\360\001a:\212\317DH\227"
  86      6192F021 
  86      618AF001 
  86      613A8ACF 
  86      444897
  87 0170 01D34190 		.ascii	"\001\323A\220\305\360},rd\204\221N\235\021L2\312\002"
  87      C5F07D2C 
  87      72648491 
  87      4E9D114C 
  87      32CA02
  88 0183 D5CF08B0 		.ascii	"\325\317\010\260\001zgpP\262Y\275\006P k\221\316)\271"
  88      017A6770 
  88      50B259BD 
  88      0650206B 
  88      91CE29B9 
  89 0197 06E54BB4 		.ascii	"\006\345K\264\335F\3619\032\340\241\310\303r\220\365"
  89      DD46F139 
  89      1AE0A1C8 
  89      C37290F5 
  90 01a7 D1505598 		.ascii	"\321PU\230\233\244\206)n\303\317\240\337G\013\213\341"
  90      9BA48629 
  90      6EC3CFA0 
  90      DF470B8B 
  90      E1
  91 01b8 71CA892C 		.ascii	"q\312\211,\266\202n\017\377X\214\272\026\314y\000\230"
  91      B6826E0F 
  91      FF588CBA 
  91      16CC7900 
  91      98
  92 01c9 64FB68E3 		.ascii	"d\373h\343\030F!Q\217Cit\007\315\345c\002`\015\246J"
  92      18462151 
  92      8F436974 
  92      07CDE563 
  92      02600DA6 
  93 01de CDEAA288 		.ascii	"\315\352\242\210+\220\2243\254\225\303V\265\271<\022"
  93      2B909433 
  93      AC95C356 
  93      B5B93C12 
  94 01ee 4AF5784B 		.ascii	"J\365xK\360U\240\025\343#T\256\362\301\330\032\245\346"
  94      F055A015 
  94      E32354AE 
  94      F2C1D81A 
  94      A5E6
  95 0200 5B98FE8A 		.ascii	"[\230\376\212\247\343tQ\256\3662n\000z\230\026\364\220"
  95      A7E37451 
  95      AEF6326E 
  95      007A9816 
ARM GAS  /tmp/ccB7Otgp.s 			page 7


  95      F490
  96 0212 72D6E144 		.ascii	"r\326\341DF\313\244Ll\222\252\327\264I&\340\275S\262"
  96      46CBA44C 
  96      6C92AAD7 
  96      B44926E0 
  96      BD53B2
  97 0225 0E8A8E8C 		.ascii	"\016\212\216\2148\243\212\224\270\244M\364\326\346\363"
  97      38A38A94 
  97      B8A44DF4 
  97      D6E6F3
  98 0234 0290B086 		.ascii	"\002\220\260\206\204\230e\020\221\263\253\016\253<4"
  98      84986510 
  98      91B3AB0E 
  98      AB3C34
  99 0243 23768AF2 		.ascii	"#v\212\362\3110\037\007\246i;\021\315\307\214\226\364"
  99      C9301F07 
  99      A6693B11 
  99      CDC78C96 
  99      F4
 100 0254 0DDB041E 		.ascii	"\015\333\004\036\226\333\266e\201V\004?\235\224lf\275"
 100      96DBB665 
 100      8156043F 
 100      9D946C66 
 100      BD
 101 0265 D636D3F6 		.ascii	"\3266\323\366\320\332\311L;\246\333\200_\316txiuziu"
 101      D0DAC94C 
 101      3BA6DB80 
 101      5FCE7478 
 101      69757A69 
 102 027a 7B697998 		.ascii	"{iy\2301\310K\333\012\275\244\307\373\004\033\326\254"
 102      31C84BDB 
 102      0ABDA4C7 
 102      FB041BD6 
 102      AC
 103 028b A5639AB3 		.ascii	"\245c\232\263{\303\336\265\015K\020\261\267a\356\337"
 103      7BC3DEB5 
 103      0D4B10B1 
 103      B761EEDF 
 104 029b 0C534CEB 		.ascii	"\014SL\353a\230\333\3130\332z3\212*5\337\314/c\307\266"
 104      6198DBCB 
 104      30DA7A33 
 104      8A2A35DF 
 104      CC2F63C7 
 105 02b0 CD5266D5 		.ascii	"\315Rf\325\273RN\325\007\331\270\377\000E\032\241\202"
 105      BB524ED5 
 105      07D9B8FF 
 105      00451AA1 
 105      82
 106 02c1 835CA5A2 		.ascii	"\203\\\245\242\377\331x\332\344\236t\247\210\330Kw\213"
 106      FFD978DA 
 106      E49E74A7 
 106      88D84B77 
 106      8B
 107 02d2 DC255BB3 		.ascii	"\334%[\263\264\354P\231\253\367s\003\260%+>\036\220"
 107      B4EC5099 
 107      ABF77303 
 107      B0252B3E 
ARM GAS  /tmp/ccB7Otgp.s 			page 8


 107      1E90
 108 02e4 47047FBB 		.ascii	"G\004\177\273\305\201\241\241\374\331\253\305\313\305"
 108      C581A1A1 
 108      FCD9ABC5 
 108      CBC5
 109 02f2 F317F213 		.ascii	"\363\027\362\023\376\255\211\374\315\011\2157\306\307"
 109      FEAD89FC 
 109      CD098D37 
 109      C6C7
 110 0300 AFDF1AF2 		.ascii	"\257\337\032\362\3407\021\362\240\353"
 110      E03711F2 
 110      A0EB
 111              		.text
 112              		.section	.gnu.lto_pools1_execute.90f8300202d37bc3,"",%progbits
 113 0000 789CCD53 		.ascii	"x\234\315S\277OSa\024=\367\373\336\257\322\026\320D"
 113      BF4F5361 
 113      143DF7FB 
 113      DEAFD216 
 113      D044
 114 0012 830B34B8 		.ascii	"\203\0134\2700\265n:\271\270\270\031k\034\221\304\346"
 114      30B56E3A 
 114      B9B8B819 
 114      6B1C91C4 
 114      E6
 115 0023 25969860 		.ascii	"%\226\230`\204\311\245\217\226\325\244q0\024\035D\024"
 115      84C9A58F 
 115      96D5A471 
 115      30141D44 
 115      14
 116 0034 95C1BFC0 		.ascii	"\225\301\277\300D\305\037C\203\235\032'\007\026\343"
 116      44C51F43 
 116      839D1A27 
 116      0716E3
 117 0043 E2E0C082 		.ascii	"\342\340\300\202!\301\363\275\357=\260R\014\203\203"
 117      21C1F3BD 
 117      EF3DB052 
 117      0C8383
 118 0052 AF69CE7B 		.ascii	"\257i\316{\337\275\347\334s\357\273OA\370;x\205\374"
 118      DFBDE7DC 
 118      73EFBB4F 
 118      41F83B78 
 118      85FC
 119 0064 9F7581D3 		.ascii	"\237u\201\323D\311@T\263\003\314\027\224\270\366F\253"
 119      44C94054 
 119      B303CC17 
 119      94B8F646 
 119      AB
 120 0075 605D239A 		.ascii	"`]#\232p:m :\343\330\363\345\202\253\364\335\267<\231"
 120      703A6D20 
 120      3AE3D8F3 
 120      E582ABF4 
 120      DDB73C99 
 121 0089 F01A799E 		.ascii	"\360\032y\236{*x5\312'\277[\342\223/\201\311\222@\304"
 121      7B2A7835 
 121      CA27BF5B 
 121      E2932F81 
 121      C99240C4 
ARM GAS  /tmp/ccB7Otgp.s 			page 9


 122 009d 200BD794 		.ascii	" \013\327\224v\\\317\017\244v5v\021\214c9\212\3565\337"
 122      765CCF0F 
 122      A4763576 
 122      118C6339 
 122      8AEE35DF 
 123 00b1 D52FD637 		.ascii	"\325/\3267ww\307Bs:%h?X9q\012\241\010\0120\250\340\364"
 123      7777C742 
 123      733A2568 
 123      3F583971 
 123      0AA1080A 
 124 00c9 FA3D84B7 		.ascii	"\372=\204\267\323:y\004\332\217\365\372HB\3231\015\226"
 124      D33A7904 
 124      DA8FF5FA 
 124      4842D331 
 124      0D96
 125 00db 142424F9 		.ascii	"\024$$\371g\244\003\006\273K\203\377\223\301f\263\021"
 125      67A40306 
 125      BB4B83FF 
 125      93C166B3 
 125      11
 126 00ec A5061D85 		.ascii	"\245\006\035\205q1\274\367\255\321\277z\334Y\\S\335"
 126      7131BCF7 
 126      ADD1BF7A 
 126      DC595C53 
 126      DD
 127 00fd 87DE6BF5 		.ascii	"\207\336k\365fs\267\006\024\005\223\362L\306\2316)\217"
 127      6673B706 
 127      140593F2 
 127      4CC69936 
 127      298F
 128 010f 886EF2EC 		.ascii	"\210n\362\354\021\227\211>\36111 \256\0203I|\200\370"
 128      1197893E 
 128      F1313120 
 128      AE103349 
 128      7C80F8
 129 0122 8498253E 		.ascii	"\204\230%>%\346\210\253D^.\026\242hXl\336T\342\374\262"
 129      25E688AB 
 129      445E2E16 
 129      A268586C 
 129      DE54E2FC 
 130 0137 C19F4328 		.ascii	"\301\237C(\323\022Q\267Q\277\366\245\265\306\254\027"
 130      D31251B7 
 130      51BFF6A5 
 130      B5C6AC17 
 131 0147 E2A2224E 		.ascii	"\342\242\"N\011/\243\341P\\g\011\255y\336x\352\016\266"
 131      092FA3E1 
 131      505C6709 
 131      AD79DE78 
 131      EA0EB6
 132 015a A391507C 		.ascii	"\243\221P|\251\332\2657\375\370\361&\332\373\336\316"
 132      A9DAB537 
 132      FDF8F126 
 132      DAFBDECE 
 133 016a 3662CB46 		.ascii	"6b\313F\0140\314 \344\352N\211\330\372\311I\206Z\361"
 133      0C30CC20 
 133      E4EA4E89 
 133      D8FAC949 
ARM GAS  /tmp/ccB7Otgp.s 			page 10


 133      865AF1
 134 017d 010B1A89 		.ascii	"\001\013\032\211\001\232\015%\013|\204\332jM[\2765\336"
 134      019A0D25 
 134      0B7C84DA 
 134      6A4D5BBE 
 134      35DE
 135 018f 5BA1CCD7 		.ascii	"[\241\314\327\"\374X\364\006\034\356i\352\332Kts\254"
 135      22FC58F4 
 135      061CEE69 
 135      EADA4B74 
 135      73AC
 136 01a1 A4FA570A 		.ascii	"\244\372W\012%\017\264\321\350h\244,\237D#\237\032w"
 136      250FB4D1 
 136      E868A42C 
 136      9F44239F 
 136      1A77
 137 01b3 F72241C2 		.ascii	"\367\"A\302\036\244\236\266q\2238\304\236I\013e\030"
 137      1EA49EB6 
 137      719338C4 
 137      9E490B65 
 137      18
 138 01c4 F880856F 		.ascii	"\370\200\205o\262O0a\3353\2102m\313\375\363\234p\243"
 138      B24F3061 
 138      DD338832 
 138      6DCBFDF3 
 138      9C70A3
 139 01d7 B6D55A55 		.ascii	"\266\325ZUij\246\"b\2332\302l\030\277\267\313xJwa\276"
 139      696AA622 
 139      629B32C2 
 139      6C18BFB7 
 139      CB784A77 
 140 01ed 78CD0C26 		.ascii	"x\315\014&\246Q\211+\177\225s\251\\\242\265?\242\317"
 140      A651892B 
 140      7F9573A9 
 140      5CA2B53F 
 140      A2CF
 141 01ff 907466EA 		.ascii	"\220tf\352\271\246\236\263\2301r\036\320\310\233\271"
 141      B9A69EB3 
 141      9831721E 
 141      D0C89BB9 
 142 020f F1F349C9 		.ascii	"\361\363I\311\003G\237\333\247\375\271eI\354?\267\334"
 142      03479FDB 
 142      A7FDB965 
 142      49EC3FB7 
 142      DC
 143 0220 61735386 		.ascii	"asS\206\326gn\271~s\343rm\373t\252\345\217E:FY\307\312"
 143      D6676EB9 
 143      7E73E372 
 143      6DFB74AA 
 143      E58F453A 
 144 0238 8672DC36 		.ascii	"\206r\3346\353\246\315z\337\227\246\015;\210\367\272"
 144      EBA6CD7A 
 144      DF97A60D 
 144      3B88F7BA 
 145 0248 03D963A7 		.ascii	"\003\331c\247\233/&\302\265\307X\261X\272p\243z\275"
 145      9B2F26C2 
 145      B5C758B1 
ARM GAS  /tmp/ccB7Otgp.s 			page 11


 145      58BA70A3 
 145      7ABD
 146 025a 7AE94A69 		.ascii	"z\351Ji.\234\235+\335\236\213\361\326\314\314\315\331"
 146      2E9C9D2B 
 146      DD9E8BF1 
 146      D6CCCCCD 
 146      D9
 147 026b 620552FD 		.ascii	"b\005R\375\005\214z\005\357"
 147      058C7A05 
 147      EF
 148              		.text
 149              		.section	.gnu.lto_.cgraph.90f8300202d37bc3,"",%progbits
 150 0000 789C45CC 		.ascii	"x\234E\314M\016\001A\020\005\340\367\252\332\264+H\\"
 150      4D0E0141 
 150      1005E0F7 
 150      AADAB42B 
 150      485C
 151 0012 CE496A12 		.ascii	"\316Ij\022\311\014V\016@Bf\211\205\337\330\333\2218"
 151      C90C560E 
 151      40426689 
 151      85DFD8DB 
 151      9138
 152 0024 83700463 		.ascii	"\203p\004c\213\356\301\250\315\313W\225W\002B\001\334"
 152      8BEEC1A8 
 152      CDCB5795 
 152      57024201 
 152      DC
 153 0035 F11D99D1 		.ascii	"\361\035\231\321\200\341\031f\243~G\3464\376\265\243"
 153      80E11966 
 153      A37E47E6 
 153      34FEB5A3 
 154 0045 C947E31E 		.ascii	"\311G\343\036eA\323\372\306-\315UJSrCk\324X\321\222"
 154      6541D3FA 
 154      C62DCD55 
 154      4A537243 
 154      6BD458D1 
 155 005a 1A6B9AAF 		.ascii	"\032k\232\257\261\2445\177P:t/O\252x\024\247\247SIp"
 155      B1A4357F 
 155      503A742F 
 155      4FAA7814 
 155      A7A75349 
 156 006f 3BC67438 		.ascii	";\306t8T\351\321\035\224\355\270?\3441\203\263\322*"
 156      54E9D11D 
 156      94EDB83F 
 156      E43183B3 
 156      D22A
 157 0081 4F5F5EA5 		.ascii	"O_^\245\201b_\266T\233(\342\037\015\375I\330k\370\027"
 157      81625FB6 
 157      549B28E2 
 157      1F0DFD49 
 157      D86BF817 
 158 0095 EFD159E8 		.ascii	"\357\321Y\350E\307\276\012\256\371\303\343\015\221\214"
 158      45C7BE0A 
 158      AEF9C3E3 
 158      0D918C
 159 00a4 4E4C     		.ascii	"NL"
 160              		.text
ARM GAS  /tmp/ccB7Otgp.s 			page 12


 161              		.section	.gnu.lto_.vars.90f8300202d37bc3,"",%progbits
 162 0000 789C6362 		.ascii	"x\234cb`d`f``\220d\200\000\226U\214\014,\365\314\033"
 162      60646066 
 162      60609064 
 162      80009655 
 162      8C0C2CF5 
 163 0016 181919EA 		.ascii	"\030\031\031\352\031\32632\261\3263\254cd\006\222\000"
 163      19D63332 
 163      B1D633AC 
 163      63640692 
 163      00
 164 0027 444B04F2 		.ascii	"DK\004\362"
 165              		.text
 166              		.section	.gnu.lto_.refs.90f8300202d37bc3,"",%progbits
 167 0000 789C5587 		.ascii	"x\234U\207A\012\000 \014\303\322\255C\037\345\377\337"
 167      410A0020 
 167      0CC3D2AD 
 167      431FE5FF 
 167      DF
 168 0011 256378B0 		.ascii	"%cx\260!\201\006\"\201\303L*Vt\007\267\371>\216\312"
 168      21810622 
 168      81C34C2A 
 168      567407B7 
 168      F93E8ECA 
 169 0025 61A7E54F 		.ascii	"a\247\345O.$\332\000\353"
 169      2E24DA00 
 169      EB
 170              		.text
 171              		.section	.gnu.lto_.statics.90f8300202d37bc3,"",%progbits
 172 0000 789C6362 		.ascii	"x\234cb`d`b\300\016@\342\214\020&\000\000\375\000\011"
 172      60646062 
 172      C00E40E2 
 172      8C102600 
 172      00FD0009 
 173              		.text
 174              		.section	.gnu.lto_.decls.90f8300202d37bc3,"",%progbits
 175 0000 789CAD56 		.ascii	"x\234\255Vkl\024U\024\276wv\373\242e) \270\205\322V"
 175      6B6C1455 
 175      14BE7776 
 175      FBA26529 
 175      20B885D2 
 176 0015 23FC20B2 		.ascii	"#\374 \262+\221D\023CSl\"\365\201\030\324?&\233u\272"
 176      2B914413 
 176      43536C22 
 176      F58118D4 
 176      3F269B75 
 177 002a 3BD035DB 		.ascii	";\3205\333\335ew\226\327\257\261 T\023\261`\014U\213"
 177      DD657796 
 177      D7AFB120 
 177      5413B160 
 177      0C558B
 178 003d 1605B43F 		.ascii	"\026\005\264?T0\226\030\250My\025\212\255\001K\000\245"
 178      54309618 
 178      A84D7915 
 178      8AAD014B 
 178      00A5
 179 004f 248D3404 		.ascii	"$\2154\004\010OS^\241I=\3671\317\356L-p\2233sg\356="
ARM GAS  /tmp/ccB7Otgp.s 			page 13


 179      084F535E 
 179      A1493DF7 
 179      31CFEE4C 
 179      2D709333 
 180 0067 E7FBCEB9 		.ascii	"\347\373\316\271\347\336{\004\204\021iw\3415\014\255"
 180      E7DE7B04 
 180      84116977 
 180      E1350CAD 
 181 0077 603242E5 		.ascii	"`2B\345\002BY\360o>b\357f\376n\005\331\005\262\027\261"
 181      024259F0 
 181      6F3E62EF 
 181      66FE6E05 
 181      D905B217 
 182 008c 9607D206 		.ascii	"\226\007\322\006\262\037\3440H\027H7\310\237 \247A\316"
 182      B21FE430 
 182      48174837 
 182      C89F20A7 
 182      41CE
 183 009e 829C0771 		.ascii	"\202\234\007q\203\\\002\271\002r\023\244\000#Sk\343"
 183      835C02B9 
 183      027213A4 
 183      0023536B 
 183      E3
 184 00af 73886D0F 		.ascii	"s\210m\017\031\007)\347c\230\217[\333~\316\351ql\346"
 184      190729E7 
 184      63988F5B 
 184      DB7ECEE9 
 184      716CE6
 185 00c2 D7C3C705 		.ascii	"\327\303\307\005>\247\233\333\270d\321'|\037\343\270"
 185      3EA79BDB 
 185      B864D127 
 185      7C1FE3B8 
 186 00d2 2AE6398E 		.ascii	"*\3469\216{\015\344*\210\027\024\213\270\375^\220i\320"
 186      7B0DE42A 
 186      8817148B 
 186      B8FD5E90 
 186      69D0
 187 00e4 3F03EFE9 		.ascii	"?\003\357\351\230\341\365q|5&*v6\267o\214C7\367C\340"
 187      98E1F571 
 187      7C35262A 
 187      7636B76F 
 187      8C4337F7 
 188 00fa 71B0F221 		.ascii	"q\260\362!\261\233\314\361\215|\334\026>\305\234\017"
 188      B19BCCF1 
 188      8D7CDC16 
 188      3EC59C0F 
 189 010a C11CB0E1 		.ascii	"\301\034\260\3414\003\372\235\334n\026\267}\336\300"
 189      3403FA9D 
 189      DC6E16B7 
 189      7DDEC0
 190 0119 E5B0038F 		.ascii	"\345\260\003\217|\364\221\242\324)\315\353\225\252\243"
 190      7CF491A2 
 190      D429CDEB 
 190      95AAA3
 191 0128 9E496893 		.ascii	"\236Ih\223\002\255\354(0*B\001\354\201\025\177\227\366"
 191      02ADEC28 
 191      302A4201 
ARM GAS  /tmp/ccB7Otgp.s 			page 14


 191      EC81157F 
 191      97F6
 192 013a 0AF218C5 		.ascii	"\012\362\030\305\231h\273\2424\300\034\034\300\333\360"
 192      9968BBA2 
 192      34C01C1C 
 192      C0DBF0
 193 0149 24302B60 		.ascii	"$0+`4\033\265(\264\361u\346\257B\324~iw1\353\217n\031"
 193      341BB528 
 193      B4F175E6 
 193      AF42D47E 
 193      697731EB 
 194 0160 417F0758 		.ascii	"A\177\007X\014\340\355x6\303Q\030\016\371\213\370\377"
 194      0CE0ED78 
 194      36C35118 
 194      0EF98BF8 
 194      FF
 195 0171 438D4BD1 		.ascii	"C\215K\321\310\346z\0025\203\027\015k\225\252\354L\016"
 195      C8E67A02 
 195      3583170D 
 195      6B95AAEC 
 195      4C0E
 196 0183 35671B71 		.ascii	"5g\033q\3134\\7\015L9\206\317\226\214\320-F\350-\331"
 196      CB345C37 
 196      0D4C3986 
 196      CF968CD0 
 196      2D46E82D 
 197 0198 19A0B101 		.ascii	"\031\240\261\001:\200\277\307\371`\360\025\325`\367"
 197      3A80BFC7 
 197      F960F015 
 197      D560F7
 198 01a7 694F6650 		.ascii	"iOfP\265\317\232:\307\3342k\0226\004\2057\001-\301<"
 198      B5CF9A3A 
 198      C7DC326B 
 198      12360485 
 198      37012DC1 
 199 01bc 70DDDE07 		.ascii	"p\335\336\007\3002\260\317C\365z\340\354\340\215\353"
 199      C032B0CF 
 199      43F57AE0 
 199      ECE08DEB 
 200 01cc BF0BE701 		.ascii	"\277\013\347\001\376;\230\307g\347\306\263\177\370\021"
 200      FE3B98C7 
 200      67E7C6B3 
 200      7FF811
 201 01db A7986572 		.ascii	"\247\230er\207~\263Y\3140\033V{\344\034\232@|\371\001"
 201      877EB359 
 201      CC301B56 
 201      7BE41C9A 
 201      407CF901 
 202 01ef ABCEB4B7 		.ascii	"\253\316\264\267\354\356v\215\305\237\262\021\376\230"
 202      ECEE768D 
 202      C59FB211 
 202      FE98
 203 01fd 12612AFA 		.ascii	"\022a*\372\214&\302z`.\007py\276Cx\367\340\251,\253"
 203      8C26C27A 
 203      602E0770 
 203      79BE4378 
 203      F7E0A92C 
ARM GAS  /tmp/ccB7Otgp.s 			page 15


 204 0212 E8A641CC 		.ascii	"\350\246A\314Q\360\367-\227\343\312\030C\323J\363\240"
 204      51F0F72D 
 204      97E3CA18 
 204      43D34AF3 
 204      A0
 205 0223 0DABB1B9 		.ascii	"\015\253\261\271\320t\256G`\312&Z\014\314\236\312^\260"
 205      D074AE47 
 205      60CA265A 
 205      0CCC9ECA 
 205      5EB0
 206 0235 A3C6CDDC 		.ascii	"\243\306\315\334F\214\011\350\272\036\275\256Q\243\227"
 206      468C09E8 
 206      BA1EBDAE 
 206      51A397
 207 0244 EB907926 		.ascii	"\353\220y&\030}O\006\360N<\023\271\002\370;H\372\000"
 207      187D4F06 
 207      F04E3C13 
 207      B902F83B 
 207      48FA00
 208 0257 FE893E7F 		.ascii	"\376\211>\177\201\347\250\011\333\254'l)\372J9~\203"
 208      81E7A809 
 208      DBAC276C 
 208      29FA4A39 
 208      7E83
 209 0269 2CD0DDE1 		.ascii	",\320\335\341\341\034\346\277\200\356\353\221\332~\357"
 209      E11CE6BF 
 209      80EEEB91 
 209      DA7EEF
 210 0278 163F3F9E 		.ascii	"\026??\236B\337*\312f2U\315\265\026\201Lk\303\245\350"
 210      42DF2ACA 
 210      663255CD 
 210      B516814C 
 210      6BC3A5E8 
 211 028c D73C1B34 		.ascii	"\327<\03346\025\315B;H\036\034\254\253\242\213\215\270"
 211      3615CD42 
 211      3B481E1C 
 211      ACABA28B 
 211      8DB8
 212 029e DA459BA8 		.ascii	"\332E\233\250p\236\277a\301\350<\341\332\241q\265\244"
 212      709EBF61 
 212      C1E83CE1 
 212      DAA171B5 
 212      A4
 213 02af D0FC290E 		.ascii	"\320\374)\016\016\037\340)\244'\215\200~\024T\037O6"
 213      0E1FE029 
 213      A4278D80 
 213      7E14541F 
 213      4F36
 214 02c1 AE502128 		.ascii	"\256P!(OE\351\250\363R\213Dc?\3604/\301\301\314\264"
 214      4F45E9A8 
 214      F3528B44 
 214      633FF034 
 214      2FC1C1CC 
 215 02d6 EAC64CAB 		.ascii	"\352\306L\2533\003\255}\032\255!\257\211U\203\211\325"
 215      3303AD7D 
 215      1AAD21AF 
 215      89558389 
ARM GAS  /tmp/ccB7Otgp.s 			page 16


 215      D5
 216 02e7 E111AC8E 		.ascii	"\341\021\254\2168\004kC!\213\201\200Nh\346\221\311\272"
 216      38046B43 
 216      218B8180 
 216      4E68E691 
 216      C9BA
 217 02f9 D9E7AE11 		.ascii	"\331\347\256\021\326\217\215\264\336\337\320\260\266"
 217      D68F8DB4 
 217      DEDFD0B0 
 217      B6
 218 0306 79CC3EF7 		.ascii	"y\314>\367Xw3IF\227io\033\006[q\276)>\360\277_\363\240"
 218      58773349 
 218      4697696F 
 218      1B065B71 
 218      BE293EF0 
 219 031e BD6BDF21 		.ascii	"\275k\337!S)\023\300'\036\025\315\336L4\005\355\253"
 219      532913C0 
 219      271E15CD 
 219      DE4C3405 
 219      EDAB
 220 0330 7C04AD9B 		.ascii	"|\004\255\233\032\255\356\0223\247Sc\340\344x\020\236"
 220      1AADEE12 
 220      33A75363 
 220      E0E47810 
 220      9E
 221 0341 C9C4099B 		.ascii	"\311\304\011\233X\014\351\331\263\325t3\007\360\337"
 221      580CE9D9 
 221      B3D57433 
 221      07F0DF
 222 0350 FF9B462E 		.ascii	"\377\233F.\332@\216\304\376\017\224\367\361r\375\034"
 222      DA408EC4 
 222      FE0F94F7 
 222      F172FD1C 
 223 0360 C9D50891 		.ascii	"\311\325\010\221\240\033\257\345s8\027\260\353]\344"
 223      A01BAFE5 
 223      733817B0 
 223      EB5DE4
 224 036f BFA5B6E4 		.ascii	"\277\245\266\344\340d\006iEz_\353b\247\243\252\317\352"
 224      E0640669 
 224      457A5FEB 
 224      62A7A3AA 
 224      CFEA
 225 0381 335C50FA 		.ascii	"3\\P\37220S\246\010lt\251\021\270\326z\263\323k\246"
 225      323053A6 
 225      086C74A9 
 225      11B8D67A 
 225      B3D36BA6 
 226 0395 F1CFA34A 		.ascii	"\361\317\243J\217\001\347,\246\351a\311i\023\313=\032"
 226      8F01E72C 
 226      A6E961C9 
 226      6913CB3D 
 226      1A
 227 03a6 CBF6BF5E 		.ascii	"\313\366\277^0s\274h\346\370$\332\246t\034\207{\254"
 227      3073BC68 
 227      E6F824DA 
 227      A6741C87 
 227      7BAC
ARM GAS  /tmp/ccB7Otgp.s 			page 17


 228 03b8 4AE91F1E 		.ascii	"J\351\037\036.U\313\274N\227~B\367b\373\022\3562\267"
 228      2E55CBBC 
 228      4E977E42 
 228      F762FB12 
 228      EE32B7
 229 03cb F62CFA59 		.ascii	"\366,\372Y\251\257`\332\374\312(\322K\027v{\250\367"
 229      A9AF60DA 
 229      FCCA28D2 
 229      4B17767B 
 229      A8F7
 230 03dd FF51815F 		.ascii	"\377Q\201_$E\374Z\323\210\334hhP\232\031\221\211\250"
 230      2445FC5A 
 230      D388DC68 
 230      68509A19 
 230      9189A8
 231 03f0 815790DA 		.ascii	"\201W\220\332\015\332AoP\307\270\225g\274?u[<tj,\256"
 231      0DDA416F 
 231      50C7B895 
 231      67BC3F75 
 231      5B3C746A 
 232 0406 E389D65C 		.ascii	"\343\211\326\\\322Bx\314\260\320_\377\376\274\256tC"
 232      D24278CC 
 232      B0D05FFF 
 232      FEBCAE74 
 232      43
 233 0417 0F20E1BC 		.ascii	"\017 \341\274\253C\013\036\307i\256\260\220V\313RXx"
 233      AB430B1E 
 233      C769AEB0 
 233      9056CB52 
 233      5878
 234 0429 63A905F5 		.ascii	"c\251\005\365\263\312\277\220B\366\000d\246\312\331"
 234      B3CABF90 
 234      42F60064 
 234      A6CAD9
 235 0438 3231806F 		.ascii	"21\200oa\022\302\333\031k\330\333\206\032\266/c\015"
 235      6112C2DB 
 235      196BD8DB 
 235      861AB62F 
 235      630D
 236 044a EBB6AB9A 		.ascii	"\353\266\253\232xI\330\277\243\303\333\350\031}cj\323"
 236      7849D8BF 
 236      A3C3DBE8 
 236      197D636A 
 236      D3
 237 045b 15AFD76E 		.ascii	"\025\257\327nv\000\337\207\"\"\200\2070+;\212\364\276"
 237      7600DF87 
 237      22228087 
 237      302B3B8A 
 237      F4BE
 238 046d D61DC6C4 		.ascii	"\326\035\306\304\371S\016\333{4m\373\204\270g\254\235"
 238      F9530EDB 
 238      7B346DFB 
 238      84B867AC 
 238      9D
 239 047e CFD22525 		.ascii	"\317\322%%\001\032\270\223\363p\325\263\245\254;\340"
 239      011AB893 
 239      F370D5B3 
ARM GAS  /tmp/ccB7Otgp.s 			page 18


 239      A5AC3BE0 
 240 048e 58D62982 		.ascii	"X\326)\202\201D\277F\342\312\351\354\207+y\231e\001"
 240      8144BF46 
 240      E2CAE9EC 
 240      872B7999 
 240      6501
 241 04a0 5DD04C0E 		.ascii	"]\320L\016\216\342V\30620\203\305\353\232\305\2411Y"
 241      8EE256C6 
 241      323083C5 
 241      EB9AC5A1 
 241      3159
 242 04b2 2CB32C1C 		.ascii	",\263,\034\333\212\356\000\276K\253\307a\372\254\023"
 242      DB8AEE00 
 242      BE4BABC7 
 242      61FAAC13 
 243 04c2 C8739D30 		.ascii	"\310s\2350j%i\011\362 \320\261\017\362z=\310\026\263"
 243      6A256909 
 243      F220D0B1 
 243      0FF27A3D 
 243      C816B3
 244 04d5 1516B286 		.ascii	"\025\026\262\206m\312\324\354&\006\360\006\201\035\020"
 244      6DCAD4EC 
 244      2606F006 
 244      811D10
 245 04e4 34D5158D 		.ascii	"4\325\025\215\011L\261'R/\350\311Z\220g\354\031\223"
 245      094CB127 
 245      522FE8C9 
 245      5A9067EC 
 245      1993
 246 04f6 5B9F07E1 		.ascii	"[\237\007\341\276c8mO\034Yd\317\347C\301|\334\376\013"
 246      BE63386D 
 246      4F1C5964 
 246      CFE743C1 
 246      7CDCFE0B 
 247 050a 0798A02F 		.ascii	"\007\230\240/\347\032tO\3612\2370=O\215\007\373 =\330"
 247      E71A744F 
 247      F1329F30 
 247      3D4F8D07 
 247      FB203DD8 
 248 051e D7B955A8 		.ascii	"\327\271U\250\201\246\313\332\301n9a\010\324\307\000"
 248      81A6CBDA 
 248      C16E3961 
 248      08D4C700 
 249 052e 55823E71 		.ascii	"U\202>qoUrM\220\304\014_P\012gZ$\365\244m\364\260\335"
 249      6F55724D 
 249      90C40C5F 
 249      500A675A 
 249      24F5A46D 
 250 0545 A9DAEFD7 		.ascii	"\251\332\357\327\355\027s\373\233\037 \264\237\332\206"
 250      ED1773FB 
 250      9B1F20B4 
 250      9FDA86
 251 0554 76FA28A9 		.ascii	"v\372(\251\024\300\233\364\374\300%\350\033\360\253"
 251      14C09BF4 
 251      FCC025E8 
 251      1BF0AB
 252 0563 B182B3B8 		.ascii	"\261\202\263\270\322\344\241S\206\271O\271l\033`V\234"
ARM GAS  /tmp/ccB7Otgp.s 			page 19


 252      D2E4A153 
 252      86B94FB9 
 252      6C1B6056 
 252      9C
 253 0574 0F16D341 		.ascii	"\017\026\323A\222\265E\372ff\011l\236M\312\332C3(\304"
 253      92B545FA 
 253      6666096C 
 253      9E4DCADA 
 253      433328C4 
 254 0588 C9120319 		.ascii	"\311\022\003\031\346\274\226\240\226\264\356q<;\266"
 254      E6BC96A0 
 254      96B4EE71 
 254      3C3BB6
 255 0597 E8B42D7A 		.ascii	"\350\264-zWa\355\355\365\032m\365z\035\361>\267\325"
 255      5761EDED 
 255      F51A6DF5 
 255      7A1DF13E 
 255      B7D5
 256 05a9 3BE3A8F7 		.ascii	";\343\250\367\205\255^\237\243\336\227\266z\003\216"
 256      85AD5E9F 
 256      A3DE97B6 
 256      7A038E
 257 05b8 7A4DB67A 		.ascii	"zM\266z\235\216z[\015\307\304\370Z\2516\236\\\035L\304"
 257      9D8E7A5B 
 257      0DC7C4F8 
 257      5AA9369E 
 257      5C1D4CC4 
 258 05cc E3D1A09C 		.ascii	"\343\321\240\234\275\360\365\267\313*\321,\237\317_"
 258      BDF0F5B7 
 258      CB2AD12C 
 258      9FCF5F
 259 05db 5913A98E 		.ascii	"Y\023\251\216,~\323\037O\371\223\262?\022\013E\323a"
 259      2C7ED31F 
 259      4FF993B2 
 259      3F120B45 
 259      D361
 260 05ed C91FAA81 		.ascii	"\311\037\252\201\371dn\312W\203\362\251R\215$\206\245"
 260      F9646ECA 
 260      5783F2A9 
 260      528D2486 
 260      A5
 261 05fe 644EA226 		.ascii	"dN\242&\030\223V\3119\265\011\372\316NE\326HA\371U\177"
 261      189356C9 
 261      39B509FA 
 261      CE4E45D6 
 261      4841F955 
 262 0613 4DBC56F2 		.ascii	"M\274V\362G\305tR\212\205$\377\202%\213\346,\254\254"
 262      47C57452 
 262      8A8524FF 
 262      82258BE6 
 262      2CACAC
 263 0626 F4574762 		.ascii	"\364WGb~\000\211F\252\375\313B!\277\230\254\235\023"
 263      7E008946 
 263      AAFDCB42 
 263      21BF98AC 
 263      9D13
 264 0638 8BC7A439 		.ascii	"\213\307\2449\222X\035\361\317\363=\347\233\247A\246"
ARM GAS  /tmp/ccB7Otgp.s 			page 20


 264      92581DF1 
 264      CFF33DE7 
 264      9BA741A6 
 265 0648 E470585A 		.ascii	"\344pXZ\012p\0360\035\257~O\012\311Ab\274\000\230,\223"
 265      0A701E30 
 265      1DAF7E4F 
 265      0AC94162 
 265      BC00982C 
 266 065d E4A5E958 		.ascii	"\344\245\351X((\317tf\034\212'%B\030,$\222\361\025\021"
 266      2828CF74 
 266      661C8A27 
 266      2542182C 
 266      2492F115 
 267 0672 203C3E96 		.ascii	" <>\226\216F\265\257R\203\276,\245db\201\274\231\253"
 267      8E46B5AF 
 267      5283BE2C 
 267      A5646281 
 267      BC99AB
 268 0685 21E4A688 		.ascii	"!\344\246\210\364kn0%\311\351\304\024\376!\255\222B"
 268      F46B6E30 
 268      25C9E9C4 
 268      14FE21AD 
 268      9242
 269 0697 6959F225 		.ascii	"iY\362%\304\244\354{\306c\376[\030\252y\003~,\246\254"
 269      C4A4EC7B 
 269      C663FE5B 
 269      18AA7903 
 269      7E2CA6AC 
 270 06ab 5F8E45E4 		.ascii	"_\216E\344q\354\307KII\312g\335\005\321h<\224\025|\021"
 270      71ECC74B 
 270      4949CA67 
 270      DD05D168 
 270      3C94157C 
 271 06c0 BA054102 		.ascii	"\272\005A\002\031\024S)))O\263a\004nL`\232\257\305\305"
 271      19145329 
 271      29294FB3 
 271      61046E4C 
 271      609AAFC5 
 272 06d5 F0826452 		.ascii	"\360\202dR\\\355\252M\314\025V\212\271d8$\246$w\250"
 272      5CEDAA4D 
 272      CC15568A 
 272      B9643824 
 272      A62477A8 
 273 06e9 464CBA63 		.ascii	"FL\272cb\255\224E\251\302\200\230\014\307W\306r8\255"
 273      62AD9445 
 273      A9C28098 
 273      0CC757C6 
 273      7238AD
 274 06fc 828428CB 		.ascii	"\202\204(\313R2F\311\216\323\374\234;\311\227\214\207"
 274      523246C9 
 274      8ED3FC9C 
 274      3BC9978C 
 274      87
 275 070d 4559F4E9 		.ascii	"EY\364\351\277\212\027\321\374(#\200\251\247\313\226"
 275      BF8A17D1 
 275      FC282380 
 275      A9A7CB96 
ARM GAS  /tmp/ccB7Otgp.s 			page 21


 276 071d A7A5B4E4 		.ascii	"\247\245\264\344\017K\364\215\376\003\272\270$g"
 276      0F4BF48D 
 276      FE03BAB8 
 276      2467
 277              		.text
 278              		.section	.gnu.lto_.symtab.90f8300202d37bc3,"",%progbits
 279 0000 6368506F 		.ascii	"chPoolObjectInit\000\000\002\000\000\000\000\000\000"
 279      6F6C4F62 
 279      6A656374 
 279      496E6974 
 279      00000200 
 280 0019 000000CC 		.ascii	"\000\000\000\314\000\000\000chPoolFree\000\000\002\000"
 280      00000063 
 280      68506F6F 
 280      6C467265 
 280      65000002 
 281 002e 00000000 		.ascii	"\000\000\000\000\000\000\000\000\322\000\000\000chP"
 281      00000000 
 281      D2000000 
 281      636850
 282 003d 6F6F6C41 		.ascii	"oolAlloc\000\000\002\000\000\000\000\000\000\000\000"
 282      6C6C6F63 
 282      00000200 
 282      00000000 
 282      000000
 283 0050 00D70000 		.ascii	"\000\327\000\000\000_test_assert\000\000\002\000\000"
 283      005F7465 
 283      73745F61 
 283      73736572 
 283      74000002 
 284 0066 00000000 		.ascii	"\000\000\000\000\000\000\000\333\000\000\000chPoolL"
 284      000000DB 
 284      00000063 
 284      68506F6F 
 284      6C4C
 285 0078 6F616441 		.ascii	"oadArray\000\000\002\000\000\000\000\000\000\000\000"
 285      72726179 
 285      00000200 
 285      00000000 
 285      000000
 286 008b 00E30000 		.ascii	"\000\343\000\000\000patternpools\000\000\000\000\000"
 286      00706174 
 286      7465726E 
 286      706F6F6C 
 286      73000000 
 287 00a1 00000000 		.ascii	"\000\000\000\000\000\000\000\361\000\000\000testpoo"
 287      000000F1 
 287      00000074 
 287      65737470 
 287      6F6F
 288 00b3 6C733100 		.ascii	"ls1\000\000\000\000\000\000\000\000\000\000\000\000"
 288      00000000 
 288      00000000 
 288      000000
 289 00c2 0C010000 		.ascii	"\014\001\000\000wa\000\000\002\000\000\000\000\000\000"
 289      77610000 
 289      02000000 
ARM GAS  /tmp/ccB7Otgp.s 			page 22


 289      000000
 290 00d1 000000EC 		.ascii	"\000\000\000\354\000\000\000"
 290      000000
 291              		.text
 292              		.section	.gnu.lto_.opts,"",%progbits
 293 0000 272D6444 		.ascii	"'-dD''-mcpu=cortex-m3''-mno-thumb-interwork''-mthum"
 293      27272D6D 
 293      6370753D 
 293      636F7274 
 293      65782D6D 
 294 0033 6227272D 		.ascii	"b''-ggdb''-g3''-O2''-fomit-frame-pointer''-falign-f"
 294      67676462 
 294      27272D67 
 294      3327272D 
 294      4F322727 
 295 0066 756E6374 		.ascii	"unctions=16''-ffunction-sections''-fdata-sections''"
 295      696F6E73 
 295      3D313627 
 295      272D6666 
 295      756E6374 
 296 0099 2D666E6F 		.ascii	"-fno-common''-flto'\000"
 296      2D636F6D 
 296      6D6F6E27 
 296      272D666C 
 296      746F2700 
 297              		.text
 298              		.cfi_sections	.debug_frame
 299              		.section	.text.null_provider,"ax",%progbits
 300              		.align	2
 301              		.p2align 4,,15
 302              		.thumb
 303              		.thumb_func
 304              		.type	null_provider, %function
 305              	null_provider:
 306              	.LFB170:
 307              		.file 1 "../ChibiOS/test/rt/testpools.c"
 308              		.loc 1 60 0
 309              		.cfi_startproc
 310              		@ args = 0, pretend = 0, frame = 0
 311              		@ frame_needed = 0, uses_anonymous_args = 0
 312              		@ link register save eliminated.
 313              	.LVL0:
 314              		.loc 1 64 0
 315 0000 0020     		movs	r0, #0
 316              	.LVL1:
 317 0002 7047     		bx	lr
 318              		.cfi_endproc
 319              	.LFE170:
 320              		.size	null_provider, .-null_provider
 321 0004 AFF30080 		.section	.text.pools1_setup,"ax",%progbits
 321      AFF30080 
 321      AFF30080 
 322              		.align	2
 323              		.p2align 4,,15
 324              		.thumb
 325              		.thumb_func
 326              		.type	pools1_setup, %function
ARM GAS  /tmp/ccB7Otgp.s 			page 23


 327              	pools1_setup:
 328              	.LFB171:
 329              		.loc 1 66 0
 330              		.cfi_startproc
 331              		@ args = 0, pretend = 0, frame = 0
 332              		@ frame_needed = 0, uses_anonymous_args = 0
 333              		@ link register save eliminated.
 334              		.loc 1 68 0
 335 0000 40F20000 		movw	r0, #:lower16:.LANCHOR0
 336 0004 C0F20000 		movt	r0, #:upper16:.LANCHOR0
 337 0008 4FF4A471 		mov	r1, #328
 338 000c 0022     		movs	r2, #0
 339              		.loc 1 69 0
 340              		.loc 1 68 0
 341 000e FFF7FEBF 		b	chPoolObjectInit
 342              	.LVL2:
 343              		.cfi_endproc
 344              	.LFE171:
 345              		.size	pools1_setup, .-pools1_setup
 346 0012 00BFAFF3 		.section	.text.pools1_execute,"ax",%progbits
 346      0080AFF3 
 346      0080AFF3 
 346      0080
 347              		.align	2
 348              		.p2align 4,,15
 349              		.thumb
 350              		.thumb_func
 351              		.type	pools1_execute, %function
 352              	pools1_execute:
 353              	.LFB172:
 354              		.loc 1 71 0
 355              		.cfi_startproc
 356              		@ args = 0, pretend = 0, frame = 0
 357              		@ frame_needed = 0, uses_anonymous_args = 0
 358 0000 38B5     		push	{r3, r4, r5, lr}
 359              	.LCFI0:
 360              		.cfi_def_cfa_offset 16
 361              		.cfi_offset 3, -16
 362              		.cfi_offset 4, -12
 363              		.cfi_offset 5, -8
 364              		.cfi_offset 14, -4
 365              		.loc 1 75 0
 366 0002 574C     		ldr	r4, .L9
 367 0004 0522     		movs	r2, #5
 368 0006 2568     		ldr	r5, [r4, #0]
 369 0008 5648     		ldr	r0, .L9+4
 370 000a 2946     		mov	r1, r5
 371 000c FFF7FEFF 		bl	chPoolLoadArray
 372              	.LVL3:
 373              		.loc 1 79 0
 374 0010 5448     		ldr	r0, .L9+4
 375 0012 FFF7FEFF 		bl	chPoolAlloc
 376              	.LVL4:
 377 0016 011C     		adds	r1, r0, #0
 378 0018 18BF     		it	ne
 379 001a 0121     		movne	r1, #1
 380 001c 0120     		movs	r0, #1
ARM GAS  /tmp/ccB7Otgp.s 			page 24


 381 001e FFF7FEFF 		bl	_test_assert
 382              	.LVL5:
 383 0022 0028     		cmp	r0, #0
 384 0024 40F08A80 		bne	.L3
 385              	.LVL6:
 386 0028 4E48     		ldr	r0, .L9+4
 387 002a FFF7FEFF 		bl	chPoolAlloc
 388              	.LVL7:
 389 002e 011C     		adds	r1, r0, #0
 390 0030 18BF     		it	ne
 391 0032 0121     		movne	r1, #1
 392 0034 0120     		movs	r0, #1
 393 0036 FFF7FEFF 		bl	_test_assert
 394              	.LVL8:
 395 003a 0028     		cmp	r0, #0
 396 003c 7ED1     		bne	.L3
 397              	.LVL9:
 398 003e 4948     		ldr	r0, .L9+4
 399 0040 FFF7FEFF 		bl	chPoolAlloc
 400              	.LVL10:
 401 0044 011C     		adds	r1, r0, #0
 402 0046 18BF     		it	ne
 403 0048 0121     		movne	r1, #1
 404 004a 0120     		movs	r0, #1
 405 004c FFF7FEFF 		bl	_test_assert
 406              	.LVL11:
 407 0050 0028     		cmp	r0, #0
 408 0052 73D1     		bne	.L3
 409              	.LVL12:
 410 0054 4348     		ldr	r0, .L9+4
 411 0056 FFF7FEFF 		bl	chPoolAlloc
 412              	.LVL13:
 413 005a 011C     		adds	r1, r0, #0
 414 005c 18BF     		it	ne
 415 005e 0121     		movne	r1, #1
 416 0060 0120     		movs	r0, #1
 417 0062 FFF7FEFF 		bl	_test_assert
 418              	.LVL14:
 419 0066 0028     		cmp	r0, #0
 420 0068 68D1     		bne	.L3
 421              	.LVL15:
 422 006a 3E48     		ldr	r0, .L9+4
 423 006c FFF7FEFF 		bl	chPoolAlloc
 424              	.LVL16:
 425 0070 011C     		adds	r1, r0, #0
 426 0072 18BF     		it	ne
 427 0074 0121     		movne	r1, #1
 428 0076 0120     		movs	r0, #1
 429 0078 FFF7FEFF 		bl	_test_assert
 430              	.LVL17:
 431 007c 0028     		cmp	r0, #0
 432 007e 5DD1     		bne	.L3
 433              	.LVL18:
 434              		.loc 1 82 0
 435 0080 3848     		ldr	r0, .L9+4
 436 0082 FFF7FEFF 		bl	chPoolAlloc
 437              	.LVL19:
ARM GAS  /tmp/ccB7Otgp.s 			page 25


 438 0086 D0F10101 		rsbs	r1, r0, #1
 439 008a 38BF     		it	cc
 440 008c 0021     		movcc	r1, #0
 441 008e 0220     		movs	r0, #2
 442 0090 FFF7FEFF 		bl	_test_assert
 443              	.LVL20:
 444 0094 0028     		cmp	r0, #0
 445 0096 51D1     		bne	.L3
 446              	.LBB4:
 447              	.LBB5:
 448              		.loc 1 86 0
 449 0098 3248     		ldr	r0, .L9+4
 450 009a 2946     		mov	r1, r5
 451 009c FFF7FEFF 		bl	chPoolFree
 452              	.LVL21:
 453 00a0 3048     		ldr	r0, .L9+4
 454 00a2 6168     		ldr	r1, [r4, #4]
 455 00a4 FFF7FEFF 		bl	chPoolFree
 456              	.LVL22:
 457 00a8 2E48     		ldr	r0, .L9+4
 458 00aa A168     		ldr	r1, [r4, #8]
 459 00ac FFF7FEFF 		bl	chPoolFree
 460              	.LVL23:
 461 00b0 2C48     		ldr	r0, .L9+4
 462 00b2 E168     		ldr	r1, [r4, #12]
 463 00b4 FFF7FEFF 		bl	chPoolFree
 464              	.LVL24:
 465 00b8 2169     		ldr	r1, [r4, #16]
 466 00ba 2A48     		ldr	r0, .L9+4
 467 00bc FFF7FEFF 		bl	chPoolFree
 468              	.LVL25:
 469              		.loc 1 90 0
 470 00c0 2848     		ldr	r0, .L9+4
 471 00c2 FFF7FEFF 		bl	chPoolAlloc
 472              	.LVL26:
 473 00c6 011C     		adds	r1, r0, #0
 474 00c8 18BF     		it	ne
 475 00ca 0121     		movne	r1, #1
 476 00cc 0320     		movs	r0, #3
 477 00ce FFF7FEFF 		bl	_test_assert
 478              	.LVL27:
 479 00d2 0028     		cmp	r0, #0
 480 00d4 32D1     		bne	.L3
 481              	.LVL28:
 482 00d6 2348     		ldr	r0, .L9+4
 483 00d8 FFF7FEFF 		bl	chPoolAlloc
 484              	.LVL29:
 485 00dc 011C     		adds	r1, r0, #0
 486 00de 18BF     		it	ne
 487 00e0 0121     		movne	r1, #1
 488 00e2 0320     		movs	r0, #3
 489 00e4 FFF7FEFF 		bl	_test_assert
 490              	.LVL30:
 491 00e8 40BB     		cbnz	r0, .L3
 492              	.LVL31:
 493 00ea 1E48     		ldr	r0, .L9+4
 494 00ec FFF7FEFF 		bl	chPoolAlloc
ARM GAS  /tmp/ccB7Otgp.s 			page 26


 495              	.LVL32:
 496 00f0 011C     		adds	r1, r0, #0
 497 00f2 18BF     		it	ne
 498 00f4 0121     		movne	r1, #1
 499 00f6 0320     		movs	r0, #3
 500 00f8 FFF7FEFF 		bl	_test_assert
 501              	.LVL33:
 502 00fc F0B9     		cbnz	r0, .L3
 503              	.LVL34:
 504 00fe 1948     		ldr	r0, .L9+4
 505 0100 FFF7FEFF 		bl	chPoolAlloc
 506              	.LVL35:
 507 0104 011C     		adds	r1, r0, #0
 508 0106 18BF     		it	ne
 509 0108 0121     		movne	r1, #1
 510 010a 0320     		movs	r0, #3
 511 010c FFF7FEFF 		bl	_test_assert
 512              	.LVL36:
 513 0110 A0B9     		cbnz	r0, .L3
 514              	.LVL37:
 515 0112 1448     		ldr	r0, .L9+4
 516 0114 FFF7FEFF 		bl	chPoolAlloc
 517              	.LVL38:
 518 0118 011C     		adds	r1, r0, #0
 519 011a 18BF     		it	ne
 520 011c 0121     		movne	r1, #1
 521 011e 0320     		movs	r0, #3
 522 0120 FFF7FEFF 		bl	_test_assert
 523              	.LVL39:
 524 0124 50B9     		cbnz	r0, .L3
 525              	.LVL40:
 526              		.loc 1 93 0
 527 0126 0F48     		ldr	r0, .L9+4
 528 0128 FFF7FEFF 		bl	chPoolAlloc
 529              	.LVL41:
 530 012c D0F10101 		rsbs	r1, r0, #1
 531 0130 38BF     		it	cc
 532 0132 0021     		movcc	r1, #0
 533 0134 0420     		movs	r0, #4
 534 0136 FFF7FEFF 		bl	_test_assert
 535              	.LVL42:
 536 013a 00B1     		cbz	r0, .L8
 537              	.LVL43:
 538              	.L3:
 539 013c 38BD     		pop	{r3, r4, r5, pc}
 540              	.LVL44:
 541              	.L8:
 542              		.loc 1 96 0
 543 013e 1021     		movs	r1, #16
 544 0140 094A     		ldr	r2, .L9+8
 545 0142 0848     		ldr	r0, .L9+4
 546 0144 FFF7FEFF 		bl	chPoolObjectInit
 547              	.LVL45:
 548              		.loc 1 97 0
 549 0148 0648     		ldr	r0, .L9+4
 550 014a FFF7FEFF 		bl	chPoolAlloc
 551              	.LVL46:
ARM GAS  /tmp/ccB7Otgp.s 			page 27


 552 014e D0F10101 		rsbs	r1, r0, #1
 553 0152 38BF     		it	cc
 554 0154 0021     		movcc	r1, #0
 555 0156 0520     		movs	r0, #5
 556              	.LBE5:
 557              	.LBE4:
 558              		.loc 1 98 0
 559 0158 BDE83840 		pop	{r3, r4, r5, lr}
 560              	.LBB7:
 561              	.LBB6:
 562              		.loc 1 97 0
 563 015c FFF7FEBF 		b	_test_assert
 564              	.LVL47:
 565              	.L10:
 566              		.align	2
 567              	.L9:
 568 0160 00000000 		.word	wa
 569 0164 00000000 		.word	.LANCHOR0
 570 0168 00000000 		.word	null_provider
 571              	.LBE6:
 572              	.LBE7:
 573              		.cfi_endproc
 574              	.LFE172:
 575              		.size	pools1_execute, .-pools1_execute
 576              		.global	patternpools
 577              		.global	testpools1
 578 016c AFF30080 		.section	.rodata.str1.4,"aMS",%progbits,1
 579              		.align	2
 580              	.LC0:
 581 0000 4D656D6F 		.ascii	"Memory Pools, queue/dequeue\000"
 581      72792050 
 581      6F6F6C73 
 581      2C207175 
 581      6575652F 
 582              		.section	.rodata.patternpools,"a",%progbits
 583              		.align	2
 584              		.type	patternpools, %object
 585              		.size	patternpools, 8
 586              	patternpools:
 587 0000 00000000 		.word	testpools1
 588 0004 00000000 		.word	0
 589              		.section	.data.mp1,"aw",%progbits
 590              		.align	2
 591              		.set	.LANCHOR0,. + 0
 592              		.type	mp1, %object
 593              		.size	mp1, 12
 594              	mp1:
 595 0000 00000000 		.word	0
 596 0004 48010000 		.word	328
 597 0008 00000000 		.word	0
 598              		.section	.rodata.testpools1,"a",%progbits
 599              		.align	2
 600              		.type	testpools1, %object
 601              		.size	testpools1, 16
 602              	testpools1:
 603 0000 00000000 		.word	.LC0
 604 0004 00000000 		.word	pools1_setup
ARM GAS  /tmp/ccB7Otgp.s 			page 28


 605 0008 00000000 		.word	0
 606 000c 00000000 		.word	pools1_execute
 607              		.text
 608              	.Letext0:
 609              		.file 2 "/home/laurence/ARM-GCC/bin/../lib/gcc/arm-none-eabi/4.7.4/include/stddef.h"
 610              		.file 3 "/home/laurence/ARM-GCC/bin/../lib/gcc/arm-none-eabi/4.7.4/../../../../arm-none-eabi/inclu
 611              		.file 4 "../ChibiOS/os/rt/ports/ARMCMx/compilers/GCC/chtypes.h"
 612              		.file 5 "../ChibiOS/os/rt/include/chsystypes.h"
 613              		.file 6 "../ChibiOS/os/rt/include/chschd.h"
 614              		.file 7 "../ChibiOS/os/rt/ports/ARMCMx/chcore.h"
 615              		.file 8 "../ChibiOS/os/rt/ports/ARMCMx/chcore_v7m.h"
 616              		.file 9 "../ChibiOS/os/rt/include/chtm.h"
 617              		.file 10 "../ChibiOS/os/rt/include/chmtx.h"
 618              		.file 11 "../ChibiOS/os/rt/include/chmemcore.h"
 619              		.file 12 "../ChibiOS/os/rt/include/chmempools.h"
 620              		.file 13 "../ChibiOS/test/rt/test.h"
 621              		.file 14 "../ChibiOS/os/ext/CMSIS/include/core_cm3.h"