ARM GAS  /tmp/ccxVeSjc.s 			page 1


   1              		.syntax unified
   2              		.cpu cortex-m3
   3              		.fpu softvfp
   4              		.eabi_attribute 20, 1
   5              		.eabi_attribute 21, 1
   6              		.eabi_attribute 23, 3
   7              		.eabi_attribute 24, 1
   8              		.eabi_attribute 25, 1
   9              		.eabi_attribute 26, 1
  10              		.eabi_attribute 30, 2
  11              		.eabi_attribute 34, 1
  12              		.eabi_attribute 18, 4
  13              		.thumb
  14              		.file	"usbcfg.c"
  15              		.text
  16              	.Ltext0:
  17              		.section	.gnu.lto_.jmpfuncs.40ff45a1f15b9f05,"",%progbits
  18 0000 789C6362 		.ascii	"x\234cb`d`g\300\016\342\201\230\013\210\231\031\330"
  18      60646067 
  18      C00EE281 
  18      980B8899 
  18      19D8
  19 0012 18199919 		.ascii	"\030\031\231\031\230$\031R\031\031\200\352\231\252\030"
  19      98241952 
  19      191980EA 
  19      99AA18
  20 0021 7E3648A4 		.ascii	"~6H\244222f22\034[\363R\014\254\006*\315\204\"\315\370"
  20      32323266 
  20      32321C5B 
  20      F3520CAC 
  20      062ACD84 
  21 0038 C60B28C9 		.ascii	"\306\013(\311\010\026\342Hed\002\0121\0359\275\013\250"
  21      0816E248 
  21      6564020A 
  21      311D39BD 
  21      0BA8
  22 004a 8E818999 		.ascii	"\216\201\211\231\221\005H\2250p\226\026'%\247\245\353"
  22      91054895 
  22      30709616 
  22      2725A7A5 
  22      EB
  23 005b 25330000 		.ascii	"%3\000\000\271\233\023\237"
  23      B99B139F 
  24              		.text
  25              		.section	.gnu.lto_.inline.40ff45a1f15b9f05,"",%progbits
  26 0000 789C6D8E 		.ascii	"x\234m\216\301\015B1\014Cm7\320\"\004\364\312\251\\"
  26      C10D4231 
  26      0C436D37 
  26      D02204F4 
  26      CAA95C
  27 0013 59821118 		.ascii	"Y\202\021\030\002\364\367\350\010\214\320\031\230\000"
  27      02F4F7E8 
  27      088CD019 
  27      9800
  28 0021 310D6390 		.ascii	"1\015c\220\362\371\300\201HQ\336\301v,\020+\374\237"
  28      F2F9C081 
  28      4851DEC1 
ARM GAS  /tmp/ccxVeSjc.s 			page 2


  28      762C102B 
  28      FC9F
  29 0033 EBFB0660 		.ascii	"\353\373\006`\035\0319l10\270a\"}\310\371\324\311:\235"
  29      1D19396C 
  29      3130B861 
  29      227DC8F9 
  29      D4C93A9D 
  30 0047 272201F9 		.ascii	"'\"\001\371\316<d\336\212\220o\207J\330#Ve\350\036\252"
  30      CE3C64DE 
  30      8A906F87 
  30      4AD82356 
  30      65E81EAA 
  31 005b 76D9F336 		.ascii	"v\331\3636{B\326\312(2\357\023.G|AK\270JX$\352\3477"
  31      7B42D6CA 
  31      2832EF13 
  31      2E477C41 
  31      4BB84A58 
  32 0073 5FD54653 		.ascii	"_\325FSj%u\235\201\356x\002\211\216\022\027"
  32      6A25759D 
  32      81EE7802 
  32      898E1217 
  33              		.text
  34              		.section	.gnu.lto_.pureconst.40ff45a1f15b9f05,"",%progbits
  35 0000 789C6362 		.ascii	"x\234cb`d`f```g\200\000 \233\321\212I\002\000\001\337"
  35      60646066 
  35      60606067 
  35      8000209B 
  35      D18A4902 
  36 0017 0066     		.ascii	"\000f"
  37              		.text
  38              		.section	.gnu.lto_get_descriptor.40ff45a1f15b9f05,"",%progbits
  39 0000 789C7D53 		.ascii	"x\234}S\277k\024Q\020\236y\357\355\333\025%\\\010b\322"
  39      BF6B1451 
  39      109E79EF 
  39      EDDB1525 
  39      5C0862D2 
  40 0014 C4E34891 		.ascii	"\304\343H\221J-\315\177\020\260\362@Hs\030\357n\015"
  40      4A2DCD7F 
  40      10B0F240 
  40      487318EF 
  40      6E0D
  41 0026 0712823F 		.ascii	"\007\022\202? \332\334\313%\235\026\207e*\203\"baa!"
  41      20DADCCB 
  41      259D1687 
  41      652A8322 
  41      62616121 
  42 003a BB29A2E0 		.ascii	"\273)\242\340)z\034\251\016\253\024)NL\021\202\205M"
  42      297A1CA9 
  42      0EAB1429 
  42      4E4C1182 
  42      854D
  43 004c 2070CECC 		.ascii	" p\316\314\356\036\027O\362\226\235\231\235\357\233"
  43      EE1E174F 
  43      F2969D99 
  43      9DEF9B
  44 005b 79F366DE 		.ascii	"y\363f\336*@zFW\231\336\033\032\240@\032\003@\325\334"
  44      2A407A46 
ARM GAS  /tmp/ccxVeSjc.s 			page 3


  44      5799DE1B 
  44      1AA0401A 
  44      0340D5DC 
  45 006f 0558CB2B 		.ascii	"\005X\313+c[\023\340\362\276H-\322$6\372\011\305(\357"
  45      635B13E0 
  45      F2BE482D 
  45      D22436FA 
  45      09C528EF 
  46 0083 CD570037 		.ascii	"\315W\0007k\017|p\327\274\314o3\303Gd\203\266\255+m"
  46      6B0F7C70 
  46      D7BCCC6F 
  46      33C34764 
  46      83B6AD2B 
  47 0098 3CEB63FD 		.ascii	"<\353c\375\226\224\240\012\260\345\334f\363sc\276\261"
  47      9694A00A 
  47      B0E5DC66 
  47      F37363BE 
  47      B1
  48 00a9 DFEF5F0E 		.ascii	"\337\357_\016\331{\033\241\275\371KMA\210\010y`\255"
  48      D97B1BA1 
  48      BDF94B4D 
  48      41880879 
  48      60AD
  49 00bb C09C2E56 		.ascii	"\300\234.V\342\232CqZ\342N\342#<3\256\027\035\351\356"
  49      E29A4371 
  49      5AE24EE2 
  49      233C33AE 
  49      171DE9EE 
  50 00cf B6FDA83E 		.ascii	"\266\375\250>\355\367\3533\360\322\271\347\315u7\037"
  50      EDF7EB33 
  50      F0D2B9E7 
  50      CD75371F 
  51 00df A2517001 		.ascii	"\242Qp\0019E'\332\321\243)t\302\375\335p\223!z\012\306"
  51      394527DA 
  51      D1A32974 
  51      C2FDDD70 
  51      93217A0A 
  52 00f4 85DB8DDE 		.ascii	"\205\333\215\336\247\334 \345\312\251\210\001\377\360"
  52      A7DC20E5 
  52      CAA98801 
  52      FFF0
  53 0102 2F097FEF 		.ascii	"/\011\177\357\372\231l\267\356fC\264\012\246\205\335"
  53      FA996CB7 
  53      EE6643B4 
  53      0AA685DD 
  54 0112 8B3EA4D9 		.ascii	"\213>\244\331s)_%|K\257\201\363\010%|\201\005PX\302"
  54      73295F25 
  54      7C4BAF81 
  54      F308257C 
  54      81055058 
  55 0127 57380396 		.ascii	"W8\003\226\364k\322>\371\267\310\037\2448-\0176\234"
  55      F46BD23E 
  55      F9B7C81F 
  55      A4382D0F 
  55      369C
  56 0139 CB715259 		.ascii	"\313qRY7Y\363D\212\224\224\015\375\035\274V<V\302\267"
  56      3759F344 
ARM GAS  /tmp/ccxVeSjc.s 			page 4


  56      8A94940D 
  56      FD1DBC56 
  56      3C56C2B7 
  57 014d 544C05D5 		.ascii	"TL\005\3253x\272fB\364\245{\213(\243\003\030x\271\032"
  57      3378BA66 
  57      42F4A57B 
  57      8B28A303 
  57      1878B91A 
  58 0161 2DAE45AA 		.ascii	"-\256E\252\016:s\243\240\022\220\344\336\177@- \311"
  58      0E3A73A3 
  58      A01290E4 
  58      DE7F402D 
  58      20C9
  59 0173 C3B9C164 		.ascii	"\303\271\301d\212\374\335\232\320\337\0001\251C\302"
  59      8AFCDD9A 
  59      D0DF0031 
  59      A943C2
  60 0182 13C88C40 		.ascii	"\023\310\214@D\376\002\033?\361O\\\316\252\266S\322"
  60      44FE021B 
  60      3FF14F5C 
  60      CEAAB653 
  60      D2
  61 0193 4B3D34EE 		.ascii	"K=4\356\"}C{\\\267\241q\250\371rd\\\237\350\204@\343"
  61      227D437B 
  61      5CB7A171 
  61      A8F97264 
  61      5C9FE884 
  62 01a9 58AF66BE 		.ascii	"X\257f\276\340\011\034\273\034]A\274\012\357\330\010"
  62      E0091CBB 
  62      1C5D41BC 
  62      0AEFD808 
  63 01b9 4C0D0D71 		.ascii	"L\015\015q9S\304\362@\017e\246\370\235\213\247j\032"
  63      3953C4F2 
  63      400F65A6 
  63      F89D8BA7 
  63      6A1A
  64 01cb 407ED254 		.ascii	"@~\322T\306\322\026\355\016h\025\024\336\017@\336n\222"
  64      C6D216ED 
  64      0E681514 
  64      DE0F40DE 
  64      6E92
  65 01dd B7ABA1D7 		.ascii	"\267\253\241\327\215\357\363\357\2600\344\263=\361\351"
  65      8DEFF3EF 
  65      B030E4B3 
  65      3DF1E9
  66 01ec 05AACC3B 		.ascii	"\005\252\314;\211\247\371t\034i;\333c<B\224M\270E\347"
  66      89A7F974 
  66      1C693BDB 
  66      633C4294 
  66      4DB845E7 
  67 0200 1E3D2857 		.ascii	"\036=(W\356.]\251\200!k\305\253>|\274\022\332jm\271"
  67      EE2E5DA9 
  67      80216BC5 
  67      AB3E7CBC 
  67      12DA6A6D 
  68 0215 1AAE9A7B 		.ascii	"\032\256\232{w\226\227\376\0027\254\273\205"
  68      779697FE 
ARM GAS  /tmp/ccxVeSjc.s 			page 5


  68      0237ACBB 
  68      85
  69              		.text
  70              		.section	.gnu.lto_usb_event.part.0.40ff45a1f15b9f05,"",%progbits
  71 0000 789CA552 		.ascii	"x\234\245RKk\023Q\024>\337\235\2314\365Q\212\033\353"
  71      4B6B1351 
  71      143EDF9D 
  71      9934F551 
  71      8A1BEB
  72 0013 A6865257 		.ascii	"\246\206RW\225\214\273\272T\002R\205 Ip9\304f\274\232"
  72      958CBBBA 
  72      54025285 
  72      20497039 
  72      C466BC9A 
  73 0027 409394C9 		.ascii	"@\223\224\311\203\350&ct#\024\214JA\027\202Rt\321\205"
  73      83E82663 
  73      7423148C 
  73      4A411782 
  73      5274D185 
  74 003b E0CEC7C2 		.ascii	"\340\316\307\302\205\"\221\206\376\005K}\340\302\202"
  74      85229186 
  74      FE054B7D 
  74      E0C282
  75 004a A0145CC5 		.ascii	"\240\024\\\305sg\3066\023[(x\207\231s\346\236\357\373"
  75      7367C636 
  75      135B2878 
  75      879973E6 
  75      9EEFFB
  76 005d CE39F75C 		.ascii	"\3169\367\\A\340\347\3375\305\357m\215\350\036[\030"
  76      41E0E7DF 
  76      35C5EF6D 
  76      8DE81E5B 
  76      18
  77 006e 04BDBDCA 		.ascii	"\004\275\275\312\216\016\341Y\001M\331\3531\015P\016"
  77      8E0EE159 
  77      014DD9EB 
  77      310D500E 
  78 007e 4B3475A1 		.ascii	"K4u\241\241y\301\323\022\023\364\330u\357\376h\271c"
  78      A179C1D3 
  78      1213F4D8 
  78      75EFFE68 
  78      B963
  79 0090 ADB55EEF 		.ascii	"\255\265^\357\250\004\011\022\240,h\375\333\235\015"
  79      A8040912 
  79      A02C68FD 
  79      DB9D0D
  80 009f 1C210950 		.ascii	"\034!\011P\224\224\025\203\351=n\273\375\2665\023p\271"
  80      94941583 
  80      E93D6EBB 
  80      FDB63513 
  80      70B9
  81 00b1 0A26763F 		.ascii	"\012&v?\214\370\264X@\323\3034|\356F\336\010w\255\327"
  81      8CF8B458 
  81      40D3C334 
  81      7CEE46DE 
  81      0877ADD7 
  82 00c5 9CA4254E 		.ascii	"\234\244%N\336\276\341\316H\350\202\016yy\177u\226\305"
ARM GAS  /tmp/ccxVeSjc.s 			page 6


  82      DEBEE1CE 
  82      48E8820E 
  82      79797F75 
  82      96C5
  83 00d7 0E7C4650 		.ascii	"\016|FP\024\260\260\204I\365o\320M\327\035\345\377G"
  83      14B0B084 
  83      49F56FD0 
  83      4DD71DE5 
  83      FF47
  84 00e9 9850346F 		.ascii	"\230P4o\245\224Um\246\030\255\034-\315|\317\351\020"
  84      A594556D 
  84      A618AD1C 
  84      2DCD7CCF 
  84      E910
  85 00fb 2BD24505 		.ascii	"+\322E\005x\317\035\372t\012\033\013O80\260\374\023"
  85      78CF1DFA 
  85      740A1B0B 
  85      4F3830B0 
  85      FC13
  86 010d 5245065D 		.ascii	"RE\006]\032\202\016\253J\261\371\362\343\227\235J\335"
  86      1A820EAB 
  86      4AB1F9F2 
  86      E3979D4A 
  86      DD
  87 011e 5E6AD3E0 		.ascii	"^j\323\340 \321\012\265\360ua\361\323\311\301\214OC"
  87      20D10AB5 
  87      F07561F1 
  87      D3C9C18C 
  87      4F43
  88 0130 19D5881B 		.ascii	"\031\325\210\033\032\317\200\274\017\3218\335\302C\367"
  88      1ACF80BC 
  88      0FD138DD 
  88      C243F7
  89 013f FE298948 		.ascii	"\376)\211HHo+\274\020\204\207<~\227\"\353\235\305\015"
  89      486F2BBC 
  89      1084873C 
  89      7E9722EB 
  89      9DC50D
  90 0152 F1B7936B 		.ascii	"\361\267\223k\364\333\215JD\221\345\233\340!lxC\035"
  90      F4DB8D4A 
  90      4491E59B 
  90      E0216C78 
  90      431D
  91 0164 E6442A38 		.ascii	"\346D*8&\261\017\005\300?\342\375\236\302\367s{\240"
  91      26B10F05 
  91      C03FE2FD 
  91      9EC2F773 
  91      7BA0
  92 0176 8B7EBAE8 		.ascii	"\213~\272\350\243\353\357V^a@\340\000\013h\276@\260"
  92      A3EBEF56 
  92      5E6140E0 
  92      000B68BE 
  92      40B0
  93 0188 7390599A 		.ascii	"s\220Y\232\317\032\371\377\211XX\346\032\370\026l>\370"
  93      CF1AF9FF 
  93      895858E6 
  93      1AF8166C 
ARM GAS  /tmp/ccxVeSjc.s 			page 7


  93      3EF8
  94 019a B9A791D0 		.ascii	"\271\247\221\320\256#\341\322_\363\215\262\360b\227"
  94      AE23E1D2 
  94      5FF38DB2 
  94      F06297
  95 01a9 C15878C6 		.ascii	"\301Xx\306\225o\313\004\223\260\360\034\343[\360\264"
  95      956FCB04 
  95      93B0F01C 
  95      E35BF0B4 
  96 01b9 6AAEFFDA 		.ascii	"j\256\377\332q\025\253\004\204\373I\251\030\243\224"
  96      7115AB04 
  96      84FB49A9 
  96      18A394
  97 01c8 8021EBB2 		.ascii	"\200!\353\262T\035\256Ur\366\345+q\233t\366\346\215"
  97      541DAE55 
  97      72F6E52B 
  97      719B74F6 
  97      E68D
  98 01da FAEC5C4D 		.ascii	"\372\354\\MN\305\343f\"_\310\025\316g\314r\305t\252"
  98      4EC5E366 
  98      225FC815 
  98      CE67CC72 
  98      C574AA
  99 01ed E67CD9A9 		.ascii	"\346|\331\251V\314\323\351d\"\3310\355\274]vd\266>]"
  99      56CCD3E9 
  99      6422D930 
  99      EDBC5D76 
  99      64B63E5D 
 100 0201 8CE7291E 		.ascii	"\214\347)\036\306\312F\325L$3g3f\241d\317\325.I\323"
 100      C6CA46D5 
 100      4C243367 
 100      3366A164 
 100      CFD52E49 
 101 0216 C3DAC533 		.ascii	"\303\332\3053\265\222\315\360\321d&\035\313\315V\344"
 101      B592CDF0 
 101      D164261D 
 101      CBCD56E4 
 102 0226 BC53381E 		.ascii	"\274S8\036;v\202\204CCEY,;W\351\017*\374\327D"
 102      3B768284 
 102      43434559 
 102      2C3B57E9 
 102      0F2AFCD7 
 103              		.text
 104              		.section	.gnu.lto_usb_event.40ff45a1f15b9f05,"",%progbits
 105 0000 789C6550 		.ascii	"x\234eP?K\3031\020}/I\265\202\025\235T\204ZDW\245\037"
 105      3F4BC331 
 105      107D2F49 
 105      B582159D 
 105      54845A44 
 106 0017 C0CD4147 		.ascii	"\300\315AG+\035K\305\022\335D\360\317\340\322\264\272"
 106      2B1D4BC5 
 106      12DD44F0 
 106      CFE0D2B4 
 106      BA
 107 0028 2952FC02 		.ascii	")R\374\002\326?\010\372\011\244\213\035[)\035\305\261"
 107      D63F08FA 
 107      09A48B1D 
ARM GAS  /tmp/ccxVeSjc.s 			page 8


 107      5B291DC5 
 107      B1
 108 0039 83939343 		.ascii	"\203\223\223C\027A\250\227\374\332.^H^r\357\356\335"
 108      1741A897 
 108      FCDA2E5E 
 108      485E72EF 
 108      EEDD
 109 004b E51428EB 		.ascii	"\345\024(\353\277\245e\337\0101'\310\030\250*m\240\224"
 109      BFA565DF 
 109      083127C8 
 109      18A82A6D 
 109      A094
 110 005d 524AD792 		.ascii	"RJ\327\222p)\363\276\"\247\246\361n\032\322\243\010"
 110      7029F3BE 
 110      22A7A6F1 
 110      6E1AD2A3 
 110      08
 111 006e 1595362C 		.ascii	"\025\2256,f#\305\267\253\247\325\317\326\310\253\252"
 111      6623C5B7 
 111      ABA7D5CF 
 111      D6C8ABAA 
 112 007e 777AC545 		.ascii	"wz\305E\334;w]9s\353\226P\030'\362D\267\361\254faI\244"
 112      DC3B775D 
 112      3973EB96 
 112      501827F2 
 112      44B7F1AC 
 113 0096 E051C178 		.ascii	"\340Q\301x\231(\366\273\354f,\265\302T\210}ID\221\361"
 113      9928F6BB 
 113      EC662CB5 
 113      C254887D 
 113      494491F1 
 114 00aa 7E64A821 		.ascii	"~d\250!\274l A\346x'\211Z\260*(\026\303\271s\223\\\300"
 114      BC6C2041 
 114      E6782789 
 114      5AB02A28 
 114      16C3B973 
 115 00c1 ADEB542A 		.ascii	"\255\353T*\256\332H\225;\275\336\274\245Q\230\016\222"
 115      AEDA4895 
 115      3BBDDEBC 
 115      A551980E 
 115      92
 116 00d2 BF8D2F46 		.ascii	"\277\215/F\242\365\245\276\352\207\011\255\347\370("
 116      A2F5A5BE 
 116      EA8709AD 
 116      E7F828
 117 00e1 8FBEE5FB 		.ascii	"\217\276\345\373\003\332\364\350?\232\361\234\\t\023"
 117      03DAF4E8 
 117      3F9AF19C 
 117      5C7413
 118 00f0 BAD59CC8 		.ascii	"\272\325\234\310\361AFT /qQ2\226\261\240\261\3150\021"
 118      F1414654 
 118      202F7151 
 118      3296B1A0 
 118      B1CD3011 
 119 0104 60E8F515 		.ascii	"`\350\365\025F\240\002'Dwc8\355\214|\003\265\244n\300"
 119      46A00227 
 119      44776338 
ARM GAS  /tmp/ccxVeSjc.s 			page 9


 119      ED8C7C03 
 119      B5A46EC0 
 120 0118 13816DC1 		.ascii	"\023\201m\3010\022\006N\361\343\342\226\243\314\223"
 120      3012064E 
 120      F1E3E296 
 120      A3CC93
 121 0127 512F056A 		.ascii	"Q/\005j\313\370 \331D\335\014\262\305\327\006\207\331"
 121      CBF820D9 
 121      44DD0CB2 
 121      C5D70687 
 121      D9
 122 0138 83E619A2 		.ascii	"\203\346\031\242|\371\261\343\303\235\302\356\336r\001"
 122      7CF9B1E3 
 122      C39DC2EE 
 122      DE7201
 123 0147 466E0731 		.ascii	"Fn\0071{b\367\217\314\326Z6\375\007g\001[L"
 123      7B62F78F 
 123      CCD65A36 
 123      FD076701 
 123      5B4C
 124              		.text
 125              		.section	.gnu.lto_.cgraph.40ff45a1f15b9f05,"",%progbits
 126 0000 789C3DC9 		.ascii	"x\234=\311A\016\301P\030E\341{\376\207vA6d%\267bR3\323"
 126      410EC150 
 126      1845E17B 
 126      FE877641 
 126      366425B7 
 127 0018 268C6CC1 		.ascii	"&\214l\301\012,@\214$B\264\330\207h\264\336\235\234"
 127      0A2C408C 
 127      2442B4D8 
 127      8768B4DE 
 127      9D9C
 128 002a 7CB92194 		.ascii	"|\271!\224$5\032\027g,mN\262\267\353E\2740\203v5q\301"
 128      24351A17 
 128      672C6D4E 
 128      B2B7EB45 
 128      BC308376 
 129 0041 913FAE38 		.ascii	"\221?\2568\375T-\241\303\223\214\007\236f\264x\226q"
 129      FD542DA1 
 129      C3938C07 
 129      9E66B478 
 129      9671
 130 0053 C3C5800A 		.ascii	"\303\305\200\012\356\270\374#Qj\377\374\364-\264\032"
 130      EEB8FC23 
 130      516AFFFC 
 130      F42DB41A 
 131 0063 FBEEFA06 		.ascii	"\373\356\372\006:\036\346\372\002\355\3762\375"
 131      3A1EE6FA 
 131      02EDFE32 
 131      FD
 132              		.text
 133              		.section	.gnu.lto_.vars.40ff45a1f15b9f05,"",%progbits
 134 0000 789C25C9 		.ascii	"x\234%\311I\016\202@\000\005\321_\335\264\010\342\200"
 134      490E8240 
 134      0005D15F 
 134      DDB408E2 
 134      80
ARM GAS  /tmp/ccxVeSjc.s 			page 10


 135 0011 F7F40C7D 		.ascii	"\367\364\014}<\020\247\210\030\015\211w\361'\324\342"
 135      3C10A788 
 135      180D8977 
 135      F127D4E2 
 136 0021 6D2A0845 		.ascii	"m*\010EI'-\035\037\304\"\307\236\302\016$\373B\366\015"
 136      49272D1D 
 136      1FC422C7 
 136      9EC20E24 
 136      FB42F60D 
 137 0035 F64750D6 		.ascii	"\366GP\326\314\312~)S\326\207\265\235\250|\237\324v"
 137      CCCA7E29 
 137      53D687B5 
 137      9DA87C9F 
 137      D476
 138 0047 64632F34 		.ascii	"dc/4\366\312\326\336\330\331;{{\346`;Z\373\007\216\011"
 138      F6CAD6DE 
 138      D8D93B7B 
 138      7BE6603B 
 138      5AFB078E 
 139 005c 1933     		.ascii	"\0313"
 140              		.text
 141              		.section	.gnu.lto_.refs.40ff45a1f15b9f05,"",%progbits
 142 0000 789C7585 		.ascii	"x\234u\205\301\016\200 \024\303\006oETT\374\377\213"
 142      C10E8020 
 142      14C3066F 
 142      455454FC 
 142      FF8B
 143 0012 9FEA818B 		.ascii	"\237\352\201\213\211a\315\332\254\244\220\364h,\204"
 143      8961CDDA 
 143      ACA490F4 
 143      682C84
 144 0021 48E44804 		.ascii	"H\344H\004\006y\241\014Zu\266\034\177W\333\254\337\367"
 144      0679A10C 
 144      5A75B61C 
 144      7F57DBAC 
 144      DFF7
 145 0033 302E6CEC 		.ascii	"0.l\354\263v\32188\271fu\246\017\234\270\007z\001n\235"
 145      B376D138 
 145      38B96675 
 145      A60F9CB8 
 145      077A016E 
 146 0048 0498     		.ascii	"\004\230"
 147              		.text
 148              		.section	.gnu.lto_.statics.40ff45a1f15b9f05,"",%progbits
 149 0000 789C6362 		.ascii	"x\234cb`d`b\300\016@\342\214\020&\000\000\375\000\011"
 149      60646062 
 149      C00E40E2 
 149      8C102600 
 149      00FD0009 
 150              		.text
 151              		.section	.gnu.lto_.decls.40ff45a1f15b9f05,"",%progbits
 152 0000 789CBD3D 		.ascii	"x\234\275=y|\024U\232U\325W:\201$DD\234\361\210\256"
 152      797C1455 
 152      9A55D557 
 152      3A812444 
 152      449CF188 
 153 0015 3AAEAE84 		.ascii	":\256\256\204\303Q\234\031]\020\262\302\016\327\217"
ARM GAS  /tmp/ccxVeSjc.s 			page 11


 153      C3519C19 
 153      5D10B2C2 
 153      0ED78F
 154 0024 0477E6B7 		.ascii	"\004w\346\267\333\323\223t\032\322c\222\016\335\025"
 154      DBD39374 
 154      1AD26392 
 154      0EDD15
 155 0033 C0F9637F 		.ascii	"\300\371c\177-x\2412 \014\247\203D\216\000\341RnP\204"
 155      2D78A132 
 155      200CA783 
 155      448E00E1 
 155      526E5084 
 156 0047 C18820E1 		.ascii	"\301\210 \3410D\016m\205\201\014\214LD\015Q\010\006"
 156      30440E6D 
 156      85810C8C 
 156      4C440D51 
 156      0806
 157 0059 B3EFA87A 		.ascii	"\263\357\250z\357U\365\253\252\256N\334\376Q/U_\177"
 157      EF55F5AB 
 157      AAAE4EDC 
 157      FE512F55 
 157      5F7F
 158 006b EF7BDFF5 		.ascii	"\357{\337\365\276\367\275\243\013I\020\005\370\211\203"
 158      BEF7BDA3 
 158      0B491005 
 158      F88983
 159 007a 3F1DE033 		.ascii	"?\035\3403\342\177\005ad\206 8\001\354Qp\271\300U\015"
 159      E27F0561 
 159      64862038 
 159      01EC5170 
 159      B9C0550D 
 160 008e AE95E01A 		.ascii	"\256\225\340\032+a\370r\001\177\274\260\036\200\235"
 160      2B61F872 
 160      017FBCB0 
 160      1E809D
 161 009d 075733B8 		.ascii	"\007W3\270\276\001\327ep}\013\256+\340j\003W\007\270"
 161      BE01D765 
 161      707D0BAE 
 161      2BE06A03 
 161      5707B8
 162 00b0 72009EC3 		.ascii	"r\000\236\303!\010\231\340\272\021\\7\201\3531p\345"
 162      210899E0 
 162      BA115C37 
 162      81EB3170 
 162      E5
 163 00c1 836B0CB8 		.ascii	"\203k\014\270\306\202\353Ip\335\000./\270\272\201\353"
 163      C682EB49 
 163      70DD002E 
 163      2FB8BA81 
 163      EB
 164 00d2 4E70DD0F 		.ascii	"Np\335\017\256\007\301\365Kp\215\004\327\343\016A\363"
 164      AE07C1F5 
 164      4B708D04 
 164      D7E30E41 
 164      F3
 165 00e3 816D431E 		.ascii	"\201mC\036\276\001W&\270\272\011\230\277\255\012\217"
 165      BE015726 
ARM GAS  /tmp/ccxVeSjc.s 			page 12


 165      B8BA0998 
 165      BFAD0A8F 
 166 00f3 2E11CBD0 		.ascii	".\021\313\320\242\340\213J\035\017\370\353\003\264~"
 166      A2E08B4A 
 166      1D0FF8EB 
 166      03B47E
 167 0102 072E3FB8 		.ascii	"\007.?\270~\257\343\211\375@\331\262\300\337S\2346\326"
 167      7EAFE389 
 167      FD40D9B2 
 167      C0DF539C 
 167      36D6
 168 0114 83AB08E0 		.ascii	"\203\253\010\340\007\300U\342\240z\272\006\352\004\035"
 168      07C055E2 
 168      A07ABA06 
 168      EA041D
 169 0123 585F8242 		.ascii	"X_\202B\317)P=\251z\201\272\035\357\320\352f\202\256"
 169      CF29503D 
 169      A97A81BA 
 169      1DEFD0EA 
 169      6682AE
 170 0136 FD6645C6 		.ascii	"\375fE\306\255L\373\220\227\002\011\313\006\351\226"
 170      AD4CFB90 
 170      970209CB 
 170      06E996
 171 0145 823A1724 		.ascii	"\202:\027$\214/)u`[\360>\004\276\373\203\216\246Wx1"
 171      8C2F2975 
 171      605BF03E 
 171      04BEFB83 
 171      8EA65778 
 172 015a 169B1A3B 		.ascii	"\026\233\032;\263\"\326{\001\240y\263\340\0233A\033"
 172      B322D67B 
 172      01A079B3 
 172      E0133341 
 172      1B
 173 016b 69E8AE9B 		.ascii	"i\350\256\233\027+\352nay,6+\026\213\211>\261Z\364\002"
 173      172BEA6E 
 173      61792C36 
 173      2B168B89 
 173      3EB15AF4 
 174 0180 629228DC 		.ascii	"b\222(\334'\254\216\241\217H5\012>\351B\315\027m\365"
 174      27AC8EA1 
 174      8F48350A 
 174      3EE942CD 
 174      176DF5
 175 0193 528AD497 		.ascii	"R\212\324\227#\352\375E\360\3652\361>\341\342\232\177"
 175      23EAFD45 
 175      F0F532F1 
 175      3EE1E29A 
 175      7F
 176 01a4 DE8429F9 		.ascii	"\336\204)\371D\321\313\362\215\2361\022\246\213\277"
 176      44D1CBF2 
 176      8D9E3112 
 176      A68BBF
 177 01b3 56EF3A44 		.ascii	"V\357:D\301&v\206\360\022d\265\372\371\330\260\375\231"
 177      C1267686 
 177      F01264B5 
 177      FAF9D8B0 
ARM GAS  /tmp/ccxVeSjc.s 			page 13


 177      FD99
 178 01c5 39C2AB50 		.ascii	"9\302\253P\262j\300\323~\206\357j\2110~\227\206q\005"
 178      B26AC0D3 
 178      7E86EF6A 
 178      89307E97 
 178      867105
 179 01d8 3FD704D9 		.ascii	"?\327\004\331'\256\026\357\026\222@\204\250k\000E\314"
 179      27AE16EF 
 179      16924084 
 179      A86B0045 
 179      CC
 180 01e9 2E6A2386 		.ascii	".j#\206\225\003\241\202\002_:o\367\341\233\205\304O"
 180      9503A182 
 180      025F3A6F 
 180      F7E19B85 
 180      C44F
 181 01fb FA1D02E0 		.ascii	"\372\035\002\340z\352\254i\261anE\373X$\332^.i\316\251"
 181      7AEAAC69 
 181      B1616E45 
 181      FB5824DA 
 181      5E2E69CE 
 182 0210 D3FE7AA4 		.ascii	"\323\376z\244\375c\"Q\377\313[\332%U\203\036\235\376"
 182      FD632251 
 182      FFCB5BDA 
 182      2555831E 
 182      9DFE
 183 0222 3D5A8D7A 		.ascii	"=Z\215z\210F\341\035\014\037Y\320\353\342\210\030\344"
 183      8846E11D 
 183      0C1F59D0 
 183      EBE28818 
 183      E4
 184 0233 7CE9BC13 		.ascii	"|\351\274\023\207\207\363yP\357\361G\305Q>\214@\032"
 184      8787F379 
 184      50EFF147 
 184      C5513E8C 
 184      401A
 185 0245 1BF512E6 		.ascii	"\033\365\022\346\"\033=\017X\227}\342\2437\032\010\010"
 185      221B3D0F 
 185      58977DE2 
 185      A3371A08 
 185      08
 186 0256 79DD2CF6 		.ascii	"y\335,\366Bw\016\324\017\270\266\326\232\204z\350\263"
 186      42770ED4 
 186      0FB8B6D6 
 186      9A847AE8 
 186      B3
 187 0267 7A17DD06 		.ascii	"z\027\335\006d\221\204&\242\244\232\205m\215J\247J\206"
 187      64918426 
 187      A2A49A85 
 187      6D8D4AA7 
 187      4A86
 188 0279 944FDC21 		.ascii	"\224O\334!J\240\334\3115\361N\215\211\337>\326\233c"
 188      4AA0DCC9 
 188      35F14E8D 
 188      89DF3ED6 
 188      9B63
 189 028b E26CAC91 		.ascii	"\342l\254\221\257\247\306z\273=\302\363\250\203=75\311"
ARM GAS  /tmp/ccxVeSjc.s 			page 14


 189      AFA7C67A 
 189      BB3DC2F3 
 189      A8833D37 
 189      35C9
 190 029d 0EB64BF4 		.ascii	"\016\266K\364\000\356/1\334_\277\005\223M\212\024\344"
 190      00EE2F31 
 190      DC5FBF05 
 190      934D8A14 
 190      E4
 191 02ae 6D0F2091 		.ascii	"m\017 \221\3109\204\252\234\307w\375\221\3037R\276$"
 191      C83984AA 
 191      9CC777FD 
 191      91C33752 
 191      BE24
 192 02c0 B481B621 		.ascii	"\264\201\266!I'2\261S\201>+Q\250H\221g0`\211\202\347"
 192      492732B1 
 192      53813E2B 
 192      51A84891 
 192      67306089 
 193 02d6 33600705 		.ascii	"3`\007\005/g\300N\266\203\233\004\006*\215O\374+\350"
 193      2F67C04E 
 193      B6839B04 
 193      062A8D4F 
 193      FC2BE8
 194 02e9 A13E71AF 		.ascii	"\241>q\257\3500\250(\011\033$Q\261\335\322y\307\216"
 194      E830A828 
 194      091B2451 
 194      B1DDD279 
 194      C78E
 195 02fb 0DE72B29 		.ascii	"\015\347+)%w6\01091\221\220\313\026\254B\216\016\331"
 195      25773608 
 195      39319190 
 195      CB16AC42 
 195      8E0ED9
 196 030e 271E3508 		.ascii	"'\0365\0109:D\210\332\300\365\307\006\306\037\033?\034"
 196      393A4488 
 196      DAC0F5C7 
 196      06C61F1B 
 196      3F1C
 197 0320 CFB1AAB3 		.ascii	"\317\261\252\263+\372\347qm\377\364\211[\305\014AR\236"
 197      2BFAE771 
 197      6DFFF489 
 197      5BC50C41 
 197      529E
 198 0332 6CFBF829 		.ascii	"l\373\370)\344\343[$\342\343;\346\336j\323\307\343\\"
 198      E4E35B24 
 198      E2E33BE6 
 198      DE6AD3C7 
 198      E35C
 199 0344 1F8F333E 		.ascii	"\037\2173>\336t\300\304\307\367H\254\217\273\024\350"
 199      DE74C0C4 
 199      C7F748AC 
 199      8FBB14E8 
 200 0354 51BE8F9F 		.ascii	"Q\276\217\237\345\373\370\025\276\217Owh}\\\001/b\300"
 200      E5FBF815 
 200      BE8F4F77 
 200      687D5C01 
ARM GAS  /tmp/ccxVeSjc.s 			page 15


 200      2F62C0
 201 0367 AE245D3F 		.ascii	"\256$]?\316\270\376g\310\365?7t}\210_\250\346\016\326"
 201      CEB8FE67 
 201      C8F53F37 
 201      747D885F 
 201      A8E60ED6 
 202 037b 23C9C7D0 		.ascii	"#\311\307\320~\302Z\207j\202\370\221\245J\353\032\037"
 202      7EC25A87 
 202      6A82F891 
 202      A54AEB1A 
 202      1F
 203 038c C19637F6 		.ascii	"\301\2267\366\213f@F\035d\004\035\367\272\357$a\007"
 203      8B664046 
 203      1D64041D 
 203      F7BAEF24 
 203      6107
 204 039e 6AAD01F5 		.ascii	"j\255\001\365\315\323\015?\332P\303\355\265{\264\275"
 204      CDD30D3F 
 204      DA50C3ED 
 204      B57BB4BD 
 205 03ae 76106927 		.ascii	"v\020i'M\340t\332\352A\306\310>\3612\355\264f\210\020"
 205      4DE074DA 
 205      EA41C6C8 
 205      3EF132ED 
 205      B4668810 
 206 03c2 F55B6EA7 		.ascii	"\365[n\247\375\226\351\2645\323\347\037\322\332]QWg"
 206      FD96E9B4 
 206      35D3E71F 
 206      D2DA5D51 
 206      5767
 207 03d4 F284AB28 		.ascii	"\362\204\253(O\330K\254{\376\235O\017\347\251vq\351"
 207      4FD84BAC 
 207      7BFE9D4F 
 207      0FE7A976 
 207      71E9
 208 03e6 F2049736 		.ascii	"\362\004\2276Op\021\327r\261y\302\\\247\250\310Ss`\376"
 208      4F7011D7 
 208      72B179C2 
 208      5CA7A8C8 
 208      537360FE 
 209 03fa 2167171A 		.ascii	"!g\027\032\217\344\240{L\372\274O\\\201:\200e\232h\354"
 209      8FE4A07B 
 209      4CFABC4F 
 209      5C813A80 
 209      659A68EC 
 210 040e ABD7813F 		.ascii	"\253\327\201?\252\312\025\026\023q\352\352k%;\322\344"
 210      AACA1516 
 210      1371EAEA 
 210      6B253BD2 
 210      E4
 211 041f EADC1C77 		.ascii	"\352\334\034w\317\357\000w\222O\274\"\336\001\036\332"
 211      CFEF0077 
 211      924FBC22 
 211      DE011EDA 
 212 042f 41495A5A 		.ascii	"AIZZ\351T\255P_\237\251V\302\036\300P\241\216\"p\351"
 212      E954AD50 
 212      5F9FA956 
ARM GAS  /tmp/ccxVeSjc.s 			page 16


 212      C21EC050 
 212      A18E2270 
 213 0444 188BF50D 		.ascii	"\030\213\365\015\025\313\030\351k^\374v\222\247\345"
 213      15CB18E9 
 213      6B5EFC76 
 213      92A7E5
 214 0453 488FFC47 		.ascii	"H\217\374G\305<\261\347c\367\256b\314\223M\332\220t"
 214      C53CB1E7 
 214      63F7AE62 
 214      CC934DDA 
 214      9074
 215 0465 CEF79C04 		.ascii	"\316\367\234\004\235o\013\021\373\342?\327\335\242\212"
 215      9D6F0B11 
 215      FBE23FD7 
 215      DDA28A
 216 0474 E9D0F99E 		.ascii	"\351\320\371\236CkN\0071\247\003\371\236\003c\331\210"
 216      436B4E07 
 216      31A703F9 
 216      9E0363D9 
 216      88
 217 0485 6B5FA1B8 		.ascii	"k_\241\270\366.i\274\346\300\246CX\011\372\300\366\265"
 217      F62E69BC 
 217      E6C0A643 
 217      5809FAC0 
 217      F6B5
 218 0497 69607B49 		.ascii	"i`{I2\016l\272\357$\341#'\015lm9)8SRq-Mx\001\217\215"
 218      320E6CBA 
 218      EF24E123 
 218      270D6C6D 
 218      39293853 
 219 04b3 B167C489 		.ascii	"\261g\304\211\246\303\254\022ffJi\200\271sN\010\347"
 219      A6C3AC12 
 219      66664A69 
 219      80B9734E 
 219      08E7
 220 04c5 85188CA1 		.ascii	"\205\030\214\241\262\243\334\223[\323\276\364'\211\343"
 220      B2A3DC93 
 220      5BD3BEF4 
 220      2789E3
 221 04d4 4FA22D4B 		.ascii	"O\242-K\315\220\240\245\276\240\226j{\353}\211k)\330"
 221      CD90A0A5 
 221      BEA0966A 
 221      7BEB7D89 
 221      6B29D8
 222 04e7 98312B73 		.ascii	"\2301+sM,5Wo\2516\306Rs\217Y\014Ai\032I\004\033\246"
 222      4D2C3557 
 222      6FA936C6 
 222      52738F59 
 222      0C41691A 
 223 04ff B2C8A616 		.ascii	"\262\310\246\026v^{\013\220\366^r\321i\302k\006\332"
 223      765E7B0B 
 223      90F65E72 
 223      D169C26B 
 223      06DA
 224 0511 5B68AABD 		.ascii	"[h\252\275\305&\332[\254\327\336\002\027\325\336b{\332"
 224      C526DA5B 
 224      ACD7DE02 
ARM GAS  /tmp/ccxVeSjc.s 			page 17


 224      17D5DE62 
 224      7BDA
 225 0523 CBD5D1C6 		.ascii	"\313\325\321\306Q\363\030\210\232N\237\330\210\242\335"
 225      51F31888 
 225      9A4E9FD8 
 225      88A2DD
 226 0532 2554BE22 		.ascii	"%T\276\"\301r\276\304D\320%D\312\272C$\2026\350#h\003"
 226      C172BEC4 
 226      44D02544 
 226      CABA4324 
 226      8236E823 
 227 0548 1341AD68 		.ascii	"\023A\255h\032\353\3430;H\254v\251\223\211\346\303)"
 227      1AEBE330 
 227      3B48AC76 
 227      A99389E6 
 227      C329
 228 055a 0D12D859 		.ascii	"\015\022\330Yb\323b\367\272\325\270\370&\241Y\177\244"
 228      62D362F7 
 228      BAD5B8F8 
 228      26A1597F 
 228      A4
 229 056b 86D0D446 		.ascii	"\206\320\324F\323$\034PCs\027\345s\264\035\212\331\014"
 229      D3241C50 
 229      437317E5 
 229      73B41D8A 
 229      D90C
 230 057d 45E858C3 		.ascii	"E\350X\303\334=\204Y\312\\\304'\256\004\252 \363\021"
 230      DC3D8459 
 230      CA5CC427 
 230      AE04AA20 
 230      F311
 231 058f BA0492AB 		.ascii	"\272\004\222\253h\252F\352\201\356\320\370\020#\356"
 231      68AA46EA 
 231      81EED0F8 
 231      1023EE
 232 059e 06508CB5 		.ascii	"\006P\214\265\273R\362\022\006\272y\331;\017Q\372\007"
 232      BB52F212 
 232      06BA79D9 
 232      3B0F51FA 
 232      07
 233 05af 544127A9 		.ascii	"TA'\251\322u\014\230:\231\201<\217Qq\316\320\351\325"
 233      D2750C98 
 233      3A99813C 
 233      8F5171CE 
 233      D0E9D5
 234 05c2 2D0A6BB5 		.ascii	"-\012k\265)\210\263\306P\0347\021\347 \021\247\356\267"
 234      2988B3C6 
 234      501C3711 
 234      E72011A7 
 234      EEB7
 235 05d4 06CDABF7 		.ascii	"\006\315\253\367\367Z\010\203\231\224\204\217\011\311"
 235      F75A0883 
 235      9994848F 
 235      09C9
 236 05e2 762B92C3 		.ascii	"v+\222\303\214=(\265\345\2117%8u;C\343N\333\253v\247"
 236      8C3D28B5 
 236      E5893725 
ARM GAS  /tmp/ccxVeSjc.s 			page 18


 236      38753B43 
 236      E34EDBAB 
 237 05f8 6E9B24DE 		.ascii	"n\233$\336\324\015B\325\300\320\276\333d\352v\311\305"
 237      D40D42D5 
 237      C0D0BEDB 
 237      64EA76C9 
 237      C5
 238 0609 4EDDDCEA 		.ascii	"N\335\334\352\362\204\233;u\233\351\346N\335\226\271"
 238      F2849B3B 
 238      759BE9E6 
 238      4EDD96B9 
 239 0619 B953B76D 		.ascii	"\271S\267mn\356\324m\257[;uS\300\307\031\260[U\263\305"
 239      6EEED46D 
 239      AF5B3B75 
 239      53C0C719 
 239      B05B55B3 
 240 062e 8C8ECAEE 		.ascii	"\214\216\312\356\0237K0\241\335\"\031/f4\271\351b\306"
 240      13374B30 
 240      A1DD2219 
 240      2F6634B9 
 240      E962C6
 241 0641 89E3168B 		.ascii	"\211\343\026\213\031\2777\364\036\316h\205s<c\317~_"
 241      19BF37F4 
 241      1ECE6885 
 241      733C63CF 
 241      7E5F
 242 0653 62C2E097 		.ascii	"b\302\340\227\204\215\366O\254\302`\251\261\303!.\324"
 242      848DF64F 
 242      ACC260A9 
 242      B1C3212E 
 242      D4
 243 0664 B9C9B784 		.ascii	"\271\311\267\204f\374\323\032[4\023%SG\303k\224\317"
 243      66FCD31A 
 243      5B341325 
 243      5347C36B 
 243      94CF
 244 0676 FF36A758 		.ascii	"\3776\247Xi\310%\364\363\336j\330\250\036\264@\247\251"
 244      69C825F4 
 244      F3DE6AD8 
 244      A81EB440 
 244      A7A9
 245 0688 C4195EBD 		.ascii	"\304\031^\275\0227hp\003\234L\363\020\351\376\207_\225"
 245      12376870 
 245      039C4CF3 
 245      10E9FE87 
 245      5F95
 246 069a CF894636 		.ascii	"\317\211F6M\210\237N(\266\023\212\374\020?\305\230\""
 246      4D889F4E 
 246      28B6138A 
 246      FC103FC5 
 246      9822
 247 06ac EAF2EA1A 		.ascii	"\352\362\352\032\376,\312\243\317\334\263\264\024\373"
 247      FE2CCAA3 
 247      CFDCB3B4 
 247      14FB
 248 06ba 1A525C40 		.ascii	"\032R\\@y\264Eq \307\242x\245\273\206R\374\235\271E"
 248      79B44571 
ARM GAS  /tmp/ccxVeSjc.s 			page 19


 248      20C7A278 
 248      A5BB8652 
 248      FC9DB945 
 249 06ce 954D0E9D 		.ascii	"\225M\016\235I\023?\354\272\256O|\033\344\037\331>\361"
 249      49133FEC 
 249      BAAE4F7C 
 249      1BE41FD9 
 249      3EF1
 250 06e0 1D94251C 		.ascii	"\035\224%\034B\345\033(WX\206\312\025\250\\\215\312"
 250      42E51B28 
 250      575886CA 
 250      15A85C8D 
 250      CA
 251 06f1 75A8DC80 		.ascii	"u\250\334\200\312:T~\200\312\003\250<\210\312\303\250"
 251      CA3A547E 
 251      80CA03A8 
 251      3C88CAC3 
 251      A8
 252 0702 3C8ACA06 		.ascii	"<\212\312\006T6&\223sler\016\222\022V\243\200`+'\334"
 252      54362693 
 252      736C6572 
 252      0E921256 
 252      A380602B 
 253 0718 84E63EEB 		.ascii	"\204\346>\353<$6\257^l\220\023n6\235\373\2342\311\011"
 253      3C2436AF 
 253      5E6C9013 
 253      6E369DFB 
 253      9C32C909 
 254 072c 4FE973C2 		.ascii	"O\351s\302]\036\272\177p\335\336\376\201\3067\025\273"
 254      5D1EBA7F 
 254      70DDDEFE 
 254      81C63715 
 254      BB
 255 073d 6319F611 		.ascii	"c\031\366\021\242M\277\352\\\216\256R\254'\024\033\037"
 255      A24DBFEA 
 255      5C8EAE52 
 255      AC27141B 
 255      1F
 256 074e 4D216FE5 		.ascii	"M!o\345\364\310c\204b\335c\346=2\333\230G\015\305\317"
 256      F4C86384 
 256      62DD63E6 
 256      3D32DB98 
 256      470DC5CF 
 257 0762 09C5565B 		.ascii	"\011\305V[\024\263\023\244\266\334?1\\\265\366\211\177"
 257      14B313A4 
 257      B6DC3F31 
 257      5CB5F689 
 257      7F
 258 0773 97E0F6C9 		.ascii	"\227\340\366\311E\342EMk\225\234;\311u\352\177H\274"
 258      45E2454D 
 258      6B959C3B 
 258      C975EA7F 
 258      48BC
 259 0785 252F0855 		.ascii	"%/\010U\207\367\272\325&\353\324JD\301s\327\353\210"
 259      87F7BAD5 
 259      26EBD44A 
 259      44C173D7 
ARM GAS  /tmp/ccxVeSjc.s 			page 20


 259      EB88
 260 0797 0B58B769 		.ascii	"\013X\267i5\035%R[\314WG\236\347\323T\232u\367u\326"
 260      351D2552 
 260      5BCC5747 
 260      9EE7D354 
 260      9A75F775 
 261 07ac 5B31C519 		.ascii	"[1\305\031\204b\223\005Eco\215!\2127\010\263\321\270"
 261      84629305 
 261      45636F8D 
 261      218A3708 
 261      B3D1B8
 262 07bf E3365EE6 		.ascii	"\3436^\346CK>\322\015\034\025C\250\252\342\346\332"
 262      434B3ED2 
 262      0D1C1543 
 262      A8AAE2E6 
 262      DA
 263 07d0 4C8E8A25 		.ascii	"L\216\212%\246)u\001\323\242\251V\2565[\031k\266\326"
 263      A6297501 
 263      D3A2A956 
 263      AE355B19 
 263      6BB6D6
 264 07e3 F6E23425 		.ascii	"\366\3424%j\364t\035\365\3019HO\260n\343\032{\323)\235"
 264      6AF4741D 
 264      F5C13948 
 264      4FB06EE3 
 264      1A7BD329 
 265 07f8 18C24244 		.ascii	"\030\302BD\011\012\034_s[\012\204\354\353\341\032W\017"
 265      090A1C5F 
 265      735B0A84 
 265      ECEBE11A 
 265      570F
 266 080a D7183D34 		.ascii	"\327\030=4\255\261\322\203\365\256\246\321\366\265O"
 266      ADB1D283 
 266      F5AEA6D1 
 266      F6B54F
 267 0819 FC01F5CA 		.ascii	"\374\001\365\312\3524\265W\376\260o\343\265\375.\334"
 267      EA34B557 
 267      FEB06FE3 
 267      B5FD2EDC 
 268 0829 864D52CF 		.ascii	"\206MR\3178 \251FB\252}\233I\007\327\321\221\204\323"
 268      3820A946 
 268      42AA7D9B 
 268      4907D7D1 
 268      9184D3
 269 083c A8DEB30E 		.ascii	"\250\336\263\016\236: \224x\340\302b\216:\322\230\351"
 269      9E3A2094 
 269      78E0C262 
 269      8E3AD298 
 269      E9
 270 084d 0CAF396D 		.ascii	"\014\2579m\222\304r\375\"\342\372\037\204\353\263GZ"
 270      92C472FD 
 270      22E2FA1F 
 270      84EBB347 
 270      5A
 271 085e CE2FF06A 		.ascii	"\316/\360j\0307[\214\227\204%^X\365e.\343/3\214/=\321"
 271      18375B8C 
 271      9784255E 
ARM GAS  /tmp/ccxVeSjc.s 			page 21


 271      58F5652E 
 271      E32F338C 
 272 0875 B273BA83 		.ascii	"\262s\272\203\303\273d\313\224N\322\374P\235$\263\220"
 272      C3BB64CB 
 272      944ED2FC 
 272      509D24B3 
 272      90
 273 0886 24C7BC8C 		.ascii	"$\307\274\214$\247\177ab\001-%I\210\243\232s\270\202"
 273      24A77F61 
 273      62012D25 
 273      4988A39A 
 273      73B882
 274 0899 CCD108D2 		.ascii	"\314\321\010\322\260\233+H\216\246o\316t\300\276y\236"
 274      B09B2B48 
 274      8EA66FCE 
 274      74C0BE79 
 274      9E
 275 08aa 106DDF70 		.ascii	"\020m\337pQL\265Kii~Ih\326\017\354\\\244\265\275\001"
 275      514CB54B 
 275      69697E49 
 275      68D60FEC 
 275      5CA4B5BD 
 276 08bf F29A0306 		.ascii	"\362\232\003\006\346V\242\343\226\323\263/\234T\326"
 276      E656A2E3 
 276      96D3B32F 
 276      9C54D6
 277 08ce 187072C9 		.ascii	"\030pr\311|\222=*\261)]\225\007\370\310\331\205\236"
 277      7C923D2A 
 277      B1295D95 
 277      07F8C8D9 
 277      859E
 278 08e0 CEC5FA24 		.ascii	"\316\305\372$\002\217$\354DMVsm]\315\330\272\266y\343"
 278      028F24EC 
 278      444D5673 
 278      6D5DCDD8 
 278      BAB679E3 
 279 08f4 56AEAD3B 		.ascii	"V\256\255;\023\177@\026\200\232_\301m~\005\323\374\316"
 279      137F4016 
 279      809A5FC1 
 279      6D7E05D3 
 279      FCCE
 280 0906 AF667FCF 		.ascii	"\257f\177\317[a\366\032\317?\015\027HY3\256F~\2644C"
 280      5B61F61A 
 280      CF3F0D17 
 280      485933AE 
 280      467EB434 
 281 091b A4622E6B 		.ascii	"\244b.ks\250V{,\203m\013=kR\3235\031*\367;\277jY\266"
 281      73A8567B 
 281      2C836D0B 
 281      3D6B52D3 
 281      35192AF7 
 282 0934 C8D559AF 		.ascii	"\310\325Y\257\306\334\254'T\353:\235\355b\212o\021\212"
 282      C6DCAC27 
 282      54EB3A9D 
 282      ED628A6F 
 282      118A
 283 0946 F59D5C91 		.ascii	"\365\235\\\221V)n&\024\033SY\245\345P\334F(\306-(\232"
ARM GAS  /tmp/ccxVeSjc.s 			page 22


 283      56296E26 
 283      141B5359 
 283      A5E550DC 
 283      4628C62D 
 284 095c 64BB1A8A 		.ascii	"d\273\032\212;\011\305&[\024\215y\334E(6[P\354\235$"
 284      3B09C526 
 284      5B148D79 
 284      DC452836 
 284      5B50EC9D 
 285 0971 8F7F2514 		.ascii	"\217\177%\024[mQ4\346\361}B\261\335\202b.\217\307\004"
 285      5B6D5134 
 285      E6F17D42 
 285      B1DD8262 
 285      2E8FC704 
 286 0985 9FD2E729 		.ascii	"\237\322\347)\313\035\314\302\315\376\0145z\32467lm"
 286      CB1DCCC2 
 286      CDFE0C35 
 286      7AD43637 
 286      6C6D
 287 0997 4BA50310 		.ascii	"K\245\003\020Z\365\0314\370\315>g/\370\361\324\201\207"
 287      5AF51934 
 287      F8CD3E67 
 287      2FF8F1D4 
 287      8187
 288 09a9 880642B5 		.ascii	"\210\006B\265u\273\325\260c\355X\230\346'\204f\273\305"
 288      75BBD5B0 
 288      63ED5898 
 288      E6278466 
 288      BBC5
 289 09bb B063E558 		.ascii	"\260c\345X\366\267\251i\200dNV\3666\302\366\211\373"
 289      F6B7A969 
 289      80644E56 
 289      F636C2F6 
 289      89FB
 290 09cd 1C700DF0 		.ascii	"\034p\015\360\003e[\364fzOn\361J\340\331\014\343M<\253"
 290      03655BF4 
 290      667A4F6E 
 290      F14AE0D9 
 290      0CE34D3C 
 291 09e2 DAC6CE52 		.ascii	"\332\306\316R\307:\313\005j\212GR\356=h\366f\373P\351"
 291      C73ACB05 
 291      6A8A4752 
 291      EE3D68F6 
 291      66FB50E9 
 292 09f6 41345A5F 		.ascii	"A4Z_\312\240\243\365\306\363t\264^n\373`\251$\\a\274"
 292      CAA0A3F5 
 292      C6F374B4 
 292      5E6EFB60 
 292      A9245C61 
 293 0a0b 75E325EA 		.ascii	"u\343%\352\255\374\251\243I\347MM\240\243H\240\016F"
 293      ADFCA9A3 
 293      49E74D4D 
 293      A0A348A0 
 293      0E46
 294 0a1d A0D99D14 		.ascii	"\240\331\235\024\350\205n\214@_\331\023\350\336\316"
 294      E8856E8C 
 294      405FD913 
ARM GAS  /tmp/ccxVeSjc.s 			page 23


 294      E8DECE
 295 0a2c 0BF43112 		.ascii	"\013\3641\022hf7*PC'\005\232\317\010\324\320bO v\011"
 295      6866372A 
 295      50432705 
 295      9ACF08D4 
 295      D0624F20 
 296 0a42 D2D6C4F9 		.ascii	"\322\326\304\371\023\007o\342\014\241d6\373.o\342\354"
 296      13076FE2 
 296      0CA16436 
 296      FB2E6FE2 
 296      EC
 297 0a53 649AD26C 		.ascii	"d\232\322l\020%\223\213~\206t\367:\243\273\215$\027"
 297      1025938B 
 297      7E8674F7 
 297      3AA3BB8D 
 297      2417
 298 0a65 B54DEC0C 		.ascii	"\265M\354\014\"\266\234\020\273\370\375\246fr\002\330"
 298      22B69C10 
 298      BBF8FDA6 
 298      667202D8 
 299 0a75 AD33835B 		.ascii	"\2553\203[k\006\3705l\355*\314h\305\016\365#\252\337"
 299      6B06F835 
 299      6CED2ACC 
 299      68C50EF5 
 299      23AADF
 300 0a88 C1078FD0 		.ascii	"\301\007\217\320\025$$a-\342\020j\026\370k\207\325p"
 300      15242461 
 300      2DE2106A 
 300      16F86B87 
 300      D570
 301 0a9a 2168CC2B 		.ascii	"!h\314+$\230WU\342&B\265iXg\263\271\307\340X\361\016"
 301      24985755 
 301      E22642B5 
 301      695867B3 
 301      B9C7E058 
 302 0ab0 21183FD0 		.ascii	"!\030?\320\331i\217\355I\312\027H\246\367\030\307h\351"
 302      D9698FED 
 302      49CA1748 
 302      A6F718C7 
 302      68E9
 303 0ac2 FC24E508 		.ascii	"\374$\345\010\243\370\206\332E\251(^\371H\302q\322G"
 303      A3F886DA 
 303      45A9285E 
 303      F948C271 
 303      D247
 304 0ad4 9BFE3385 		.ascii	"\233\3763\205d\305\336dGs\212\007M\221?!\2329{d\366"
 304      64C5DE64 
 304      47738A07 
 304      4D913F21 
 304      9A397B64 
 305 0ae9 B91715C2 		.ascii	"\271\027\025\302I\315\233\276@U[\270\023\227\026\315"
 305      49CD9BBE 
 305      40555BB8 
 305      139716CD 
 306 0af9 1C79F636 		.ascii	"\034y\3666\313y\023N,|\342|\207\244\020m^\227\222\263"
 306      CB79134E 
 306      2C7CE27C 
ARM GAS  /tmp/ccxVeSjc.s 			page 24


 306      87A4106D 
 306      5E9792B3 
 307 0b0d 247E581E 		.ascii	"$~X\036}b+\310\006\340\361@\007s\370\241\215\330\240"
 307      7D622BC8 
 307      06E0F140 
 307      0773F8A1 
 307      8DD8A0
 308 0b20 FEE0798B 		.ascii	"\376\340y\213F\265V\310\325X\001o \343U\224i\335I\206"
 308      46B556C8 
 308      D558016F 
 308      20E35594 
 308      69DD4986 
 309 0b34 F46B155B 		.ascii	"\364k\025[\273\\\242\336k\267\244\023\355\252v\314?"
 309      BB5CA2DE 
 309      6BB7A413 
 309      EDAA76CC 
 309      3F
 310 0b45 118AF111 		.ascii	"\021\212\361\021\346<\3665\244\250*\033w\213?\023\212"
 310      E63CF635 
 310      A4A82A1B 
 310      778B3F13 
 310      8A
 311 0b56 F523ED50 		.ascii	"\365#\355P\314M\240hw1\\\022\226\240\266;\270\336\323"
 311      CC4DA068 
 311      77315C12 
 311      96A0B63B 
 311      B8DED3
 312 0b69 C178CFD6 		.ascii	"\301x\317\326\343\233>\347\375\000\300\301\321\371\007"
 312      E39B3EE7 
 312      FD00C0C1 
 312      D1F907
 313 0b78 8466E3B6 		.ascii	"\204f\343\266Ls\245s}\207\223\350\036!$\233Nd\232\353"
 313      4C73A573 
 313      7D8793E8 
 313      1E21249B 
 313      4E649AEB 
 314 0b8c C8D65126 		.ascii	"\310\326Q&\233\033\006/:\241|'\272\223\015\203\343\031"
 314      9B1B062F 
 314      3AA17C27 
 314      BA930D83 
 314      E319
 315 0b9e AA736365 		.ascii	"\252sce1\336\336\301x\3733\316\273\005\207O\234\352"
 315      31DEDEC1 
 315      78FB33CE 
 315      BB05874F 
 315      9CEA
 316 0bb0 841B65CF 		.ascii	"\204\033e\317\242\362yg\022\333e/8\231\254\3654\321"
 316      A2F27967 
 316      12DB652F 
 316      3899ACF5 
 316      34D1
 317 0bc2 41AB3D1D 		.ascii	"A\253=\035\344j,f\334\332\017l\216|\276;3\011\332i\261"
 317      E46A2C66 
 317      DCDA0F6C 
 317      8E7CBE3B 
 317      3309DA69 
 318 0bd7 843DD0D2 		.ascii	"\204=\320\322\214x\225\352kB\264\351\260U\017\037\250"
ARM GAS  /tmp/ccxVeSjc.s 			page 25


 318      8C7895EA 
 318      6B42B4E9 
 318      B0550F1F 
 318      A8
 319 0be8 E3369126 		.ascii	"\3436\221&\032\326\276'$\033\217XE\252A<6\023?\354\212"
 319      1AD6BE27 
 319      241B8F58 
 319      45AA413C 
 319      36133FEC 
 320 0bfd A34F9C0B 		.ascii	"\243O\234\013\"U\216O\234\347\200V[\200\312E\250\\\202"
 320      22558E4F 
 320      9CE78056 
 320      5B80CA45 
 320      A85C82
 321 0c10 CADDA8FC 		.ascii	"\312\335\250\374+*\337C\345\207\250<\202\312FT\236B"
 321      2B2ADF43 
 321      E587A83C 
 321      82CA4654 
 321      9E42
 322 0c22 E525545E 		.ascii	"\345%T^Ae\033*\277G\345uT\316@^13\031\257\300!\232\254"
 322      41651B2A 
 322      BF47E575 
 322      54CE405E 
 322      313319AF 
 323 0c3a FEA8D11A 		.ascii	"\376\250\321\032\256\3546\365\351l\256\200\211/$\024"
 323      AEEC36F5 
 323      E96CAE80 
 323      892F2414 
 324 0c4a 9B6D51D4 		.ascii	"\233mQ\324\272\232F\247/3:\235\341@G\210\377\204$\177"
 324      BA9A46A7 
 324      2F333A9D 
 324      E1404788 
 324      FF84247F 
 325 0c5e D5C98C01 		.ascii	"\325\311\214\001\3232\3255\367\037\3665\\X@\306\364"
 325      D332D535 
 325      F71FF635 
 325      5C5840C6 
 325      F4
 326 0c6f 54C387B2 		.ascii	"T\303\207\262mE\250\266\337\334\271\350\201\317\213"
 326      6D45A8B6 
 326      DFDCB9E8 
 326      81CF8B
 327 0c7e 809C9E50 		.ascii	"\200\234\236P\254[d\345v\326+\004\230f5\241Y\377\023"
 327      AC5B64E5 
 327      76D62B04 
 327      986635A1 
 327      59FF13
 328 0c91 738AD6EB 		.ascii	"s\212\326\353\003\230b\015\241\030\267E\321\230\307"
 328      0398620D 
 328      A118B745 
 328      D198C7
 329 0ca0 F5846293 		.ascii	"\365\204b\223\005E\253\205\247\224\217\224.q\032\377"
 329      0545AB85 
 329      A7948F94 
 329      2E711AFF 
 330 0cb0 800E6FF9 		.ascii	"\200\016o\371\030\327}\203\006T{\207P_wB\351\267f\252"
 330      18D77D83 
ARM GAS  /tmp/ccxVeSjc.s 			page 26


 330      06547B87 
 330      505F7742 
 330      E9B766AA 
 331 0cc4 91BF7181 		.ascii	"\221\277q\201\301\217H w\306\355/w\032\2377\320}'\011"
 331      C18F4820 
 331      77C6ED2F 
 331      771A9F37 
 331      D07D2709 
 332 0cd8 7B88AE9B 		.ascii	"{\210\256\233\027YEK\353E9\024-\017\020\222\255\226"
 332      1759454B 
 332      EB453914 
 332      2D0F1092 
 332      AD96
 333 0cea 6E9BCB33 		.ascii	"n\233\3133`\342\207\335!\003\303\032\350\331i`\340B"
 333      60E287DD 
 333      2103C31A 
 333      E8D96960 
 333      E042
 334 0cfc 3D7B0E8A 		.ascii	"={\016\212isQ9\037\225\013Q\371\032*\027\243\262\206"
 334      69735139 
 334      1F950B51 
 334      F91A2A17 
 334      A3B286
 335 0d0f F6FE1F85 		.ascii	"\366\376\037\205\250\261-\256\263\007\277\216\"\305"
 335      A8B12DAE 
 335      B307BF8E 
 335      22C5
 336 0d1d C04DCEA5 		.ascii	"\300M\316\245\363^=h1\005\320R\326~$\341d\246\272c["
 336      F35E3D68 
 336      3105D052 
 336      D67E24E1 
 336      64A6BA63 
 337 0d32 BF36951D 		.ascii	"\2776\225\035[B\350\363Lu\263=\276\266W\352\003\276"
 337      5B42E8F3 
 337      4C75B33D 
 337      BEB657EA 
 337      03BE
 338 0d44 46ADF4C8 		.ascii	"F\255\364\310\002\310>%t$\371\":\276\323\214\312K\250"
 338      02C83E25 
 338      7424F922 
 338      3ABED38C 
 338      CA4BA8
 339 0d57 FC3A99A3 		.ascii	"\374:\231\243<M\254\372\316e\252\3479\342\273\255\366"
 339      3C4DACFA 
 339      CE65AAE7 
 339      39E2BBAD 
 339      F6
 340 0d68 BB6D2D45 		.ascii	"\273m-Er\367nh\202\326S\320\375j\030%h\315\244\233\326"
 340      72F76E68 
 340      82D653D0 
 340      FD6A1825 
 340      68CDA49B 
 341 0d7d EF30DBF0 		.ascii	"\3570\333\360\325\322\201B\275\345\344%\302\020\252"
 341      D5D28142 
 341      BDE5E425 
 341      C210AA
 342 0d8c 26C2F5EB 		.ascii	"&\302\365\353x':\\\234\023\035\261,Q\241\330\274\256"
ARM GAS  /tmp/ccxVeSjc.s 			page 27


 342      78273A5C 
 342      9C131DB1 
 342      2C51A1D8 
 342      BCAE
 343 0d9e AB4E744C 		.ascii	"\253NtL'4\353S\031\2279\024gQ.-(v\321\211\216\235N\336"
 343      2734EB53 
 343      19973914 
 343      67512E2D 
 343      2876D189 
 344 0db6 C2148492 		.ascii	"\302\024\204\222\205\251\365]t\242c\027\327\232\273"
 344      85A9F55D 
 344      74A26317 
 344      D79ABB
 345 0dc5 186BB6AF 		.ascii	"\030k\266\257\267>\321\201\007\276yHO\260n|CgNt\000"
 345      B73ED181 
 345      07BE7948 
 345      4FB06E7C 
 345      43674E74 
 346 0dda BD4B92A2 		.ascii	"\275K\222\242\206\246\015\377?':\366r\365\260\227\321"
 346      86A60DFF 
 346      3F273AF6 
 346      72F5B097 
 346      D1
 347 0deb 43F3861F 		.ascii	"C\363\206\037\363D\307>\324+\377\222EOt\314\276\254"
 347      F344C73E 
 347      D42BFF92 
 347      454F74CC 
 347      BEAC
 348 0dfd 9EE8C023 		.ascii	"\236\350\300#\266FA?~\350\177\237\235W\325\"\276\240"
 348      B646413F 
 348      7EE87F9F 
 348      9D57D522 
 348      BEA0
 349 0e0f 3696CE9B 		.ascii	"6\226\316\233\223\322k\001\010\347\253\235\252i\033"
 349      93D26B01 
 349      08E7AB9D 
 349      AA691B
 350 0e1e B77722F4 		.ascii	"\267w\"\364\373\304ZD\010\366\312\370\366TB?\347\310"
 350      FBC45A44 
 350      08F6CAF8 
 350      F654423F 
 350      E7C8
 351 0e30 DD46D2D1 		.ascii	"\335F\322\321\353vX\375\032\203\233_&~\330x\351\023"
 351      EB7658FD 
 351      1A839B5F 
 351      267ED878 
 351      E913
 352 0e42 378249AE 		.ascii	"7\202I\256\313'nBf\330\202\312m\250\334\201\312\017"
 352      CB276E42 
 352      66D882CA 
 352      6DA8DC81 
 352      CA0F
 353 0e54 9331CC3A 		.ascii	"\2231\314:\3260;\262\324A\245n\277U\2273\31165Zx\217"
 353      D6303BB2 
 353      D441A56E 
 353      BF559733 
 353      C936355A 
ARM GAS  /tmp/ccxVeSjc.s 			page 28


 354 0e6a D06CDD6F 		.ascii	"\320l\335o\245\005\353\234\012\207\206\303\204f\323"
 354      A505EB9C 
 354      0A8786C3 
 354      8466D3
 355 0e79 012B3E73 		.ascii	"\001+>sM\315\216\025\271V\274[H\007\272\020\241\332"
 355      4DCD8E15 
 355      B956BC5B 
 355      4807BA10 
 355      A1DA
 356 0e8b 36A2F253 		.ascii	"6\242\362S4.\177\206\312\323\250\374\033*\317\241r-"
 356      342E7F86 
 356      CAD3A8FC 
 356      1B2ACFA1 
 356      722D
 357 0e9d 52F02154 		.ascii	"R\360!T\036agS'I\227k>@~N\264F\377s\2425\314\317\211"
 357      1E616753 
 357      2749976B 
 357      3E407E4E 
 357      B446FF73 
 358 0eb6 BAA25D63 		.ascii	"\272\242]c\363\256\244\307\177-\343\311\236\273I\365"
 358      F3AEA4C7 
 358      7F2DE3C9 
 358      9EBB49F5 
 359 0ec6 93FA6CFC 		.ascii	"\223\372l\374\030\012(\027\211t\027;./\235\256\3503"
 359      180A2817 
 359      8974173B 
 359      2E2F9DAE 
 359      E833
 360 0ed8 195A3EF1 		.ascii	"\031Z>\361c\324\301\216s\003\343q&0\266n7>\333e\343"
 360      63D4C18E 
 360      7303E371 
 360      2630B66E 
 360      373EDB65 
 361 0eed CD09DA9F 		.ascii	"\315\011\332\237\364H\302\322l\221\177\310T\213\010"
 361      F448C2D2 
 361      6C917FC8 
 361      548B08
 362 0efc 0C80F88C 		.ascii	"\014\200\370\214s\371\2143|\306\363\354\260\251\233"
 362      73F98C33 
 362      7CC6F3EC 
 362      B0A99B
 363 0f0b 6E5D35FD 		.ascii	"n]5\375\201\304\031\247\356'|`&\341 \017\370\247\306"
 363      81C419A7 
 363      EE277C60 
 363      26E1200F 
 363      F8A7C6
 364 0f1e E4F16A72 		.ascii	"\344\361jrg\271!\312i\266\257o\311\026\0259\2336X,n"
 364      67B921CA 
 364      69B6AF6F 
 364      C9161539 
 364      9B36582C 
 365 0f33 69E92A9F 		.ascii	"i\351*\237.\221\364\202\251\244\370\207\"\251Hz\236"
 365      2E91F482 
 365      A9A4F887 
 365      22A9487A 
 365      9E
 366 0f44 95F46D22 		.ascii	"\225\364m\"\251A\215d3839\341R\2651?\2278rJ\272\237"
ARM GAS  /tmp/ccxVeSjc.s 			page 29


 366      A9418D64 
 366      33383339 
 366      E152B531 
 366      3F973872 
 367 0f5b 442725D8 		.ascii	"D'%\330\227\254`{\222\025\2543?65\027\254\225#\230\365"
 367      97AC607B 
 367      9215AC33 
 367      3F363517 
 367      AC952398 
 368 0f70 3C1F225E 		.ascii	"<\037\"^\326O\276\353R\223\246+\315\324f\352\216\235"
 368      D64FBEEB 
 368      5293A62B 
 368      CDD466EA 
 368      8E9D
 369 0f82 FBE5FA75 		.ascii	"\373\345\372u'\034\015\367g\323m\247\215\237\222\365"
 369      271C0DF7 
 369      67D36DA7 
 369      8D9F92F5 
 370 0f92 C4E7246A 		.ascii	"\304\347$j\027\004\350\222\337\256\243N\303:"
 370      1704E892 
 370      DFAEA34E 
 370      C33A
 371 0fa0 4C0351F1 		.ascii	"L\003Q\361\305\2169\273-NbX-y\245\256\346i.\263\336"
 371      C58E39BB 
 371      2D4E6258 
 371      2D79A5AE 
 371      E6692EB3 
 372 0fb5 70DD9974 		.ascii	"p\335\231to\230\352b\204;\221\254\377\330\232\016\333"
 372      6F98EA62 
 372      843B91AC 
 372      FFD89A0E 
 372      DB
 373 0fc6 0A67D339 		.ascii	"\012g\3239\2029\315\003w*b\277\310\212\035OV\354\316"
 373      8239CD03 
 373      772A62BF 
 373      C88A1D4F 
 373      56ECCE
 374 0fd9 2C0F9A8B 		.ascii	",\017\232\213\375\252\251\330\334(\236\212\330\263X"
 374      FDAAA9D8 
 374      DC289E8A 
 374      D8B358
 375 0fe8 B1CFA526 		.ascii	"\261\317\245&v\256\300~\324.\006\346;\237\243\234\352"
 375      76AEC07E 
 375      D42E06E6 
 375      3B9FA39C 
 375      EA
 376 0ff9 EFA86C46 		.ascii	"\357\250lFe\013*"
 376      650B2A
 377 1000 AFA0F219 		.ascii	"\257\240\362\031\027,_@\345LW\022y\327)\266\333}\201"
 377      172C5F40 
 377      E54C5712 
 377      79D729B6 
 377      DB7D81
 378 1013 783D8E26 		.ascii	"x=\216&\002\033S\231\311\246\276\331\275\320\005\363"
 378      021B5399 
 378      C9A6BED9 
 378      BDD005F3 
ARM GAS  /tmp/ccxVeSjc.s 			page 30


 379 1023 B62F49D4 		.ascii	"\266/I\324i9\322xA\371I\\R{\335o\364\2005\377\342\342"
 379      6939D278 
 379      41F9495C 
 379      527BDD6F 
 379      F48035FF 
 380 1039 654310AA 		.ascii	"eC\020\252\352\260q\241\272:\253\371\330\233\317\032"
 380      EAB071A1 
 380      BA3AABF9 
 380      D89BCF1A 
 381 1049 AF32BD81 		.ascii	"\2572\275\201\304X\337\203l\003~\227\245\021\302\214"
 381      C458DF83 
 381      6C037E97 
 381      A511C28C 
 382 1059 8E24EC46 		.ascii	"\216$\354F\365\226s\205X\316\010Q?\337\315\221\301\245"
 382      F5967385 
 382      58CE0851 
 382      3FDFCD91 
 382      C1A5
 383 106b 998054BB 		.ascii	"\231\200T\273\320\004\204Pl\264\332\03146\250v\303\365"
 383      D0048450 
 383      6CB4DA19 
 383      3436A876 
 383      C3F5
 384 107d 3821D96C 		.ascii	"8!\331l\353\\E.\207\"\336\345>K(\266o\353\344\026\256"
 384      EB5C452E 
 384      8722DEE5 
 384      3E4B28B6 
 384      6FEBE416 
 385 1092 FD9709BA 		.ascii	"\375\227\011\272 \007\315\304`-\247g_\354\364\361\223"
 385      2007CDC4 
 385      602DA767 
 385      5FECF4F1 
 385      93
 386 10a3 362250CB 		.ascii	"6\"P\313\221\315g\027t\372\230(frj\216J5\336;\205\021"
 386      91CD6717 
 386      74FA9828 
 386      66726A8E 
 386      4A35DE3B 
 387 10b9 31F1C3BA 		.ascii	"1\361\303\272\232O\254q\241I\372J\024;V\243r\015*\327"
 387      9A4FAC71 
 387      A149FA4A 
 387      143B56A3 
 387      720D2AD7 
 388 10cd A1726332 		.ascii	"\241rc2\321\244\232\215|\257\344\250]2\276\260\313N"
 388      D1A49A8D 
 388      7CAFE4A8 
 388      5D32BEB0 
 388      CB4E
 389 10df 8AFC85E1 		.ascii	"\212\374\205\341\370u\027:)\262\204r&\011\177\316QC"
 389      F875173A 
 389      29B28472 
 389      26097FCE 
 389      5143
 390 10f1 D8C58E4D 		.ascii	"\330\305\216M\347-2\007\2758\214\346S{1\3006\027|1\300"
 390      E72D3207 
 390      BD388CE6 
 390      537B31C0 
ARM GAS  /tmp/ccxVeSjc.s 			page 31


 390      36177C31 
 391 1106 A21CD59B 		.ascii	"\242\034\325\233Zo\3074\223~-\300N\027\357\265\000\020"
 391      5A6FC734 
 391      937E2DC0 
 391      4E17EFB5 
 391      0010
 392 1118 4A02D812 		.ascii	"J\002\330\022\223\327\002\254\310a_\013 )\3207s\270"
 392      93D702AC 
 392      C8615F0B 
 392      2029D037 
 392      73B8
 393 112a AF05D891 		.ascii	"\257\005\330\221\243}-\000z\260\370\351>\345\317'\276"
 393      A37D2D00 
 393      7AB0F8E9 
 393      3EE5CF27 
 393      BE
 394 113b ED82C776 		.ascii	"\355\202\307v\337q\031\375t\337'\326\213\352T\272~G"
 394      DF7119FD 
 394      74DF27D6 
 394      8BEA54BA 
 394      7E47
 395 114d 265F68EB 		.ascii	"&_h\353\216\255\236 \301K\205\357\021\373\3220\252]"
 395      8EAD9E20 
 395      C14B85EF 
 395      11FBD230 
 395      AA5D
 396 115f 5EB4EE56 		.ascii	"^\264\356V*E\374s\262\017\223\246h|jG\363\203\371\\"
 396      2A45FC73 
 396      B20F93A6 
 396      687C6A47 
 396      F383F95C 
 397 1173 FDEFE563 		.ascii	"\375\357\345c4\331\216I\212\"?p\331\177\323\306~\345"
 397      34D98E49 
 397      8A223F70 
 397      D97FD3C6 
 397      7EE5
 398 1185 A565D47D 		.ascii	"\245e\324}\325;b'I\370(Q\034}\373\352\303\030S\015\301"
 398      D53B6227 
 398      49F82851 
 398      1C7DFBEA 
 398      C318530D 
 399 119a ED0AC8A5 		.ascii	"\355\012\310\245$4&O\362\250d\334\245\214\327D\272\362"
 399      2434264F 
 399      F2A864DC 
 399      A58CD744 
 399      BAF2
 400 11ac BD74475C 		.ascii	"\275tG\\I\277\227\356#\356@\373\021\233-\230\375HW\011"
 400      49BF97EE 
 400      23EE40FB 
 400      119B2D98 
 400      FD485709 
 401 11c0 CEE82590 		.ascii	"\316\350%\220\302\011\244#X\267u\365\265\324\317P*\333"
 401      C209A423 
 401      58B775F5 
 401      B5D4CF50 
 401      2ADB
 402 11d2 44F8F5C5 		.ascii	"D\370\365\305qB\263\261\366;B3\231m\242\\C\232M\224"
ARM GAS  /tmp/ccxVeSjc.s 			page 32


 402      7142B3B1 
 402      F63B4233 
 402      996DA25C 
 402      439A4D94 
 403 11e6 CFFBEC50 		.ascii	"\317\373\354PL<>\255R\374\222ry\277\035\212}5:U\203"
 403      4C3C3EAD 
 403      52FC9272 
 403      79BF1D8A 
 403      7D353A55 
 404 11fb 4A830BED 		.ascii	"J\203\013\355<\036Cc\316\307\250<\201\312Sl\224o%\021"
 404      3C1E4363 
 404      CEC7A83C 
 404      81CA536C 
 404      946F2511 
 405 120f 36BE86AC 		.ascii	"6\276\206\254^b\3031\024\251}\005K\232\306\275\356\020"
 405      5E62C331 
 405      14A97D05 
 405      4B9AC6BD 
 405      EE10
 406 1221 1DD380C8 		.ascii	"\035\323\200\310\022\211h\026c\313Q'\317\"\211\037v"
 406      12896816 
 406      63CB5127 
 406      CF22891F 
 406      76
 407 1232 A911F0E5 		.ascii	"\251\021\360\345D\233\032'Q2\277\0001\271\025\225{Q"
 407      449B1A27 
 407      5132BF00 
 407      31B91595 
 407      7B51
 408 1244 5987CA7D 		.ascii	"Y\207\312}\250\374\020\225\365\311\210\320@\223\374"
 408      A8FC1095 
 408      F5C988D0 
 408      4093FC
 409 1253 DB85D763 		.ascii	"\333\205\327cG\277\206\256{\265\243\303\203_\000'\011"
 409      47BF86AE 
 409      7BB5A3C3 
 409      835F0027 
 409      09
 410 1264 CFDEA0EA 		.ascii	"\317\336\240\352s\375\267\233\317\236R\362\237\273\204"
 410      73FDB79B 
 410      CF9E52F2 
 410      9FBB84
 411 1273 65B1D86C 		.ascii	"e\261\330l\210\213\275\334'6\272\320\232\243\353v\341"
 411      888BBDDC 
 411      2736BAD0 
 411      9AA3EB76 
 411      E1
 412 1284 6A777E73 		.ascii	"jw~s\016\\\011z\210\372F\214\305\2108\254\324\270}\243"
 412      0E5C097A 
 412      88FA468C 
 412      C58838AC 
 412      D4B87DA3 
 413 1298 C360EC53 		.ascii	"\303`\354SV-\022k/#\265\343\003\223\251\013\327\364"
 413      562D126B 
 413      2F23B5E3 
 413      0393A90B 
 413      D7F4
ARM GAS  /tmp/ccxVeSjc.s 			page 33


 414 12aa D525FD5A 		.ascii	"\325%\375ZR\267i\373V\322\262v\351CP\0265\2247P\334"
 414      52B769FB 
 414      56D2B276 
 414      E9435016 
 414      35943750 
 415 12bf 23AC805D 		.ascii	"#\254\200]\373\275\251\303\324\227\012b\002\365\333"
 415      FBBDA9C3 
 415      D4970A62 
 415      02F5DB
 416 12ce BF33E8D5 		.ascii	"\2773\350\325\212\216?sI\254Y\241\236\367\000=OEz\266"
 416      8A8E3F73 
 416      49AC59A1 
 416      9EF7003D 
 416      4F457AB6 
 417 12e2 7388E582 		.ascii	"s\210\345\202~\222\252\177/\232$l \346j\335?\311\334"
 417      7E92AA7F 
 417      2F9A246C 
 417      20E66ADD 
 417      3FC9DC
 418 12f5 56E701EF 		.ascii	"V\347\001\357\253\274\006\255\2612\317\212\355\231\332"
 418      ABBC06AD 
 418      B132CF8A 
 418      ED99DA
 419 1304 1BB12628 		.ascii	"\033\261&(\325N\262G\202A\256\316\027\0209\322\013\331"
 419      D54EB247 
 419      8241AECE 
 419      171039D2 
 419      0BD9
 420 1316 F81DA992 		.ascii	"\370\035\251\222\260\207\260&\2303\326l\302\230\310"
 420      B087B026 
 420      9833D66C 
 420      C298C8
 421 1325 BAC129F4 		.ascii	"\272\301)\364\376\327-\244\322\366\356\206n\000Q5B\305"
 421      FED72DA4 
 421      D2F6EE86 
 421      6E005135 
 421      42C5
 422 1337 34423527 		.ascii	"4B5'\012\365e\242Pgf\315\232V\255\364\016\370\322=\220"
 422      0AF565A2 
 422      506766CD 
 422      9A56ADF4 
 422      0EF8D23D 
 423 134c 2110992E 		.ascii	"!\020\231.v\314\371J{R\032L\277\315IlFj\371\204\220"
 423      76CCF94A 
 423      7B521A4C 
 423      BFCD496C 
 423      466AF984 
 424 1361 68FFA5B6 		.ascii	"h\377\245\266zk2\325[H\365f]\365\357\222\251\376\\O"
 424      7A6B32D5 
 424      5B48F566 
 424      5DF5EF92 
 424      A9FE5C4F 
 425 1375 E22FBAEA 		.ascii	"\342/\272\352W\315\252\333\361\332k<\257u\350^\344B"
 425      57CDAADB 
 425      F1DA6B3C 
 425      AF75E85E 
 425      E442
ARM GAS  /tmp/ccxVeSjc.s 			page 34


 426 1387 1E572A3D 		.ascii	"\036W*=\213\361\351\271\204\307\232S\0135\323[\220\250"
 426      8BF1E9B9 
 426      84C79A53 
 426      0B35D35B 
 426      90A8
 427 1399 75159731 		.ascii	"u\025\2271\267\216K\030\031\265}\253\246'5\366\345K"
 427      B78E4B18 
 427      19B57DAB 
 427      A62735F6 
 427      E54B
 428 13ab 9AFCD727 		.ascii	"\232\374\327'Nuk\030\271Sx#v\364(\314&cg::n\367\211"
 428      4E756B18 
 428      B9537823 
 428      76F428CC 
 428      2663673A 
 429 13c3 ABD05BD7 		.ascii	"\253\320[\327\267\367d\242i\313t\342\344\325\211\257"
 429      B7F764A2 
 429      69CB74E2 
 429      E4D589AF 
 430 13d3 D07F5621 		.ascii	"\320\177V!8@\330\030{q\020&\240l\264\251\263J\350\367"
 430      3840D818 
 430      7B711026 
 430      A06CB4A9 
 430      B34AE8F7 
 431 13e7 1B95E753 		.ascii	"\033\225\347S\370d\015\336}\373\243\320\026K\3030x^"
 431      F8640DDE 
 431      7DFBA3D0 
 431      164BC330 
 431      785E
 432 13f9 1E46B977 		.ascii	"\036F\271w2\321\267\237%|{\005|\333\374+\364%\334\254"
 432      32D1B79F 
 432      257C7B05 
 432      7CDBFC2B 
 432      F425DCAC 
 433 140d 83B41C28 		.ascii	"\203\264\034('\302\333v\354\3639Z\031\036\344\021\241"
 433      27C2DB76 
 433      ECF3395A 
 433      191EE411 
 433      A1
 434 141e 907B5821 		.ascii	"\220{X!\361\273Q\366\022!\333w^\"\2411\226\370*\224"
 434      F1BB51F6 
 434      1221DB77 
 434      5E22A131 
 434      96F82A94 
 435 1432 97A8CEEA 		.ascii	"\227\250\316\352va\376\340\356\240\322\004\334\326M"
 435      7661FEE0 
 435      EEA0D204 
 435      DCD64D
 436 1441 6C021FD6 		.ascii	"l\002\037\3269D\232hz\273\2054\3019\2333\2036Q\2574"
 436      39449A68 
 436      7ABB8534 
 436      C1399B33 
 436      833651AF 
 437 1456 01B71E55 		.ascii	"\001\267\036U\251\240\006\217(\317\344\235^\006\266"
 437      A9A0068F 
 437      28CFE49D 
 437      5E06B6
ARM GAS  /tmp/ccxVeSjc.s 			page 35


 438 1465 3B45BBCA 		.ascii	";E\273\312\273K%\023\313\315\264\266\234#9\313]\206"
 438      BB4B2513 
 438      CBCDB4B6 
 438      9C2339CB 
 438      5D86
 439 1477 C3CB6E6A 		.ascii	"\303\313nj9\015:k\255l\235\265\204\344\255u\216\210"
 439      390D3A6B 
 439      AD6C9DB5 
 439      84E4AD75 
 439      8E88
 440 1489 55FFAEA9 		.ascii	"U\377\256\251\265\376LU\331\274\233Z\013\242);\360Z"
 440      B5FE4C55 
 440      D9BC9B5A 
 440      0BA2293B 
 440      F05A
 441 149b DD8A46BA 		.ascii	"\335\212F\272\005\0354V\2552\201we/\365\204\335\251"
 441      051D3456 
 441      AD328177 
 441      652FF584 
 441      DDA9
 442 14ad 7D3F5D0C 		.ascii	"}?]\014\320\357\276B\352\363(\007:\033\261\3571l\021"
 442      D0EFBE42 
 442      EAF32807 
 442      3A1BB1EF 
 442      316C11
 443 14c0 E961CE98 		.ascii	"\351a\316\230\376\275\214,b\253\031\242O\\\350\266?"
 443      FEBD8C2C 
 443      62AB19A2 
 443      4F5CE8B6 
 443      3F
 444 14d1 0F5BE436 		.ascii	"\017[\3446\232\207i\007\027\025\017\210~\231\272\325"
 444      9A876907 
 444      17150F88 
 444      7E99BAD5 
 445 14e1 7AEACA1C 		.ascii	"z\352\312\034~^\323\271\325\002\300\037y\3174\005C\361"
 445      7E5ED3B9 
 445      D502C01F 
 445      79CF3405 
 445      43F1
 446 14f3 953724C3 		.ascii	"\2257$\303/]\210;\374\256d\350\015\2755\323,\315\213"
 446      2F5D883B 
 446      FCAE64E8 
 446      0DBD35D3 
 446      2CCD8B
 447 1506 DC7E3059 		.ascii	"\334~0Y!7|\343[\242\016\336p\367\320K\251{4\256\273"
 447      21377CE3 
 447      5BA20EDE 
 447      70F7D04B 
 447      A97B34AE 
 448 151b C44D8FDA 		.ascii	"\304M\217\332&t\303j7\234r\306n$\003\336\352\235\206"
 448      2674C36A 
 448      379C72C6 
 448      6E2403DE 
 448      EA9D86
 449 152e 8917C0D0 		.ascii	"\211\027\300\320\251\253Z\253.u9\302I\270\021\011\314"
 449      A9AB5AAB 
 449      2E7539C2 
ARM GAS  /tmp/ccxVeSjc.s 			page 36


 449      49B81109 
 449      CC
 450 153f 41601281 		.ascii	"A`\022\201Q\211\035L]\340\263\353\317\213\254L\242\231"
 450      51891D4C 
 450      5DE0B3EB 
 450      CF8BAC4C 
 450      A299
 451 1551 2172AC0C 		.ascii	"!r\254\014\221\253\267\303,\332\017s4\016\254\267C\002"
 451      91ABB7C3 
 451      2CDA0F73 
 451      340EACB7 
 451      4302
 452 1563 A24F5C9D 		.ascii	"\242O\\\235\202\003\327\032:p\017\215\003\327Z\333r"
 452      8203D71A 
 452      3A700F8D 
 452      03D75ADB 
 452      72
 453 1574 A5992D57 		.ascii	"\245\231-W![\316 \266l\255\245\266\344\210\262V\037"
 453      215BCE20 
 453      B66CADA5 
 453      B6E488B2 
 453      561F
 454 1586 5241F59C 		.ascii	"RA\365\234Dc\346$i\314\021\034cRQ\234\004\026$0\027"
 454      4463E624 
 454      69CC111C 
 454      6352519C 
 454      04162430 
 455 159b 07CF4D60 		.ascii	"\007\317M`E\004\346\341\340\245\021\330x\002\363r\360"
 455      4504E6E1 
 455      E0A511D8 
 455      7802F372 
 455      F0
 456 15ac D239FC65 		.ascii	"\3229\374ep\360\272q\332\355\316\301\313$\260b\002\313"
 456      70F0BA71 
 456      DAEDCEC1 
 456      CB24B062 
 456      02CB
 457 15be E2E06513 		.ascii	"\342\340e\023X\224\300z0x`t\336\240ur\311\314\311\007"
 457      5894C07A 
 457      30786074 
 457      DEA07572 
 457      C9CCC907 
 458 15d2 DA76F23D 		.ascii	"\332v\362=\016b\360\201\246N\236\200\010F\321\024\234"
 458      0E62F081 
 458      A64E9E80 
 458      0846D114 
 458      9C
 459 15e3 7C93A193 		.ascii	"|\223\241\223?\254q\362M\326N\376\246\231\223\277\205"
 459      3FAC71F2 
 459      4DD64EFE 
 459      A69993BF 
 459      85
 460 15f4 9C7C1171 		.ascii	"\234|\021q\362\3665\324\3119\242l\32199\254N&\266\324"
 460      F2F635D4 
 460      C939A26C 
 460      D13939AC 
 460      4E26B6D4 
ARM GAS  /tmp/ccxVeSjc.s 			page 37


 461 1608 C90726E9 		.ascii	"\311\007&\351\344C\222t\362\322$\235<\224\244\223Sg"
 461      E4439274 
 461      F2D2249D 
 461      3C94A493 
 461      5367
 462 161a 3377724A 		.ascii	"3wrJ\317\334\311G'\351\344\005I:y\036\327\311UX\016"
 462      CFDCC947 
 462      27E9E405 
 462      493A791E 
 462      D7C95558 
 463 162f 818D25B0 		.ascii	"\201\215%\260\0338x=\011\254\220\300n\344\340\365\""
 463      1B38783D 
 463      09AC90C0 
 463      6EE4E0F5 
 463      22
 464 1640 B05C02BB 		.ascii	"\260\\\002\273\211\203\327\233\300\236$\260\2339x?\341"
 464      8983D79B 
 464      C09E24B0 
 464      9B39783F 
 464      E1
 465 1651 E8EFA71C 		.ascii	"\350\357\247\034\274[\010,B`\267r\360n#0\231\300n\347"
 465      BC5B082C 
 465      4260B772 
 465      F06E2330 
 465      99C06EE7 
 466 1665 E0E51258 		.ascii	"\340\345\022X\025\201\335\301\301\273\223\023\234\376"
 466      1581DDC1 
 466      C1BB9313 
 466      9CFE
 467 1673 85837717 		.ascii	"\205\203w\027\201\225\021\330\335\034\274{8\372\373"
 467      819511D8 
 467      DD1CBC7B 
 467      38FAFB
 468 1682 1907EF5E 		.ascii	"\031\007\357^\216\337\377+\007\357>\216_\335\317\301"
 468      8EDFFF2B 
 468      07EF3E8E 
 468      5FDDCFC1 
 469 1692 FB37021B 		.ascii	"\3737\002\033I`\017p\360\372p\370\313\343\340\365%\260"
 469      49600F70 
 469      F0FA70F8 
 469      CBE3E0F5 
 469      25B0
 470 16a4 3104D68F 		.ascii	"1\004\326\217\203\327\237\300\302\0046\200\203\367 "
 470      83D79FC0 
 470      C2043680 
 470      83F720
 471 16b3 C7BE3FE7 		.ascii	"\307\276?\347\340=\304\261\357\303\232\340^\257\013"
 471      E03DC4B1 
 471      EFC39AE0 
 471      5EAF0B
 472 16c2 EE0EB3E0 		.ascii	"\356\016\263\340\236&\330N%\023W\3279\357\0046\216\260"
 472      9E26D84E 
 472      251357D7 
 472      39EF0436 
 472      8EB0
 473 16d4 3BCC22EC 		.ascii	";\314\"\354N\024aW\222\010\033_G#lb\273\357\350\002"
 473      4E146157 
ARM GAS  /tmp/ccxVeSjc.s 			page 38


 473      92081B5F 
 473      47236C62 
 473      BBEFE802 
 474 16e8 2CAC9D96 		.ascii	",\254\235\226\030`\323\222\014\260\003\222\014\260}"
 474      1860D392 
 474      0CB00392 
 474      0CB07D
 475 16f7 930CB014 		.ascii	"\223\014\260\024\317\2431P\243b \316\314\024YH\330L"
 475      CFA33150 
 475      A36220CE 
 475      CC145948 
 475      D84C
 476 1709 E4AF9B97 		.ascii	"\344\257\233\227e,\376n\235\370V\011*N\341\214r\267"
 476      652CFE6E 
 476      9DF85609 
 476      2A4EE18C 
 476      72B7
 477 171b 8334773B 		.ascii	"\2034w;\226\2416\312I\335\336K=u\0239J\317\346(]\344"
 477      96A136CA 
 477      49DDDE4B 
 477      3D751339 
 477      4ACFE628 
 478 1731 285D4A52 		.ascii	"(]JR\351\002G\351\203\010\214\216j\033h#tX\273\215\300"
 478      E90247E9 
 478      83088C8E 
 478      6A1B6823 
 478      7458BB8D 
 479 1746 E8B04627 		.ascii	"\350\260F'\024\346\303\032\205u\3470\235\311\021.\213"
 479      14E6C31A 
 479      8575E730 
 479      9DC9112E 
 479      8B
 480 1757 83478735 		.ascii	"\203G\2075\352\241=\230\272\300{&\231\271\316\005:\233"
 480      EAA13D98 
 480      BAC07B26 
 480      99B9CE05 
 480      3A9B
 481 1769 5AD562D2 		.ascii	"Z\325b\322u\366Y\373\316\020\253\320\220\220\367-\240"
 481      75F659FB 
 481      CE10ABD0 
 481      9090F72D 
 481      A0
 482 177a AF6E1C82 		.ascii	"\257n\034\202\250\033\345}\011\210>\361`\012y_\275a"
 482      A81BE57D 
 482      09883EF1 
 482      600A795F 
 482      BD61
 483 178c DEF7B840 		.ascii	"\336\367\270@?\024\317\204\324\001\263\250\364!\352"
 483      3F14CF84 
 483      D401B3A8 
 483      F421EA
 484 179b 20CFF522 		.ascii	" \317\365\"\035\344x\206\211$\207u\252\205\265\207$"
 484      1DE47886 
 484      89248775 
 484      AA85B587 
 484      24
 485 17ac 76102A98 		.ascii	"v\020*\230\310\361\003\373i\037\257\203P_3\357 {(\""
ARM GAS  /tmp/ccxVeSjc.s 			page 39


 485      C8F103FB 
 485      691FAF83 
 485      505F33EF 
 485      207B2822 
 486 17c0 ED21FD39 		.ascii	"\355!\3759\035\2042\3355\035\204\266\233\311\021\304"
 486      1D8432DD 
 486      351D84B6 
 486      9BC911C4 
 487 17d0 BC83D0BA 		.ascii	"\274\203\320\272\346y\237\213\300h\336w\027\201\365"
 487      E6799F8B 
 487      C068DE77 
 487      1781F5
 488 17df E4D4A579 		.ascii	"\344\324\245y\037\215N\2758\355\336\304i\2437\247\215"
 488      1F8D4EBD 
 488      38EDDEC4 
 488      69A337A7 
 488      8D
 489 17f0 9B39757F 		.ascii	"\2339u\177\302i\367\247\034<\232\367Q=\337\312i\343"
 489      C269F7A7 
 489      1C3C9AF7 
 489      513DDFCA 
 489      69E3
 490 1802 368EAE6E 		.ascii	"6\216\256n\347\300r9<\337\301\241G\363>7\201\231\347"
 490      E7C07239 
 490      3CDFC1A1 
 490      47F33E37 
 490      8199E7
 491 1815 7D94679A 		.ascii	"}\224g\232\367y\010\354\036N\2734\357\233J+\323\304"
 491      F77908EC 
 491      1E4EBB34 
 491      EF9B4A2B 
 491      D3C4
 492 1827 8F46409A 		.ascii	"\217F@\232\370\321\261\374>\01634\361\353\240\004i\346"
 492      F8D1B1FC 
 492      3E0E3334 
 492      F1EBA004 
 492      69E6
 493 1839 47BD9766 		.ascii	"G\275\227f~T\253}8\222\230g~T\2534\363K'\260\376\234"
 493      7E54AB7D 
 493      38929867 
 493      7E54AB34 
 493      F34B27B0 
 494 184f BAE6991F 		.ascii	"\272\346\231\037\205\375\234\243\301\2078\032|\230\303"
 494      85FD9CA3 
 494      C187381A 
 494      7C98C3
 495 185e F3400E7F 		.ascii	"\363@\016\177\217\020\030\035\013\177\301i\367\227\034"
 495      8F10181D 
 495      0B7FC169 
 495      F7971C
 496 186d D8AF38BC 		.ascii	"\330\2578\274<\312\341\3451\002{\2062\363\357\034f\006"
 496      3CCAE1E5 
 496      31027B86 
 496      32F3EF1C 
 496      6606
 497 187f 719819CC 		.ascii	"q\230\031\314i\370q\006&\010\355\2532\311\300\247Yq"
 497      69F87106 
ARM GAS  /tmp/ccxVeSjc.s 			page 40


 497      2608EDAB 
 497      32C9C0A7 
 497      5971
 498 1891 C6FFFFED 		.ascii	"\306\377\377\355*\022\235\227\316\373\370Sr\340A\377"
 498      2A129D97 
 498      CEFBF853 
 498      72E041FF 
 499 18a1 BFDDA2C3 		.ascii	"\277\335\242\303\002\332e\3477\3670\241\3760>\325\331"
 499      02DA65E7 
 499      37F730A1 
 499      FE303ED5 
 499      D9
 500 18b2 8B6EEBB4 		.ascii	"\213n\353\264\356\274\346\322r\316\216\243\307t\301"
 500      EEBCE6D2 
 500      72CE8EA3 
 500      C774C1
 501 18c1 1ED6570E 		.ascii	"\036\326W\016 (k\365\312\236\356Q\367\235B\323a\274"
 501      20286BF5 
 501      CA9EEE51 
 501      F79D42D3 
 501      61BC
 502 18d3 CC0E0F26 		.ascii	"\314\016\017&P\273\341#\012\354\363)\346Y\342qy\004"
 502      50BBE123 
 502      0AECF329 
 502      E659E271 
 502      7904
 503 18e5 6F3E112E 		.ascii	"o>\021.\353\017\325\230\255\364\237\000L\336&\354\356"
 503      EB0FD598 
 503      ADF49F00 
 503      4CDE26EC 
 503      EE
 504 18f6 B53896A6 		.ascii	"\2658\226\246a\026\222Q\376\353(\205\331f\314,\334>"
 504      61169251 
 504      FEEB2885 
 504      D966CC2C 
 504      DC3E
 505 1908 6D3C8499 		.ascii	"m<\204\231\275D\277}\011\357b\240\035\372\221\350\313"
 505      BD44BF7D 
 505      09EF62A0 
 505      1DFA91E8 
 505      CB
 506 1919 57E89EC4 		.ascii	"W\350\236\304\\\374\3457ps\012\1779_\331\300X\254n\026"
 506      5CFCE537 
 506      70730A7F 
 506      395FD9C0 
 506      58AC6E16 
 507 192d E40A4BF0 		.ascii	"\344\012K\360\356\263H6j!-\272\363\226*B\374\021+\214"
 507      EEB34836 
 507      6A212DBA 
 507      F3962A42 
 507      FC112B8C 
 508 1941 668AA199 		.ascii	"f\212\241\231\330|\300\374*@wZ\000\334\377-\205\244"
 508      D87CC0FC 
 508      2A40775A 
 508      00DCFF2D 
 508      85A4
 509 1953 E4AC6152 		.ascii	"\344\254aR\"j\031\310\325\267?\220`z\024Z\347\310\322"
ARM GAS  /tmp/ccxVeSjc.s 			page 41


 509      226A19C8 
 509      D5B73F90 
 509      607A145A 
 509      E7C8D2
 510 1966 BBFA5F2F 		.ascii	"\273\372_/\351\3374\0017c\215yi\242Y\215\256\036\334"
 510      E9DF3401 
 510      37638D79 
 510      69A2598D 
 510      AE1EDC
 511 1979 1E35AEF7 		.ascii	"\0365\256\367wZ\217\243\317\363V&\321\"\350Z\276`\312"
 511      775A8FA3 
 511      CFF35626 
 511      D122E85A 
 511      BE60CA
 512 198c F13F4C5B 		.ascii	"\361?L[n\266jY\213 x\252\242\305\301J\277\354~b\324"
 512      6EB66A59 
 512      8B2078AA 
 512      A2C5C14A 
 512      BFEC7E62 
 513 19a1 B8DC2142 		.ascii	"\270\334!Bn\237>yCJC\305\241\321\005y\341h^iQY^\250"
 513      6E9F3E79 
 513      434A43C5 
 513      A1D10579 
 513      E1685E69 
 514 19b9 22505655 		.ascii	"\"PVU\022\314\003\210}J\001~\250B\036\350\227\203y\245"
 514      12CC0388 
 514      7D4A017E 
 514      A8421EE8 
 514      978379A5 
 515 19cd E1F2605E 		.ascii	"\341\362`^YQU$X\021\010\346\015\036;\362\201'\206\014"
 515      59515524 
 515      581108E6 
 515      0D1E3BF2 
 515      8127860C 
 516 19e1 C92B0E55 		.ascii	"\311+\016U\344\001\032e\241\342\274\011\201@^Q\244\374"
 516      E4011A65 
 516      A1E2BC09 
 516      81405E51 
 516      A4FC
 517 19f3 818A7045 		.ascii	"\201\212pE\360\201`Qq(\357\301>\017\367y\020~M\376i"
 517      F0816051 
 517      7128EFC1 
 517      3E0FF779 
 517      107E4DFE 
 518 1a08 BF579B8A 		.ascii	"\277W\233\212\312%\240\025\320Z\377Dv*\303\0219\232"
 518      CA25A015 
 518      D05AFF44 
 518      762AC311 
 518      399A
 519 1a1a 57503872 		.ascii	"WP8r@\377\274\021#\206\346\215+x|R?\310\234\277\254"
 519      40FFBC11 
 519      2386E68D 
 519      2B787C52 
 519      3FC89CBF 
 520 1a2f AC045449 		.ascii	"\254\004TI\203\014\016\350\357\227=@\254\362pI\320\013"
 520      830C0EE8 
 520      EF973D40 
ARM GAS  /tmp/ccxVeSjc.s 			page 42


 520      ACF27049 
 520      D00B
 521 1a41 30864642 		.ascii	"0\206FB\223\202\221t\200\025\225\213\344\240_N\007@"
 521      93829174 
 521      8015958B 
 521      E4A05F4E 
 521      0740
 522 1a53 FFB851C3 		.ascii	"\377\270Q\303G\015/L\203\267\005\205\243\307@D\377\330"
 522      470D2F4C 
 522      83B70585 
 522      A3C74044 
 522      FFD8
 523 1a65 FCC1437F 		.ascii	"\374\301C\177\333\015\201\362G\344\017)\314\037\212"
 523      DB0D81F2 
 523      47E40F29 
 523      CC1F8A
 524 1a74 50070F29 		.ascii	"P\007\017)\034\376d\276\013\325\206d\202\223\202\025"
 524      1CFE64BE 
 524      0BD58664 
 524      82938215 
 525 1a84 B25FCE82 		.ascii	"\262_\316\202\337\345?\231?\252\020T,\310/\354A\237"
 525      DFE53F99 
 525      3FAA1054 
 525      2CC82FEC 
 525      419F
 526 1a96 070F1D0A 		.ascii	"\007\017\035\012@\005=)d\310\350Q\3771\374\211qc\363"
 526      40053D29 
 526      64C8E851 
 526      FF31FC89 
 526      7163F3
 527 1aa9 87326805 		.ascii	"\2072h\005\343\012\306\344\217\032\232M!\3775\370\327"
 527      E30AC6E4 
 527      8F1A9A4D 
 527      21FF35F8 
 527      D7
 528 1aba F9E3C6B0 		.ascii	"\371\343\306\260(\205\203G\214\310\037\332Mm6P\354\227"
 528      28858347 
 528      8CC81FDA 
 528      4D6D3650 
 528      EC97
 529 1acc D3300381 		.ascii	"\3230\003\201bw4\364G \317\257S7\007\243\364\222\340"
 529      627734F4 
 529      4720CFAF 
 529      533707A3 
 529      F492E0
 530 1adf 7864E212 		.ascii	"xd\342\022?\244\352\205\177\345H\250bBw\250\302`4\020"
 530      3FA4EA85 
 530      7FE548A8 
 530      624277A8 
 530      C2603410 
 531 1af3 0955CAE1 		.ascii	"\011U\312\341\010\322p\277\207\374r\016\340hBP.!\337"
 531      08D270BF 
 531      87FC720E 
 531      E0684250 
 531      2E21DF
 532 1b06 F8E51EE0 		.ascii	"\370\345\036\340\331\317\000\002\305.\377\343\341pY"
 532      D9CF0002 
ARM GAS  /tmp/ccxVeSjc.s 			page 43


 532      C52EFFE3 
 532      E17059
 533 1b15 16408D04 		.ascii	"\026@\215\004'\226\026U\224\224\005\001^6x\250\012F"
 533      27961655 
 533      94940501 
 533      5E3678A8 
 533      0A46
 534 1b27 E5A8BF34 		.ascii	"\345\250\2774\034~\012\240u\007\010\201\242\262\262"
 534      1C7E0AA0 
 534      75070881 
 534      A2B2B2
 535 1b36 E2A2C053 		.ascii	"\342\242\300S\300\033\243\341\361\000\010-2$\\1>4\301"
 535      C01BA3E1 
 535      F100082D 
 535      32245C31 
 535      3E34C1
 536 1b49 1D407FBA 		.ascii	"\035@\177\272\311\221\242\212hyH\226\001W\336H0\020"
 536      C991A28A 
 536      68794896 
 536      0157DE48 
 536      3010
 537 1b5b 0C4D0277 		.ascii	"\014M\002w\216`e\300\033\252\360W\026E\212\312\243\351"
 537      8E6065C0 
 537      1BAAF057 
 537      16458ACA 
 537      A3E9
 538 1b6d E12A59B9 		.ascii	"\341*Y\271\355\216\274\273\257b\364\033\221N\307\364"
 538      ED8EBCBB 
 538      AF62F41B 
 538      914EC7F4 
 539 1b7d 052A1E5E 		.ascii	"\005*\036^8|\324\023\300\304\205\343\306\244\253\320"
 539      387CD413 
 539      C0C485E3 
 539      C6A4ABD0 
 540 1b8d C2DFDCA0 		.ascii	"\302\337\334\240G(\374M\337\004XAa\001\2512\226V)\000"
 540      4728FC4D 
 540      DF045841 
 540      6101A932 
 540      96562900 
 541 1ba1 5654BEEE 		.ascii	"VT\276\356\256\302\362\307\216\035=6Me\0008d\337\212"
 541      AEC2F2C7 
 541      8E1D3D36 
 541      4D650038 
 541      64DF8A
 542 1bb4 E014D909 		.ascii	"\340\024\331\011\377Bh\260\242\004\350'\032\224\253"
 542      FF4268B0 
 542      A204E827 
 542      1A94AB
 543 1bc3 2ADD10A3 		.ascii	"*\335\020\243*\352)*)\211\004\243\321\356X\334\252H"
 543      2AEA292A 
 543      298904A3 
 543      D1EE58DC 
 543      AA48
 544 1bd5 911C0A57 		.ascii	"\221\034\012W\270+\313a\275,$\014UR\032\252\011U\014"
 544      B82BCB61 
 544      BD2C240C 
 544      55521AAA 
ARM GAS  /tmp/ccxVeSjc.s 			page 44


 544      09550C
 545 1be8 44079E00 		.ascii	"D\007\236\000\305\016\024\247\203\207\362\242)\320\200"
 545      C50E14A7 
 545      8387F2A2 
 545      29D080
 546 1bf7 1910A2DC 		.ascii	"\031\020\242\334\347\000\236\206W\344W\224T\206\201"
 546      E7009E86 
 546      57E45794 
 546      548681
 547 1c06 F50A203F 		.ascii	"\365\012 ?i\362\024`\203\252`\211[F(.yJ\240B\006eq\325"
 547      69F21460 
 547      83AA6089 
 547      5B46282E 
 547      794AA042 
 548 1c1e 787759A8 		.ascii	"xwY\250\"X\024\311\004\024*\001\021\204\347\227\357"
 548      225814C9 
 548      04142A01 
 548      1184E797 
 548      EF
 549 1c2f D276C788 		.ascii	"\322v\307\210L\234'P\212P\242\300}\322Ca\025?M\275\315"
 549      4C9C2750 
 549      8A50A2C0 
 549      7DD24361 
 549      153F4DBD 
 550 1c44 924B23C1 		.ascii	"\222K#\301\242\222\250\372\305=&\204\242OG\345\247+"
 550      A292A8FA 
 550      C53D2684 
 550      A24F47E5 
 550      A72B
 551 1c56 11A9EC40 		.ascii	"\021\251\354@\251_S\363N\263z\201R\324\377q\005\277"
 551      A95F53F3 
 551      4EB37A81 
 551      52D4FF71 
 551      05BF
 552 1c68 EC2595DD 		.ascii	"\354%\225\335\225~\250?\360\2472\022\234\344\221+#\200"
 552      957EA83F 
 552      F0A73212 
 552      9CE4912B 
 552      2380
 553 1c7a 2FF9A104 		.ascii	"/\371\241\004Z8\264\200\2563d\344\224\274@\270\2742"
 553      5A38B480 
 553      AE3364E4 
 553      94BC40B8 
 553      BC32
 554 1c8c 047C359A 		.ascii	"\004|5\232\007\373Q\240T\345\011Q\011\205=\300B2 \372"
 554      07FB51A0 
 554      54E50951 
 554      09853DC0 
 554      423220FA 
 555 1ca0 330B2AA5 		.ascii	"3\013*\245\201p$\010\252e@\260\037\250> O\271?\231:"
 555      81702408 
 555      AA6540B0 
 555      1FA83E20 
 555      4FB93F99 
 556 1cb5 FE490F97 		.ascii	"\376I\017\227Cq\"\301\011\240\327\372e)\362\240\024"
 556      437122C1 
 556      09A0D7FA 
ARM GAS  /tmp/ccxVeSjc.s 			page 45


 556      6529F2A0 
 556      14
 557 1cc6 F9B91479 		.ascii	"\371\271\024yH\212<,E\006J\221G\034\221~}\301\325O*"
 557      488A3C2C 
 557      45064A91 
 557      471C917E 
 557      7DC1D54F 
 558 1cdb 8B803F03 		.ascii	"\213\200?\003\\\300\025\344)\036(\353\344`\004\374\015"
 558      5CC015E4 
 558      291E28EB 
 558      E46004FC 
 558      0D
 559 1cec 97950423 		.ascii	"\227\225\004#\316@iQ\004*\240\250\034\030\\\351\010"
 559      CE406951 
 559      042AA0A8 
 559      1C185CE9 
 559      08
 560 1cfd E04BEC91 		.ascii	"\340K\354\2212\014\220\350y|Y\321\204\250G\216\004\307"
 560      320C90E8 
 560      797C59D1 
 560      84A8478E 
 560      04C7
 561 1d0f 47FD5053 		.ascii	"G\375PS\360\306U\036\235\000\276T\342\251;R\3624\000"
 561      F0C6551E 
 561      9D00BE54 
 561      E2A93B52 
 561      F23400
 562 1d22 A405A784 		.ascii	"\244\005\247\204\344\000\250\346\236,\207\213\377P\231"
 562      E400A8E6 
 562      9E2C878B 
 562      FF5099
 563 1d31 81225179 		.ascii	"\201\"QyQ\024v\333\340dx\343\250\364We\252v+\013Ea\240"
 563      511476DB 
 563      E06478E3 
 563      A8F45765 
 563      AA762B0B 
 564 1d48 642C0921 		.ascii	"d,\011!\336J\377\344\242\020\354\305\351 JG' \353\272"
 564      DE4AFFE4 
 564      A210ECC5 
 564      E9204A47 
 564      2720EBBA 
 565 1d5c D02D0004 		.ascii	"\320-\000\004+A\327\000\337\271\312\253\200\216\357"
 565      2B41D700 
 565      DFB9CAAB 
 565      808EEF
 566 1d6b 30317AB9 		.ascii	"01z\271<\005F\254r\354\036\340oxr\005\020\036\325\003"
 566      3C0546AC 
 566      72EC1EE0 
 566      6F787205 
 566      101ED503 
 567 1d7f FC9423C3 		.ascii	"\374\224#\303\203\306\000\036l6\035\012VT\206\014\010"
 567      83C6001E 
 567      6C361D0A 
 567      5654860C 
 567      08
 568 1d90 80952032 		.ascii	"\200\225 2y'\252\234\200\273@\270\012X5\2226\321\017"
 568      7927AA9C 
ARM GAS  /tmp/ccxVeSjc.s 			page 46


 568      80BB40B8 
 568      0A583592 
 568      36D10F
 569 1da3 FAC0F860 		.ascii	"\372\300\370`\3045\321/\207+=\000%R)G\300\337H\011\370"
 569      C435D12F 
 569      872B3D00 
 569      25522947 
 569      C0DF4809 
 570 1db8 EB9D5811 		.ascii	"\353\235X\021\226C\343\237\006\016>\321\217o\335\023"
 570      9643E39F 
 570      060E3ED1 
 570      8F6FDD13 
 571 1dc8 8158154F 		.ascii	"\201X\025Oy\224.\345B\245\023j7\015\364G\244l\030)F"
 571      79942EE5 
 571      42A5136A 
 571      370DF447 
 571      A46C1829 
 572 1ddd 57C9DA2E 		.ascii	"W\311\332.\030Q\273`\004w\301\010\352\202\021\330\005"
 572      1851BB60 
 572      0477C108 
 572      EA8211D8 
 572      05
 573 1dee BB872A98 		.ascii	"\273\207*\230\256\347Q0\001b\345Sr\324\013\2736\036"
 573      AEE75130 
 573      0162E553 
 573      72D40BBB 
 573      361E
 574 1e00 8DC03087 		.ascii	"\215\3000\207\231\215zq@\000Op\364P\033\302\0014\253"
 574      998D7A71 
 574      40004F70 
 574      F4501BC2 
 574      0134AB
 575 1e13 20180915 		.ascii	" \030\011\025\225\221\261\360g\306\003}\024a\372\361"
 575      9591B1F0 
 575      67C6037D 
 575      1461FAF1 
 576 1e23 789FA3AB 		.ascii	"x\237\243\253\367\344\310B\327\344HH\016:\2411\035\200"
 576      F7E4C842 
 576      D7E44848 
 576      0E3AA131 
 576      1D80
 577 1e35 430708F9 		.ascii	"C\007\010\371^\330iC\345\200O'\200\310N\000\222\335"
 577      5ED86943 
 577      E5804F27 
 577      80C84E00 
 577      92DD
 578 1e47 080D0803 		.ascii	"\010\015\010\003\360d\307\244r9\023\217Y\321pU$`\021"
 578      F064C7A4 
 578      7239138F 
 578      59D17055 
 578      246011
 579 1e5a 4C1026EC 		.ascii	"L\020&\354m\335\330:\331\370\001\0322X\001G\221L-\300"
 579      6DDDD83A 
 579      D9F8011A 
 579      32580147 
 579      914C2DC0 
 580 1e6e 132C43F6 		.ascii	"\023,C\366\316\000\177U\230\027\334cj\230\024\362s8"
ARM GAS  /tmp/ccxVeSjc.s 			page 47


 580      CE007F55 
 580      9817DC63 
 580      6A9814F2 
 580      7338
 581 1e80 7E966197 		.ascii	"~\226a\227\207\337O\306\316\037\214\242\332.\204\227"
 581      87DF4FC6 
 581      CE1F8CA2 
 581      DA2E8497 
 582 1e90 1E2DA952 		.ascii	"\036-\251Rs\205\202\241\343\324\\\001\336\242\\\001"
 582      738582A1 
 582      E3D45C01 
 582      DEA25C01 
 583 1ea0 DEA05CC1 		.ascii	"\336\240\\\301\035\302v\011\243?R\250X\012\027;\201"
 583      1DC27609 
 583      A33F52A8 
 583      580A173B 
 583      81
 584 1eb1 EE2A3DC5 		.ascii	"\356*=\305UeO\201\036\237\206\376\002{\271\2011\300"
 584      55654F81 
 584      1E9F86FE 
 584      027BB981 
 584      31C0
 585 1ec3 33B504B6 		.ascii	"3\265\004\266L\246v\310\364\302\201p\374\204>\001\301"
 585      4CA676C8 
 585      F4C28170 
 585      FC843E01 
 585      C1
 586 1ed4 5502638E 		.ascii	"U\002c\216\033t\204\222\340\024gYQ\305\204l\230\346"
 586      1B748492 
 586      E0146759 
 586      51C5846C 
 586      98E6
 587 1ee6 20F6FA80 		.ascii	" \366\372\200\361M\356\323\327K\000Y\200\337\261\312"
 587      F14DEED3 
 587      D74B0059 
 587      80DFB1CA 
 588 1ef6 983A0C0C 		.ascii	"\230:\014\014\2517\201\347\341\320\227#U\225r\241:j"
 588      A93781E7 
 588      E1D09723 
 588      559572A1 
 588      3A6A
 589 1f08 064B7200 		.ascii	"\006Kr\000|h\221\\\304\200\262\024\320X4\234\006K`+"
 589      7C68915C 
 589      C480B214 
 589      D058349C 
 589      064B602B 
 590 1f1c C32B42C4 		.ascii	"\303+B\304S\207\367\000\010C\224\001)\010\211\017\367"
 590      5387F700 
 590      08439401 
 590      2908890F 
 590      F7
 591 1f2d 062BFBE1 		.ascii	"\006+\373\341!\012\270_\277P\005\322T\006\270\005b\242"
 591      210AB85F 
 591      BF5005D2 
 591      5406B805 
 591      62A2
 592 1f3f 7B80D09F 		.ascii	"{\200\320\237 \364W\020\234@i\375\272M\002\221U\311"
ARM GAS  /tmp/ccxVeSjc.s 			page 48


 592      20F45710 
 592      9C4069FD 
 592      BA4D0291 
 592      55C9
 593 1f51 2BA2EC43 		.ascii	"+\242\354C_\366A\203\326\237}\030\320\013=\224\004'"
 593      5FF64183 
 593      D69F7D18 
 593      D00B3D94 
 593      0427
 594 1f63 85801751 		.ascii	"\205\200\027Q\275\375\224\017\366\227\000\311nE\337"
 594      BDFD940F 
 594      F69700C9 
 594      6E45DF
 595 1f72 69C65406 		.ascii	"i\306T\006\345N\323o\021\001\027\364\377~\240\177E\260"
 595      E54ED36F 
 595      110117F4 
 595      FF7EA07F 
 595      45B0
 596 1f84 75DCF84F 		.ascii	"u\334\370Of\237H\030~\335\007?\376\037\216\260\367:"
 596      669F4818 
 596      7EDD073F 
 596      FE1F8EB0 
 596      F73A
 597              		.text
 598              		.section	.gnu.lto_.symtab.40ff45a1f15b9f05,"",%progbits
 599 0000 73647552 		.ascii	"sduRequestsHook\000\000\002\000\000\000\000\000\000"
 599      65717565 
 599      73747348 
 599      6F6F6B00 
 599      00020000 
 600 0018 000000F1 		.ascii	"\000\000\000\361\002\000\000sduInterruptTransmitted"
 600      02000073 
 600      6475496E 
 600      74657272 
 600      75707454 
 601 0036 00000200 		.ascii	"\000\000\002\000\000\000\000\000\000\000\000\000\363"
 601      00000000 
 601      00000000 
 601      F3
 602 0043 02000073 		.ascii	"\002\000\000sduDataTransmitted\000\000\002\000\000\000"
 602      64754461 
 602      74615472 
 602      616E736D 
 602      69747465 
 603 005e 00000000 		.ascii	"\000\000\000\000\000\000\365\002\000\000sduDataRece"
 603      0000F502 
 603      00007364 
 603      75446174 
 603      61526563 
 604 0073 69766564 		.ascii	"ived\000\000\002\000\000\000\000\000\000\000\000\000"
 604      00000200 
 604      00000000 
 604      00000000 
 605 0083 F7020000 		.ascii	"\367\002\000\000usbInitEndpointI\000\000\002\000\000"
 605      75736249 
 605      6E697445 
 605      6E64706F 
ARM GAS  /tmp/ccxVeSjc.s 			page 49


 605      696E7449 
 606 009c 00000000 		.ascii	"\000\000\000\000\000\000\000\371\002\000\000sduConf"
 606      000000F9 
 606      02000073 
 606      6475436F 
 606      6E66
 607 00ae 69677572 		.ascii	"igureHookI\000\000\002\000\000\000\000\000\000\000\000"
 607      65486F6F 
 607      6B490000 
 607      02000000 
 607      00000000 
 608 00c3 00FF0200 		.ascii	"\000\377\002\000\000serusbcfg\000\000\000\000\000\000"
 608      00736572 
 608      75736263 
 608      66670000 
 608      00000000 
 609 00d7 00000000 		.ascii	"\000\000\000\000\000\000R\003\000\000usbcfg\000\000"
 609      00005203 
 609      00007573 
 609      62636667 
 609      0000
 610 00e9 00000000 		.ascii	"\000\000\000\000\000\000\000\000\000\000V\003\000\000"
 610      00000000 
 610      00005603 
 610      0000
 611 00f7 53445531 		.ascii	"SDU1\000\000\002\000\000\000\000\000\000\000\000\000"
 611      00000200 
 611      00000000 
 611      00000000 
 612 0107 15030000 		.ascii	"\025\003\000\000USBD1\000\000\002\000\000\000\000\000"
 612      55534244 
 612      31000002 
 612      00000000 
 612      00
 613 0118 00000000 		.ascii	"\000\000\000\000P\003\000\000"
 613      50030000 
 614              		.text
 615              		.section	.gnu.lto_.opts,"",%progbits
 616 0000 272D6444 		.ascii	"'-dD''-mcpu=cortex-m3''-mno-thumb-interwork''-mthum"
 616      27272D6D 
 616      6370753D 
 616      636F7274 
 616      65782D6D 
 617 0033 6227272D 		.ascii	"b''-ggdb''-g3''-O2''-fomit-frame-pointer''-falign-f"
 617      67676462 
 617      27272D67 
 617      3327272D 
 617      4F322727 
 618 0066 756E6374 		.ascii	"unctions=16''-ffunction-sections''-fdata-sections''"
 618      696F6E73 
 618      3D313627 
 618      272D6666 
 618      756E6374 
 619 0099 2D666E6F 		.ascii	"-fno-common''-flto'\000"
 619      2D636F6D 
 619      6D6F6E27 
 619      272D666C 
ARM GAS  /tmp/ccxVeSjc.s 			page 50


 619      746F2700 
 620              		.text
 621              		.cfi_sections	.debug_frame
 622              		.section	.text.get_descriptor,"ax",%progbits
 623              		.align	2
 624              		.p2align 4,,15
 625              		.thumb
 626              		.thumb_func
 627              		.type	get_descriptor, %function
 628              	get_descriptor:
 629              	.LFB199:
 630              		.file 1 "usbcfg.c"
 631              		.loc 1 196 0
 632              		.cfi_startproc
 633              		@ args = 0, pretend = 0, frame = 0
 634              		@ frame_needed = 0, uses_anonymous_args = 0
 635              		@ link register save eliminated.
 636              	.LVL0:
 637              		.loc 1 200 0
 638 0000 0229     		cmp	r1, #2
 639 0002 06D0     		beq	.L6
 640 0004 0329     		cmp	r1, #3
 641 0006 06D0     		beq	.L5
 642              		.loc 1 209 0
 643 0008 0748     		ldr	r0, .L9
 644              	.LVL1:
 645 000a 0129     		cmp	r1, #1
 646 000c 18BF     		it	ne
 647 000e 0020     		movne	r0, #0
 648 0010 7047     		bx	lr
 649              	.LVL2:
 650              	.L6:
 651              		.loc 1 204 0
 652 0012 0648     		ldr	r0, .L9+4
 653              	.LVL3:
 654 0014 7047     		bx	lr
 655              	.LVL4:
 656              	.L5:
 657              		.loc 1 206 0
 658 0016 032A     		cmp	r2, #3
 659 0018 03D8     		bhi	.L7
 660              		.loc 1 207 0
 661 001a 0548     		ldr	r0, .L9+8
 662              	.LVL5:
 663 001c 00EBC200 		add	r0, r0, r2, lsl #3
 664 0020 7047     		bx	lr
 665              	.LVL6:
 666              	.L7:
 667              		.loc 1 209 0
 668 0022 0020     		movs	r0, #0
 669              	.LVL7:
 670              		.loc 1 210 0
 671 0024 7047     		bx	lr
 672              	.L10:
 673 0026 00BF     		.align	2
 674              	.L9:
 675 0028 00000000 		.word	.LANCHOR0
ARM GAS  /tmp/ccxVeSjc.s 			page 51


 676 002c 00000000 		.word	.LANCHOR1
 677 0030 00000000 		.word	.LANCHOR2
 678              		.cfi_endproc
 679              	.LFE199:
 680              		.size	get_descriptor, .-get_descriptor
 681 0034 AFF30080 		.section	.text.usb_event,"ax",%progbits
 681      AFF30080 
 681      AFF30080 
 682              		.align	2
 683              		.p2align 4,,15
 684              		.thumb
 685              		.thumb_func
 686              		.type	usb_event, %function
 687              	usb_event:
 688              	.LFB200:
 689              		.loc 1 262 0
 690              		.cfi_startproc
 691              		@ args = 0, pretend = 0, frame = 0
 692              		@ frame_needed = 0, uses_anonymous_args = 0
 693              	.LVL8:
 694              		.loc 1 265 0
 695 0000 0229     		cmp	r1, #2
 696              		.loc 1 262 0
 697 0002 38B5     		push	{r3, r4, r5, lr}
 698              	.LCFI0:
 699              		.cfi_def_cfa_offset 16
 700              		.cfi_offset 3, -16
 701              		.cfi_offset 4, -12
 702              		.cfi_offset 5, -8
 703              		.cfi_offset 14, -4
 704              		.loc 1 262 0
 705 0004 0C46     		mov	r4, r1
 706 0006 0546     		mov	r5, r0
 707              		.loc 1 265 0
 708 0008 11D1     		bne	.L11
 709              	.LVL9:
 710              	.LBB58:
 711              	.LBB59:
 712              	.LBB60:
 713              	.LBB61:
 714              	.LBB62:
 715              	.LBB63:
 716              	.LBB64:
 717              		.file 2 "../ChibiOS/os/ext/CMSIS/include/core_cmFunc.h"
 718              		.loc 2 546 0
 719 000a 2023     		movs	r3, #32
 720              	@ 546 "../ChibiOS/os/ext/CMSIS/include/core_cmFunc.h" 1
 721 000c 83F31188 		MSR basepri, r3
 722              	@ 0 "" 2
 723              		.thumb
 724              	.LBE64:
 725              	.LBE63:
 726              	.LBE62:
 727              	.LBE61:
 728              	.LBE60:
 729              		.loc 1 276 0
 730 0010 0121     		movs	r1, #1
ARM GAS  /tmp/ccxVeSjc.s 			page 52


 731              	.LVL10:
 732 0012 074A     		ldr	r2, .L14
 733 0014 FFF7FEFF 		bl	usbInitEndpointI
 734              	.LVL11:
 735              		.loc 1 277 0
 736 0018 2846     		mov	r0, r5
 737 001a 2146     		mov	r1, r4
 738 001c 054A     		ldr	r2, .L14+4
 739 001e FFF7FEFF 		bl	usbInitEndpointI
 740              	.LVL12:
 741              		.loc 1 280 0
 742 0022 0548     		ldr	r0, .L14+8
 743 0024 FFF7FEFF 		bl	sduConfigureHookI
 744              	.LVL13:
 745              	.LBB65:
 746              	.LBB66:
 747              	.LBB67:
 748              	.LBB68:
 749              	.LBB69:
 750              		.loc 2 546 0
 751 0028 0020     		movs	r0, #0
 752              	@ 546 "../ChibiOS/os/ext/CMSIS/include/core_cmFunc.h" 1
 753 002a 80F31188 		MSR basepri, r0
 754              	@ 0 "" 2
 755              	.LVL14:
 756              		.thumb
 757              	.L11:
 758 002e 38BD     		pop	{r3, r4, r5, pc}
 759              	.L15:
 760              		.align	2
 761              	.L14:
 762 0030 00000000 		.word	.LANCHOR3
 763 0034 00000000 		.word	.LANCHOR4
 764 0038 00000000 		.word	SDU1
 765              	.LBE69:
 766              	.LBE68:
 767              	.LBE67:
 768              	.LBE66:
 769              	.LBE65:
 770              	.LBE59:
 771              	.LBE58:
 772              		.cfi_endproc
 773              	.LFE200:
 774              		.size	usb_event, .-usb_event
 775              		.global	serusbcfg
 776              		.global	usbcfg
 777 003c AFF30080 		.section	.rodata.ep1config,"a",%progbits
 778              		.align	2
 779              		.set	.LANCHOR3,. + 0
 780              		.type	ep1config, %object
 781              		.size	ep1config, 36
 782              	ep1config:
 783 0000 02000000 		.word	2
 784 0004 00000000 		.word	0
 785 0008 00000000 		.word	sduDataTransmitted
 786 000c 00000000 		.word	sduDataReceived
 787 0010 4000     		.short	64
ARM GAS  /tmp/ccxVeSjc.s 			page 53


 788 0012 4000     		.short	64
 789 0014 00000000 		.word	ep1instate
 790 0018 00000000 		.word	ep1outstate
 791 001c 0200     		.short	2
 792 001e 0000     		.space	2
 793 0020 00000000 		.word	0
 794              		.section	.rodata.vcom_configuration_descriptor_data,"a",%progbits
 795              		.align	2
 796              		.type	vcom_configuration_descriptor_data, %object
 797              		.size	vcom_configuration_descriptor_data, 67
 798              	vcom_configuration_descriptor_data:
 799 0000 09       		.byte	9
 800 0001 02       		.byte	2
 801 0002 43       		.byte	67
 802 0003 00       		.byte	0
 803 0004 02       		.byte	2
 804 0005 01       		.byte	1
 805 0006 00       		.byte	0
 806 0007 C0       		.byte	-64
 807 0008 32       		.byte	50
 808 0009 09       		.byte	9
 809 000a 04       		.byte	4
 810 000b 00       		.byte	0
 811 000c 00       		.byte	0
 812 000d 01       		.byte	1
 813 000e 02       		.byte	2
 814 000f 02       		.byte	2
 815 0010 01       		.byte	1
 816 0011 00       		.byte	0
 817 0012 05       		.byte	5
 818 0013 24       		.byte	36
 819 0014 00       		.byte	0
 820 0015 10       		.byte	16
 821 0016 01       		.byte	1
 822 0017 05       		.byte	5
 823 0018 24       		.byte	36
 824 0019 01       		.byte	1
 825 001a 00       		.byte	0
 826 001b 01       		.byte	1
 827 001c 04       		.byte	4
 828 001d 24       		.byte	36
 829 001e 02       		.byte	2
 830 001f 02       		.byte	2
 831 0020 05       		.byte	5
 832 0021 24       		.byte	36
 833 0022 06       		.byte	6
 834 0023 00       		.byte	0
 835 0024 01       		.byte	1
 836 0025 07       		.byte	7
 837 0026 05       		.byte	5
 838 0027 82       		.byte	-126
 839 0028 03       		.byte	3
 840 0029 08       		.byte	8
 841 002a 00       		.byte	0
 842 002b FF       		.byte	-1
 843 002c 09       		.byte	9
 844 002d 04       		.byte	4
ARM GAS  /tmp/ccxVeSjc.s 			page 54


 845 002e 01       		.byte	1
 846 002f 00       		.byte	0
 847 0030 02       		.byte	2
 848 0031 0A       		.byte	10
 849 0032 00       		.byte	0
 850 0033 00       		.byte	0
 851 0034 00       		.byte	0
 852 0035 07       		.byte	7
 853 0036 05       		.byte	5
 854 0037 01       		.byte	1
 855 0038 02       		.byte	2
 856 0039 40       		.byte	64
 857 003a 00       		.byte	0
 858 003b 00       		.byte	0
 859 003c 07       		.byte	7
 860 003d 05       		.byte	5
 861 003e 81       		.byte	-127
 862 003f 02       		.byte	2
 863 0040 40       		.byte	64
 864 0041 00       		.byte	0
 865 0042 00       		.byte	0
 866 0043 00       		.section	.bss.ep1instate,"aw",%nobits
 867              		.align	2
 868              		.type	ep1instate, %object
 869              		.size	ep1instate, 16
 870              	ep1instate:
 871 0000 00000000 		.space	16
 871      00000000 
 871      00000000 
 871      00000000 
 872              		.section	.rodata.vcom_configuration_descriptor,"a",%progbits
 873              		.align	2
 874              		.set	.LANCHOR1,. + 0
 875              		.type	vcom_configuration_descriptor, %object
 876              		.size	vcom_configuration_descriptor, 8
 877              	vcom_configuration_descriptor:
 878 0000 43000000 		.word	67
 879 0004 00000000 		.word	vcom_configuration_descriptor_data
 880              		.section	.rodata.ep2config,"a",%progbits
 881              		.align	2
 882              		.set	.LANCHOR4,. + 0
 883              		.type	ep2config, %object
 884              		.size	ep2config, 36
 885              	ep2config:
 886 0000 03000000 		.word	3
 887 0004 00000000 		.word	0
 888 0008 00000000 		.word	sduInterruptTransmitted
 889 000c 00000000 		.word	0
 890 0010 1000     		.short	16
 891 0012 0000     		.short	0
 892 0014 00000000 		.word	ep2instate
 893 0018 00000000 		.word	0
 894 001c 0100     		.short	1
 895 001e 0000     		.space	2
 896 0020 00000000 		.word	0
 897              		.section	.bss.ep2instate,"aw",%nobits
 898              		.align	2
ARM GAS  /tmp/ccxVeSjc.s 			page 55


 899              		.type	ep2instate, %object
 900              		.size	ep2instate, 16
 901              	ep2instate:
 902 0000 00000000 		.space	16
 902      00000000 
 902      00000000 
 902      00000000 
 903              		.section	.rodata.usbcfg,"a",%progbits
 904              		.align	2
 905              		.type	usbcfg, %object
 906              		.size	usbcfg, 16
 907              	usbcfg:
 908 0000 00000000 		.word	usb_event
 909 0004 00000000 		.word	get_descriptor
 910 0008 00000000 		.word	sduRequestsHook
 911 000c 00000000 		.word	0
 912              		.section	.rodata.vcom_device_descriptor_data,"a",%progbits
 913              		.align	2
 914              		.type	vcom_device_descriptor_data, %object
 915              		.size	vcom_device_descriptor_data, 18
 916              	vcom_device_descriptor_data:
 917 0000 12       		.byte	18
 918 0001 01       		.byte	1
 919 0002 10       		.byte	16
 920 0003 01       		.byte	1
 921 0004 02       		.byte	2
 922 0005 00       		.byte	0
 923 0006 00       		.byte	0
 924 0007 40       		.byte	64
 925 0008 AF       		.byte	-81
 926 0009 1E       		.byte	30
 927 000a 04       		.byte	4
 928 000b 00       		.byte	0
 929 000c 00       		.byte	0
 930 000d 02       		.byte	2
 931 000e 01       		.byte	1
 932 000f 02       		.byte	2
 933 0010 03       		.byte	3
 934 0011 01       		.byte	1
 935 0012 0000     		.section	.bss.ep1outstate,"aw",%nobits
 936              		.align	2
 937              		.type	ep1outstate, %object
 938              		.size	ep1outstate, 20
 939              	ep1outstate:
 940 0000 00000000 		.space	20
 940      00000000 
 940      00000000 
 940      00000000 
 940      00000000 
 941              		.section	.rodata.vcom_string0,"a",%progbits
 942              		.align	2
 943              		.type	vcom_string0, %object
 944              		.size	vcom_string0, 4
 945              	vcom_string0:
 946 0000 04       		.byte	4
 947 0001 03       		.byte	3
 948 0002 09       		.byte	9
ARM GAS  /tmp/ccxVeSjc.s 			page 56


 949 0003 04       		.byte	4
 950              		.section	.rodata.vcom_string1,"a",%progbits
 951              		.align	2
 952              		.type	vcom_string1, %object
 953              		.size	vcom_string1, 18
 954              	vcom_string1:
 955 0000 12       		.byte	18
 956 0001 03       		.byte	3
 957 0002 4C       		.byte	76
 958 0003 00       		.byte	0
 959 0004 65       		.byte	101
 960 0005 00       		.byte	0
 961 0006 61       		.byte	97
 962 0007 00       		.byte	0
 963 0008 66       		.byte	102
 964 0009 00       		.byte	0
 965 000a 4C       		.byte	76
 966 000b 00       		.byte	0
 967 000c 61       		.byte	97
 968 000d 00       		.byte	0
 969 000e 62       		.byte	98
 970 000f 00       		.byte	0
 971 0010 73       		.byte	115
 972 0011 00       		.byte	0
 973 0012 0000     		.section	.rodata.vcom_string2,"a",%progbits
 974              		.align	2
 975              		.type	vcom_string2, %object
 976              		.size	vcom_string2, 56
 977              	vcom_string2:
 978 0000 38       		.byte	56
 979 0001 03       		.byte	3
 980 0002 43       		.byte	67
 981 0003 00       		.byte	0
 982 0004 68       		.byte	104
 983 0005 00       		.byte	0
 984 0006 69       		.byte	105
 985 0007 00       		.byte	0
 986 0008 62       		.byte	98
 987 0009 00       		.byte	0
 988 000a 69       		.byte	105
 989 000b 00       		.byte	0
 990 000c 4F       		.byte	79
 991 000d 00       		.byte	0
 992 000e 53       		.byte	83
 993 000f 00       		.byte	0
 994 0010 2F       		.byte	47
 995 0011 00       		.byte	0
 996 0012 52       		.byte	82
 997 0013 00       		.byte	0
 998 0014 54       		.byte	84
 999 0015 00       		.byte	0
 1000 0016 20       		.byte	32
 1001 0017 00       		.byte	0
 1002 0018 56       		.byte	86
 1003 0019 00       		.byte	0
 1004 001a 69       		.byte	105
 1005 001b 00       		.byte	0
ARM GAS  /tmp/ccxVeSjc.s 			page 57


 1006 001c 72       		.byte	114
 1007 001d 00       		.byte	0
 1008 001e 74       		.byte	116
 1009 001f 00       		.byte	0
 1010 0020 75       		.byte	117
 1011 0021 00       		.byte	0
 1012 0022 61       		.byte	97
 1013 0023 00       		.byte	0
 1014 0024 6C       		.byte	108
 1015 0025 00       		.byte	0
 1016 0026 20       		.byte	32
 1017 0027 00       		.byte	0
 1018 0028 43       		.byte	67
 1019 0029 00       		.byte	0
 1020 002a 4F       		.byte	79
 1021 002b 00       		.byte	0
 1022 002c 4D       		.byte	77
 1023 002d 00       		.byte	0
 1024 002e 20       		.byte	32
 1025 002f 00       		.byte	0
 1026 0030 50       		.byte	80
 1027 0031 00       		.byte	0
 1028 0032 6F       		.byte	111
 1029 0033 00       		.byte	0
 1030 0034 72       		.byte	114
 1031 0035 00       		.byte	0
 1032 0036 74       		.byte	116
 1033 0037 00       		.byte	0
 1034              		.section	.rodata.vcom_string3,"a",%progbits
 1035              		.align	2
 1036              		.type	vcom_string3, %object
 1037              		.size	vcom_string3, 8
 1038              	vcom_string3:
 1039 0000 08       		.byte	8
 1040 0001 03       		.byte	3
 1041 0002 33       		.byte	51
 1042 0003 00       		.byte	0
 1043 0004 30       		.byte	48
 1044 0005 00       		.byte	0
 1045 0006 30       		.byte	48
 1046 0007 00       		.byte	0
 1047              		.section	.rodata.vcom_strings,"a",%progbits
 1048              		.align	2
 1049              		.set	.LANCHOR2,. + 0
 1050              		.type	vcom_strings, %object
 1051              		.size	vcom_strings, 32
 1052              	vcom_strings:
 1053 0000 04000000 		.word	4
 1054 0004 00000000 		.word	vcom_string0
 1055 0008 12000000 		.word	18
 1056 000c 00000000 		.word	vcom_string1
 1057 0010 38000000 		.word	56
 1058 0014 00000000 		.word	vcom_string2
 1059 0018 08000000 		.word	8
 1060 001c 00000000 		.word	vcom_string3
 1061              		.section	.rodata.serusbcfg,"a",%progbits
 1062              		.align	2
ARM GAS  /tmp/ccxVeSjc.s 			page 58


 1063              		.type	serusbcfg, %object
 1064              		.size	serusbcfg, 8
 1065              	serusbcfg:
 1066 0000 00000000 		.word	USBD1
 1067 0004 01       		.byte	1
 1068 0005 01       		.byte	1
 1069 0006 02       		.byte	2
 1070 0007 00       		.space	1
 1071              		.section	.rodata.vcom_device_descriptor,"a",%progbits
 1072              		.align	2
 1073              		.set	.LANCHOR0,. + 0
 1074              		.type	vcom_device_descriptor, %object
 1075              		.size	vcom_device_descriptor, 8
 1076              	vcom_device_descriptor:
 1077 0000 12000000 		.word	18
 1078 0004 00000000 		.word	vcom_device_descriptor_data
 1079              		.text
 1080              	.Letext0:
 1081              		.file 3 "/home/laurence/ARM-GCC/bin/../lib/gcc/arm-none-eabi/4.7.4/include/stddef.h"
 1082              		.file 4 "/home/laurence/ARM-GCC/bin/../lib/gcc/arm-none-eabi/4.7.4/../../../../arm-none-eabi/inclu
 1083              		.file 5 "../ChibiOS/os/rt/ports/ARMCMx/compilers/GCC/chtypes.h"
 1084              		.file 6 "../ChibiOS/os/rt/include/chsystypes.h"
 1085              		.file 7 "../ChibiOS/os/rt/include/chschd.h"
 1086              		.file 8 "../ChibiOS/os/rt/ports/ARMCMx/chcore.h"
 1087              		.file 9 "../ChibiOS/os/rt/ports/ARMCMx/chcore_v7m.h"
 1088              		.file 10 "../ChibiOS/os/rt/include/chtm.h"
 1089              		.file 11 "../ChibiOS/os/rt/include/chmtx.h"
 1090              		.file 12 "../ChibiOS/os/rt/include/chevents.h"
 1091              		.file 13 "../ChibiOS/os/rt/include/chqueues.h"
 1092              		.file 14 "../ChibiOS/os/hal/include/usb.h"
 1093              		.file 15 "../ChibiOS/os/hal/ports/STM32/LLD/USBv1/usb_lld.h"
 1094              		.file 16 "../ChibiOS/os/hal/include/serial_usb.h"
 1095              		.file 17 "../ChibiOS/os/rt/include/chsys.h"
 1096              		.file 18 "../ChibiOS/os/ext/CMSIS/include/core_cm3.h"